Component: ARM Compiler 6.9 Tool: armlink [5ced1b00]

==============================================================================

Section Cross References

    main.o(.text) refers to stm32f10x_rcc.o(.text) for RCC_DeInit
    main.o(.text) refers to misc.o(.text) for NVIC_SetVectorTable
    main.o(.text) refers to systicktimer.o(.text) for Bsp::SysTickTimer::HwInit(unsigned)
    main.o(.text) refers to test.o(.text) for Init_Tests()
    main.o(.ARM.exidx) refers to Unwind-EHABI.cpp.o(.text.__aeabi_unwind_cpp_pr0) for __aeabi_unwind_cpp_pr0
    main.o(.ARM.exidx) refers to main.o(.text) for [Anonymous Symbol]
    misc.o(.ARM.exidx) refers to misc.o(.text) for [Anonymous Symbol]
    stm32f10x_exti.o(.ARM.exidx) refers to stm32f10x_exti.o(.text) for [Anonymous Symbol]
    stm32f10x_gpio.o(.text) refers to stm32f10x_rcc.o(.text) for RCC_APB2PeriphResetCmd
    stm32f10x_gpio.o(.ARM.exidx) refers to stm32f10x_gpio.o(.text) for [Anonymous Symbol]
    stm32f10x_i2c.o(.text) refers to stm32f10x_rcc.o(.text) for RCC_APB1PeriphResetCmd
    stm32f10x_i2c.o(.ARM.exidx) refers to stm32f10x_i2c.o(.text) for [Anonymous Symbol]
    stm32f10x_rcc.o(.text) refers to stm32f10x_rcc.o(.rodata.APBAHBPrescTable) for APBAHBPrescTable
    stm32f10x_rcc.o(.text) refers to stm32f10x_rcc.o(.rodata.ADCPrescTable) for ADCPrescTable
    stm32f10x_rcc.o(.ARM.exidx) refers to stm32f10x_rcc.o(.text) for [Anonymous Symbol]
    stm32f10x_spi.o(.text) refers to stm32f10x_rcc.o(.text) for RCC_APB2PeriphResetCmd
    stm32f10x_spi.o(.ARM.exidx) refers to stm32f10x_spi.o(.text) for [Anonymous Symbol]
    stm32f10x_usart.o(.text) refers to stm32f10x_rcc.o(.text) for RCC_APB2PeriphResetCmd
    stm32f10x_usart.o(.ARM.exidx) refers to stm32f10x_usart.o(.text) for [Anonymous Symbol]
    gpioinput.o(.text) refers to gpioinput.o(.rodata._ZTVN3Bsp9GpioInputE) for vtable for Bsp::GpioInput
    gpioinput.o(.text) refers to stm32f10x_gpio.o(.text) for GPIO_Init
    gpioinput.o(.text) refers to stm32f10x_exti.o(.text) for EXTI_Init
    gpioinput.o(.ARM.exidx) refers to Unwind-EHABI.cpp.o(.text.__aeabi_unwind_cpp_pr0) for __aeabi_unwind_cpp_pr0
    gpioinput.o(.ARM.exidx) refers to gpioinput.o(.text) for [Anonymous Symbol]
    gpioinput.o(.rodata._ZTVN3Bsp9GpioInputE) refers to gpioinput.o(.text._ZN3Bsp14PeripheralBaseD2Ev) for Bsp::PeripheralBase::~PeripheralBase__sub_object()
    gpioinput.o(.rodata._ZTVN3Bsp9GpioInputE) refers to gpioinput.o(.text._ZN3Bsp9GpioInputD0Ev) for Bsp::GpioInput::~GpioInput__deallocating()
    gpioinput.o(.rodata._ZTVN3Bsp9GpioInputE) refers to gpioinput.o(.text) for Bsp::GpioInput::HwInit()
    gpioinput.o(.rodata._ZTVN3Bsp9GpioInputE) refers to gpioinput.o(.text._ZN3Bsp10Peripheral8HwConfigEPv) for Bsp::Peripheral::HwConfig(void*)
    gpioinput.o(.rodata._ZTVN3Bsp9GpioInputE) refers to gpioinput.o(.text._ZN3Bsp10Peripheral8HwEnableEv) for Bsp::Peripheral::HwEnable()
    gpioinput.o(.rodata._ZTVN3Bsp9GpioInputE) refers to gpioinput.o(.text._ZN3Bsp10Peripheral9HwDisableEv) for Bsp::Peripheral::HwDisable()
    gpioinput.o(.rodata._ZTVN3Bsp9GpioInputE) refers to gpioinput.o(.text._ZN3Bsp10Peripheral15HwGetFlagStatusEj) for Bsp::Peripheral::HwGetFlagStatus(unsigned)
    gpioinput.o(.rodata._ZTVN3Bsp9GpioInputE) refers to peripheral.o(.text) for Bsp::Peripheral::HwClockEnable(Bsp::PeripheralBase::Peripheral_t)
    gpioinput.o(.rodata._ZTVN3Bsp9GpioInputE) refers to gpioinput.o(.text._ZN3Bsp10Peripheral16HwClearInterruptENS_14PeripheralBase4IRQnE) for Bsp::Peripheral::HwClearInterrupt(Bsp::PeripheralBase::IRQn)
    gpiooutput.o(.text) refers to gpiooutput.o(.rodata._ZTVN3Bsp10GpioOutputE) for vtable for Bsp::GpioOutput
    gpiooutput.o(.text) refers to stm32f10x_gpio.o(.text) for GPIO_Init
    gpiooutput.o(.ARM.exidx) refers to Unwind-EHABI.cpp.o(.text.__aeabi_unwind_cpp_pr0) for __aeabi_unwind_cpp_pr0
    gpiooutput.o(.ARM.exidx) refers to gpiooutput.o(.text) for [Anonymous Symbol]
    gpiooutput.o(.rodata._ZTVN3Bsp10GpioOutputE) refers to gpioinput.o(.text._ZN3Bsp14PeripheralBaseD2Ev) for Bsp::PeripheralBase::~PeripheralBase__sub_object()
    gpiooutput.o(.rodata._ZTVN3Bsp10GpioOutputE) refers to gpiooutput.o(.text._ZN3Bsp10GpioOutputD0Ev) for Bsp::GpioOutput::~GpioOutput__deallocating()
    gpiooutput.o(.rodata._ZTVN3Bsp10GpioOutputE) refers to gpiooutput.o(.text) for Bsp::GpioOutput::HwInit()
    gpiooutput.o(.rodata._ZTVN3Bsp10GpioOutputE) refers to gpioinput.o(.text._ZN3Bsp10Peripheral8HwConfigEPv) for Bsp::Peripheral::HwConfig(void*)
    gpiooutput.o(.rodata._ZTVN3Bsp10GpioOutputE) refers to gpioinput.o(.text._ZN3Bsp10Peripheral8HwEnableEv) for Bsp::Peripheral::HwEnable()
    gpiooutput.o(.rodata._ZTVN3Bsp10GpioOutputE) refers to gpioinput.o(.text._ZN3Bsp10Peripheral9HwDisableEv) for Bsp::Peripheral::HwDisable()
    gpiooutput.o(.rodata._ZTVN3Bsp10GpioOutputE) refers to gpioinput.o(.text._ZN3Bsp10Peripheral15HwGetFlagStatusEj) for Bsp::Peripheral::HwGetFlagStatus(unsigned)
    gpiooutput.o(.rodata._ZTVN3Bsp10GpioOutputE) refers to peripheral.o(.text) for Bsp::Peripheral::HwClockEnable(Bsp::PeripheralBase::Peripheral_t)
    gpiooutput.o(.rodata._ZTVN3Bsp10GpioOutputE) refers to gpioinput.o(.text._ZN3Bsp10Peripheral16HwClearInterruptENS_14PeripheralBase4IRQnE) for Bsp::Peripheral::HwClearInterrupt(Bsp::PeripheralBase::IRQn)
    i2c.o(.text) refers to stm32f10x_rcc.o(.text) for RCC_APB1PeriphClockCmd
    i2c.o(.text) refers to stm32f10x_gpio.o(.text) for GPIO_Init
    i2c.o(.text) refers to stm32f10x_i2c.o(.text) for I2C_Init
    i2c.o(.ARM.exidx) refers to Unwind-EHABI.cpp.o(.text.__aeabi_unwind_cpp_pr0) for __aeabi_unwind_cpp_pr0
    i2c.o(.ARM.exidx) refers to i2c.o(.text) for [Anonymous Symbol]
    i2cdriver.o(.text) refers to i2cdriver.o(.rodata._ZTVN3Bsp9I2CDriverE) for vtable for Bsp::I2CDriver
    i2cdriver.o(.text) refers to stm32f10x_i2c.o(.text) for I2C_AcknowledgeConfig
    i2cdriver.o(.text) refers to i2cdriver.o(.text._ZN3Bsp9I2CDriver7HwStartEv) for Bsp::I2CDriver::HwStart()
    i2cdriver.o(.text) refers to i2cdriver.o(.bss._ZZN3Bsp9I2CDriver10ScanDeviceEhE7Timeout) for Bsp::I2CDriver::ScanDevice(unsigned char)::Timeout
    i2cdriver.o(.text) refers to new.cpp.o(.text._ZdlPv) for operator delete (void*)
    i2cdriver.o(.text) refers to stm32f10x_rcc.o(.text) for RCC_APB1PeriphResetCmd
    i2cdriver.o(.text) refers to stm32f10x_gpio.o(.text) for GPIO_Init
    i2cdriver.o(.text) refers to i2cdriver.o(.bss._ZZN3Bsp9I2CDriver7ReceiveEhPhjE7Timeout) for Bsp::I2CDriver::Receive(unsigned char, unsigned char*, unsigned)::Timeout
    i2cdriver.o(.ARM.exidx) refers to Unwind-EHABI.cpp.o(.text.__aeabi_unwind_cpp_pr0) for __aeabi_unwind_cpp_pr0
    i2cdriver.o(.ARM.exidx) refers to i2cdriver.o(.text) for [Anonymous Symbol]
    i2cdriver.o(.rodata._ZTVN3Bsp9I2CDriverE) refers to i2cdriver.o(.text) for Bsp::I2CDriver::~I2CDriver__sub_object()
    i2cdriver.o(.rodata._ZTVN3Bsp9I2CDriverE) refers to gpioinput.o(.text._ZN3Bsp10Peripheral8HwConfigEPv) for Bsp::Peripheral::HwConfig(void*)
    i2cdriver.o(.rodata._ZTVN3Bsp9I2CDriverE) refers to gpioinput.o(.text._ZN3Bsp10Peripheral8HwEnableEv) for Bsp::Peripheral::HwEnable()
    i2cdriver.o(.rodata._ZTVN3Bsp9I2CDriverE) refers to gpioinput.o(.text._ZN3Bsp10Peripheral9HwDisableEv) for Bsp::Peripheral::HwDisable()
    i2cdriver.o(.rodata._ZTVN3Bsp9I2CDriverE) refers to gpioinput.o(.text._ZN3Bsp10Peripheral15HwGetFlagStatusEj) for Bsp::Peripheral::HwGetFlagStatus(unsigned)
    i2cdriver.o(.rodata._ZTVN3Bsp9I2CDriverE) refers to peripheral.o(.text) for Bsp::Peripheral::HwClockEnable(Bsp::PeripheralBase::Peripheral_t)
    i2cdriver.o(.rodata._ZTVN3Bsp9I2CDriverE) refers to gpioinput.o(.text._ZN3Bsp10Peripheral16HwClearInterruptENS_14PeripheralBase4IRQnE) for Bsp::Peripheral::HwClearInterrupt(Bsp::PeripheralBase::IRQn)
    spidriver.o(.text) refers to spidriver.o(.rodata._ZTVN3Bsp9SpiDriverE) for vtable for Bsp::SpiDriver
    spidriver.o(.text) refers to stm32f10x_gpio.o(.text) for GPIO_Init
    spidriver.o(.text) refers to spidriver.o(.bss._ZGVZN3Bsp9SpiDriver6HwInitEvE13ChipSelectObj) for guard variable for Bsp::SpiDriver::HwInit()::ChipSelectObj
    spidriver.o(.text) refers to spidriver.o(.bss._ZZN3Bsp9SpiDriver6HwInitEvE13ChipSelectObj) for Bsp::SpiDriver::HwInit()::ChipSelectObj
    spidriver.o(.text) refers to gpiooutput.o(.text) for Bsp::GpioOutput::HwInit()
    spidriver.o(.text) refers to stm32f10x_spi.o(.text) for SPI_Init
    spidriver.o(.text) refers to cxa_guard.cpp.o(.text.__cxa_guard_acquire) for __cxa_guard_acquire
    spidriver.o(.text) refers to Unwind-EHABI.cpp.o(.text._Unwind_Resume) for _Unwind_Resume
    spidriver.o(.ARM.exidx) refers to Unwind-EHABI.cpp.o(.text.__aeabi_unwind_cpp_pr0) for __aeabi_unwind_cpp_pr0
    spidriver.o(.ARM.exidx) refers to spidriver.o(.text) for [Anonymous Symbol]
    spidriver.o(.ARM.exidx) refers to spidriver.o(.ARM.extab) for [Anonymous Symbol]
    spidriver.o(.ARM.extab) refers to cxa_personality.cpp.o(.text.__gxx_personality_v0) for __gxx_personality_v0
    spidriver.o(.rodata._ZTVN3Bsp9SpiDriverE) refers to gpioinput.o(.text._ZN3Bsp14PeripheralBaseD2Ev) for Bsp::PeripheralBase::~PeripheralBase__sub_object()
    spidriver.o(.rodata._ZTVN3Bsp9SpiDriverE) refers to spidriver.o(.text._ZN3Bsp9SpiDriverD0Ev) for Bsp::SpiDriver::~SpiDriver__deallocating()
    spidriver.o(.rodata._ZTVN3Bsp9SpiDriverE) refers to spidriver.o(.text) for Bsp::SpiDriver::HwInit()
    spidriver.o(.rodata._ZTVN3Bsp9SpiDriverE) refers to gpioinput.o(.text._ZN3Bsp10Peripheral8HwConfigEPv) for Bsp::Peripheral::HwConfig(void*)
    spidriver.o(.rodata._ZTVN3Bsp9SpiDriverE) refers to gpioinput.o(.text._ZN3Bsp10Peripheral8HwEnableEv) for Bsp::Peripheral::HwEnable()
    spidriver.o(.rodata._ZTVN3Bsp9SpiDriverE) refers to gpioinput.o(.text._ZN3Bsp10Peripheral9HwDisableEv) for Bsp::Peripheral::HwDisable()
    spidriver.o(.rodata._ZTVN3Bsp9SpiDriverE) refers to gpioinput.o(.text._ZN3Bsp10Peripheral15HwGetFlagStatusEj) for Bsp::Peripheral::HwGetFlagStatus(unsigned)
    spidriver.o(.rodata._ZTVN3Bsp9SpiDriverE) refers to peripheral.o(.text) for Bsp::Peripheral::HwClockEnable(Bsp::PeripheralBase::Peripheral_t)
    spidriver.o(.rodata._ZTVN3Bsp9SpiDriverE) refers to gpioinput.o(.text._ZN3Bsp10Peripheral16HwClearInterruptENS_14PeripheralBase4IRQnE) for Bsp::Peripheral::HwClearInterrupt(Bsp::PeripheralBase::IRQn)
    clockmanager.o(.text) refers to clockmanager.o(.bss._ZN3Bsp12ClockManager15m_pClockManagerE) for Bsp::ClockManager::m_pClockManager
    clockmanager.o(.text) refers to clockmanager.o(.bss._ZZN3Bsp12ClockManager11GetInstanceEvE21ClockManager_Instance) for Bsp::ClockManager::GetInstance()::ClockManager_Instance
    clockmanager.o(.text) refers to stm32f10x_rcc.o(.text) for RCC_APB2PeriphClockCmd
    clockmanager.o(.ARM.exidx) refers to clockmanager.o(.text) for [Anonymous Symbol]
    clockmanager.o(.ARM.exidx) refers to Unwind-EHABI.cpp.o(.text.__aeabi_unwind_cpp_pr0) for __aeabi_unwind_cpp_pr0
    interruptmanager.o(.text) refers to interruptmanager.o(.rodata..Lswitch.table._ZN3Bsp16InterruptManager17RegisterInterruptEPFvvENS0_4IRQnE) for .Lswitch.table._ZN3Bsp16InterruptManager17RegisterInterruptEPFvvENS0_4IRQnE
    interruptmanager.o(.text) refers to misc.o(.text) for NVIC_Init
    interruptmanager.o(.text) refers to interruptmanager.o(.bss._ZN3Bsp16InterruptManager19m_pInterruptManagerE) for Bsp::InterruptManager::m_pInterruptManager
    interruptmanager.o(.text) refers to interruptmanager.o(.bss._ZGVZN3Bsp16InterruptManager11GetInstanceEvE25InterruptManager_Instance) for guard variable for Bsp::InterruptManager::GetInstance()::InterruptManager_Instance
    interruptmanager.o(.text) refers to interruptmanager.o(.bss._ZZN3Bsp16InterruptManager11GetInstanceEvE25InterruptManager_Instance) for Bsp::InterruptManager::GetInstance()::InterruptManager_Instance
    interruptmanager.o(.text) refers to cxa_guard.cpp.o(.text.__cxa_guard_acquire) for __cxa_guard_acquire
    interruptmanager.o(.text) refers to stm32f10x_exti.o(.text) for EXTI_GetITStatus
    interruptmanager.o(.text) refers to interruptmanager.o(.bss._ZN3Bsp16InterruptManager18m_EXTI5_IRQHandlerE) for Bsp::InterruptManager::m_EXTI5_IRQHandler
    interruptmanager.o(.text) refers to interruptmanager.o(.bss._ZN3Bsp16InterruptManager18m_EXTI6_IRQHandlerE) for Bsp::InterruptManager::m_EXTI6_IRQHandler
    interruptmanager.o(.text) refers to interruptmanager.o(.bss._ZN3Bsp16InterruptManager18m_EXTI7_IRQHandlerE) for Bsp::InterruptManager::m_EXTI7_IRQHandler
    interruptmanager.o(.text) refers to interruptmanager.o(.bss._ZN3Bsp16InterruptManager18m_EXTI8_IRQHandlerE) for Bsp::InterruptManager::m_EXTI8_IRQHandler
    interruptmanager.o(.text) refers to interruptmanager.o(.bss._ZN3Bsp16InterruptManager18m_EXTI9_IRQHandlerE) for Bsp::InterruptManager::m_EXTI9_IRQHandler
    interruptmanager.o(.text) refers to interruptmanager.o(.bss._ZN3Bsp16InterruptManager19m_EXTI10_IRQHandlerE) for Bsp::InterruptManager::m_EXTI10_IRQHandler
    interruptmanager.o(.text) refers to interruptmanager.o(.bss._ZN3Bsp16InterruptManager19m_EXTI11_IRQHandlerE) for Bsp::InterruptManager::m_EXTI11_IRQHandler
    interruptmanager.o(.text) refers to interruptmanager.o(.bss._ZN3Bsp16InterruptManager19m_EXTI12_IRQHandlerE) for Bsp::InterruptManager::m_EXTI12_IRQHandler
    interruptmanager.o(.text) refers to interruptmanager.o(.bss._ZN3Bsp16InterruptManager19m_EXTI13_IRQHandlerE) for Bsp::InterruptManager::m_EXTI13_IRQHandler
    interruptmanager.o(.text) refers to interruptmanager.o(.bss._ZN3Bsp16InterruptManager19m_EXTI14_IRQHandlerE) for Bsp::InterruptManager::m_EXTI14_IRQHandler
    interruptmanager.o(.text) refers to interruptmanager.o(.bss._ZN3Bsp16InterruptManager19m_EXTI15_IRQHandlerE) for Bsp::InterruptManager::m_EXTI15_IRQHandler
    interruptmanager.o(.text) refers to interruptmanager.o(.bss._ZN3Bsp16InterruptManager18m_EXTI0_IRQHandlerE) for Bsp::InterruptManager::m_EXTI0_IRQHandler
    interruptmanager.o(.text) refers to interruptmanager.o(.bss._ZN3Bsp16InterruptManager18m_EXTI1_IRQHandlerE) for Bsp::InterruptManager::m_EXTI1_IRQHandler
    interruptmanager.o(.text) refers to interruptmanager.o(.bss._ZN3Bsp16InterruptManager18m_EXTI2_IRQHandlerE) for Bsp::InterruptManager::m_EXTI2_IRQHandler
    interruptmanager.o(.text) refers to interruptmanager.o(.bss._ZN3Bsp16InterruptManager18m_EXTI3_IRQHandlerE) for Bsp::InterruptManager::m_EXTI3_IRQHandler
    interruptmanager.o(.text) refers to interruptmanager.o(.bss._ZN3Bsp16InterruptManager18m_EXTI4_IRQHandlerE) for Bsp::InterruptManager::m_EXTI4_IRQHandler
    interruptmanager.o(.ARM.exidx) refers to Unwind-EHABI.cpp.o(.text.__aeabi_unwind_cpp_pr0) for __aeabi_unwind_cpp_pr0
    interruptmanager.o(.ARM.exidx) refers to interruptmanager.o(.text) for [Anonymous Symbol]
    interruptmanager.o(.rodata..Lswitch.table._ZN3Bsp16InterruptManager17RegisterInterruptEPFvvENS0_4IRQnE) refers to interruptmanager.o(.bss._ZN3Bsp16InterruptManager13m_NMI_HandlerE) for Bsp::InterruptManager::m_NMI_Handler
    interruptmanager.o(.rodata..Lswitch.table._ZN3Bsp16InterruptManager17RegisterInterruptEPFvvENS0_4IRQnE) refers to interruptmanager.o(.bss._ZN3Bsp16InterruptManager19m_HardFault_HandlerE) for Bsp::InterruptManager::m_HardFault_Handler
    interruptmanager.o(.rodata..Lswitch.table._ZN3Bsp16InterruptManager17RegisterInterruptEPFvvENS0_4IRQnE) refers to interruptmanager.o(.bss._ZN3Bsp16InterruptManager19m_MemManage_HandlerE) for Bsp::InterruptManager::m_MemManage_Handler
    interruptmanager.o(.rodata..Lswitch.table._ZN3Bsp16InterruptManager17RegisterInterruptEPFvvENS0_4IRQnE) refers to interruptmanager.o(.bss._ZN3Bsp16InterruptManager18m_BusFault_HandlerE) for Bsp::InterruptManager::m_BusFault_Handler
    interruptmanager.o(.rodata..Lswitch.table._ZN3Bsp16InterruptManager17RegisterInterruptEPFvvENS0_4IRQnE) refers to interruptmanager.o(.bss._ZN3Bsp16InterruptManager20m_UsageFault_HandlerE) for Bsp::InterruptManager::m_UsageFault_Handler
    interruptmanager.o(.rodata..Lswitch.table._ZN3Bsp16InterruptManager17RegisterInterruptEPFvvENS0_4IRQnE) refers to interruptmanager.o(.bss._ZN3Bsp16InterruptManager13m_SVC_HandlerE) for Bsp::InterruptManager::m_SVC_Handler
    interruptmanager.o(.rodata..Lswitch.table._ZN3Bsp16InterruptManager17RegisterInterruptEPFvvENS0_4IRQnE) refers to interruptmanager.o(.bss._ZN3Bsp16InterruptManager18m_DebugMon_HandlerE) for Bsp::InterruptManager::m_DebugMon_Handler
    interruptmanager.o(.rodata..Lswitch.table._ZN3Bsp16InterruptManager17RegisterInterruptEPFvvENS0_4IRQnE) refers to interruptmanager.o(.bss._ZN3Bsp16InterruptManager16m_PendSV_HandlerE) for Bsp::InterruptManager::m_PendSV_Handler
    interruptmanager.o(.rodata..Lswitch.table._ZN3Bsp16InterruptManager17RegisterInterruptEPFvvENS0_4IRQnE) refers to interruptmanager.o(.bss._ZN3Bsp16InterruptManager17m_SysTick_HandlerE) for Bsp::InterruptManager::m_SysTick_Handler
    interruptmanager.o(.rodata..Lswitch.table._ZN3Bsp16InterruptManager17RegisterInterruptEPFvvENS0_4IRQnE) refers to interruptmanager.o(.bss._ZN3Bsp16InterruptManager17m_WWDG_IRQHandlerE) for Bsp::InterruptManager::m_WWDG_IRQHandler
    interruptmanager.o(.rodata..Lswitch.table._ZN3Bsp16InterruptManager17RegisterInterruptEPFvvENS0_4IRQnE) refers to interruptmanager.o(.bss._ZN3Bsp16InterruptManager16m_PVD_IRQHandlerE) for Bsp::InterruptManager::m_PVD_IRQHandler
    interruptmanager.o(.rodata..Lswitch.table._ZN3Bsp16InterruptManager17RegisterInterruptEPFvvENS0_4IRQnE) refers to interruptmanager.o(.bss._ZN3Bsp16InterruptManager19m_TAMPER_IRQHandlerE) for Bsp::InterruptManager::m_TAMPER_IRQHandler
    interruptmanager.o(.rodata..Lswitch.table._ZN3Bsp16InterruptManager17RegisterInterruptEPFvvENS0_4IRQnE) refers to interruptmanager.o(.bss._ZN3Bsp16InterruptManager16m_RTC_IRQHandlerE) for Bsp::InterruptManager::m_RTC_IRQHandler
    interruptmanager.o(.rodata..Lswitch.table._ZN3Bsp16InterruptManager17RegisterInterruptEPFvvENS0_4IRQnE) refers to interruptmanager.o(.bss._ZN3Bsp16InterruptManager18m_FLASH_IRQHandlerE) for Bsp::InterruptManager::m_FLASH_IRQHandler
    interruptmanager.o(.rodata..Lswitch.table._ZN3Bsp16InterruptManager17RegisterInterruptEPFvvENS0_4IRQnE) refers to interruptmanager.o(.bss._ZN3Bsp16InterruptManager16m_RCC_IRQHandlerE) for Bsp::InterruptManager::m_RCC_IRQHandler
    interruptmanager.o(.rodata..Lswitch.table._ZN3Bsp16InterruptManager17RegisterInterruptEPFvvENS0_4IRQnE) refers to interruptmanager.o(.bss._ZN3Bsp16InterruptManager18m_EXTI0_IRQHandlerE) for Bsp::InterruptManager::m_EXTI0_IRQHandler
    interruptmanager.o(.rodata..Lswitch.table._ZN3Bsp16InterruptManager17RegisterInterruptEPFvvENS0_4IRQnE) refers to interruptmanager.o(.bss._ZN3Bsp16InterruptManager18m_EXTI1_IRQHandlerE) for Bsp::InterruptManager::m_EXTI1_IRQHandler
    interruptmanager.o(.rodata..Lswitch.table._ZN3Bsp16InterruptManager17RegisterInterruptEPFvvENS0_4IRQnE) refers to interruptmanager.o(.bss._ZN3Bsp16InterruptManager18m_EXTI2_IRQHandlerE) for Bsp::InterruptManager::m_EXTI2_IRQHandler
    interruptmanager.o(.rodata..Lswitch.table._ZN3Bsp16InterruptManager17RegisterInterruptEPFvvENS0_4IRQnE) refers to interruptmanager.o(.bss._ZN3Bsp16InterruptManager18m_EXTI3_IRQHandlerE) for Bsp::InterruptManager::m_EXTI3_IRQHandler
    interruptmanager.o(.rodata..Lswitch.table._ZN3Bsp16InterruptManager17RegisterInterruptEPFvvENS0_4IRQnE) refers to interruptmanager.o(.bss._ZN3Bsp16InterruptManager18m_EXTI4_IRQHandlerE) for Bsp::InterruptManager::m_EXTI4_IRQHandler
    interruptmanager.o(.rodata..Lswitch.table._ZN3Bsp16InterruptManager17RegisterInterruptEPFvvENS0_4IRQnE) refers to interruptmanager.o(.bss._ZN3Bsp16InterruptManager26m_DMA1_Channel1_IRQHandlerE) for Bsp::InterruptManager::m_DMA1_Channel1_IRQHandler
    interruptmanager.o(.rodata..Lswitch.table._ZN3Bsp16InterruptManager17RegisterInterruptEPFvvENS0_4IRQnE) refers to interruptmanager.o(.bss._ZN3Bsp16InterruptManager26m_DMA1_Channel2_IRQHandlerE) for Bsp::InterruptManager::m_DMA1_Channel2_IRQHandler
    interruptmanager.o(.rodata..Lswitch.table._ZN3Bsp16InterruptManager17RegisterInterruptEPFvvENS0_4IRQnE) refers to interruptmanager.o(.bss._ZN3Bsp16InterruptManager26m_DMA1_Channel4_IRQHandlerE) for Bsp::InterruptManager::m_DMA1_Channel4_IRQHandler
    interruptmanager.o(.rodata..Lswitch.table._ZN3Bsp16InterruptManager17RegisterInterruptEPFvvENS0_4IRQnE) refers to interruptmanager.o(.bss._ZN3Bsp16InterruptManager26m_DMA1_Channel5_IRQHandlerE) for Bsp::InterruptManager::m_DMA1_Channel5_IRQHandler
    interruptmanager.o(.rodata..Lswitch.table._ZN3Bsp16InterruptManager17RegisterInterruptEPFvvENS0_4IRQnE) refers to interruptmanager.o(.bss._ZN3Bsp16InterruptManager26m_DMA1_Channel6_IRQHandlerE) for Bsp::InterruptManager::m_DMA1_Channel6_IRQHandler
    interruptmanager.o(.rodata..Lswitch.table._ZN3Bsp16InterruptManager17RegisterInterruptEPFvvENS0_4IRQnE) refers to interruptmanager.o(.bss._ZN3Bsp16InterruptManager26m_DMA1_Channel7_IRQHandlerE) for Bsp::InterruptManager::m_DMA1_Channel7_IRQHandler
    interruptmanager.o(.rodata..Lswitch.table._ZN3Bsp16InterruptManager17RegisterInterruptEPFvvENS0_4IRQnE) refers to interruptmanager.o(.bss._ZN3Bsp16InterruptManager19m_ADC1_2_IRQHandlerE) for Bsp::InterruptManager::m_ADC1_2_IRQHandler
    interruptmanager.o(.rodata..Lswitch.table._ZN3Bsp16InterruptManager17RegisterInterruptEPFvvENS0_4IRQnE) refers to interruptmanager.o(.bss._ZN3Bsp16InterruptManager27m_USB_HP_CAN1_TX_IRQHandlerE) for Bsp::InterruptManager::m_USB_HP_CAN1_TX_IRQHandler
    interruptmanager.o(.rodata..Lswitch.table._ZN3Bsp16InterruptManager17RegisterInterruptEPFvvENS0_4IRQnE) refers to interruptmanager.o(.bss._ZN3Bsp16InterruptManager28m_USB_LP_CAN1_RX0_IRQHandlerE) for Bsp::InterruptManager::m_USB_LP_CAN1_RX0_IRQHandler
    interruptmanager.o(.rodata..Lswitch.table._ZN3Bsp16InterruptManager17RegisterInterruptEPFvvENS0_4IRQnE) refers to interruptmanager.o(.bss._ZN3Bsp16InterruptManager21m_CAN1_RX1_IRQHandlerE) for Bsp::InterruptManager::m_CAN1_RX1_IRQHandler
    interruptmanager.o(.rodata..Lswitch.table._ZN3Bsp16InterruptManager17RegisterInterruptEPFvvENS0_4IRQnE) refers to interruptmanager.o(.bss._ZN3Bsp16InterruptManager21m_CAN1_SCE_IRQHandlerE) for Bsp::InterruptManager::m_CAN1_SCE_IRQHandler
    interruptmanager.o(.rodata..Lswitch.table._ZN3Bsp16InterruptManager17RegisterInterruptEPFvvENS0_4IRQnE) refers to interruptmanager.o(.bss._ZN3Bsp16InterruptManager21m_TIM1_BRK_IRQHandlerE) for Bsp::InterruptManager::m_TIM1_BRK_IRQHandler
    interruptmanager.o(.rodata..Lswitch.table._ZN3Bsp16InterruptManager17RegisterInterruptEPFvvENS0_4IRQnE) refers to interruptmanager.o(.bss._ZN3Bsp16InterruptManager20m_EXTI9_5_IRQHandlerE) for Bsp::InterruptManager::m_EXTI9_5_IRQHandler
    interruptmanager.o(.rodata..Lswitch.table._ZN3Bsp16InterruptManager17RegisterInterruptEPFvvENS0_4IRQnE) refers to interruptmanager.o(.bss._ZN3Bsp16InterruptManager20m_TIM1_UP_IRQHandlerE) for Bsp::InterruptManager::m_TIM1_UP_IRQHandler
    interruptmanager.o(.rodata..Lswitch.table._ZN3Bsp16InterruptManager17RegisterInterruptEPFvvENS0_4IRQnE) refers to interruptmanager.o(.bss._ZN3Bsp16InterruptManager25m_TIM1_TRG_COM_IRQHandlerE) for Bsp::InterruptManager::m_TIM1_TRG_COM_IRQHandler
    interruptmanager.o(.rodata..Lswitch.table._ZN3Bsp16InterruptManager17RegisterInterruptEPFvvENS0_4IRQnE) refers to interruptmanager.o(.bss._ZN3Bsp16InterruptManager20m_TIM1_CC_IRQHandlerE) for Bsp::InterruptManager::m_TIM1_CC_IRQHandler
    interruptmanager.o(.rodata..Lswitch.table._ZN3Bsp16InterruptManager17RegisterInterruptEPFvvENS0_4IRQnE) refers to interruptmanager.o(.bss._ZN3Bsp16InterruptManager17m_TIM2_IRQHandlerE) for Bsp::InterruptManager::m_TIM2_IRQHandler
    interruptmanager.o(.rodata..Lswitch.table._ZN3Bsp16InterruptManager17RegisterInterruptEPFvvENS0_4IRQnE) refers to interruptmanager.o(.bss._ZN3Bsp16InterruptManager17m_TIM3_IRQHandlerE) for Bsp::InterruptManager::m_TIM3_IRQHandler
    interruptmanager.o(.rodata..Lswitch.table._ZN3Bsp16InterruptManager17RegisterInterruptEPFvvENS0_4IRQnE) refers to interruptmanager.o(.bss._ZN3Bsp16InterruptManager17m_TIM4_IRQHandlerE) for Bsp::InterruptManager::m_TIM4_IRQHandler
    interruptmanager.o(.rodata..Lswitch.table._ZN3Bsp16InterruptManager17RegisterInterruptEPFvvENS0_4IRQnE) refers to interruptmanager.o(.bss._ZN3Bsp16InterruptManager20m_I2C1_ER_IRQHandlerE) for Bsp::InterruptManager::m_I2C1_ER_IRQHandler
    interruptmanager.o(.rodata..Lswitch.table._ZN3Bsp16InterruptManager17RegisterInterruptEPFvvENS0_4IRQnE) refers to interruptmanager.o(.bss._ZN3Bsp16InterruptManager20m_I2C2_EV_IRQHandlerE) for Bsp::InterruptManager::m_I2C2_EV_IRQHandler
    interruptmanager.o(.rodata..Lswitch.table._ZN3Bsp16InterruptManager17RegisterInterruptEPFvvENS0_4IRQnE) refers to interruptmanager.o(.bss._ZN3Bsp16InterruptManager20m_I2C2_ER_IRQHandlerE) for Bsp::InterruptManager::m_I2C2_ER_IRQHandler
    interruptmanager.o(.rodata..Lswitch.table._ZN3Bsp16InterruptManager17RegisterInterruptEPFvvENS0_4IRQnE) refers to interruptmanager.o(.bss._ZN3Bsp16InterruptManager17m_SPI1_IRQHandlerE) for Bsp::InterruptManager::m_SPI1_IRQHandler
    interruptmanager.o(.rodata..Lswitch.table._ZN3Bsp16InterruptManager17RegisterInterruptEPFvvENS0_4IRQnE) refers to interruptmanager.o(.bss._ZN3Bsp16InterruptManager17m_SPI2_IRQHandlerE) for Bsp::InterruptManager::m_SPI2_IRQHandler
    interruptmanager.o(.rodata..Lswitch.table._ZN3Bsp16InterruptManager17RegisterInterruptEPFvvENS0_4IRQnE) refers to interruptmanager.o(.bss._ZN3Bsp16InterruptManager19m_USART1_IRQHandlerE) for Bsp::InterruptManager::m_USART1_IRQHandler
    interruptmanager.o(.rodata..Lswitch.table._ZN3Bsp16InterruptManager17RegisterInterruptEPFvvENS0_4IRQnE) refers to interruptmanager.o(.bss._ZN3Bsp16InterruptManager19m_USART2_IRQHandlerE) for Bsp::InterruptManager::m_USART2_IRQHandler
    interruptmanager.o(.rodata..Lswitch.table._ZN3Bsp16InterruptManager17RegisterInterruptEPFvvENS0_4IRQnE) refers to interruptmanager.o(.bss._ZN3Bsp16InterruptManager19m_USART3_IRQHandlerE) for Bsp::InterruptManager::m_USART3_IRQHandler
    interruptmanager.o(.rodata..Lswitch.table._ZN3Bsp16InterruptManager17RegisterInterruptEPFvvENS0_4IRQnE) refers to interruptmanager.o(.bss._ZN3Bsp16InterruptManager22m_EXTI15_10_IRQHandlerE) for Bsp::InterruptManager::m_EXTI15_10_IRQHandler
    interruptmanager.o(.rodata..Lswitch.table._ZN3Bsp16InterruptManager17RegisterInterruptEPFvvENS0_4IRQnE) refers to interruptmanager.o(.bss._ZN3Bsp16InterruptManager21m_RTCAlarm_IRQHandlerE) for Bsp::InterruptManager::m_RTCAlarm_IRQHandler
    interruptmanager.o(.rodata..Lswitch.table._ZN3Bsp16InterruptManager17RegisterInterruptEPFvvENS0_4IRQnE) refers to interruptmanager.o(.bss._ZN3Bsp16InterruptManager22m_USBWakeUp_IRQHandlerE) for Bsp::InterruptManager::m_USBWakeUp_IRQHandler
    interruptmanager.o(.rodata..Lswitch.table._ZN3Bsp16InterruptManager17RegisterInterruptEPFvvENS0_4IRQnE) refers to interruptmanager.o(.bss._ZN3Bsp16InterruptManager18m_EXTI5_IRQHandlerE) for Bsp::InterruptManager::m_EXTI5_IRQHandler
    interruptmanager.o(.rodata..Lswitch.table._ZN3Bsp16InterruptManager17RegisterInterruptEPFvvENS0_4IRQnE) refers to interruptmanager.o(.bss._ZN3Bsp16InterruptManager18m_EXTI6_IRQHandlerE) for Bsp::InterruptManager::m_EXTI6_IRQHandler
    interruptmanager.o(.rodata..Lswitch.table._ZN3Bsp16InterruptManager17RegisterInterruptEPFvvENS0_4IRQnE) refers to interruptmanager.o(.bss._ZN3Bsp16InterruptManager18m_EXTI7_IRQHandlerE) for Bsp::InterruptManager::m_EXTI7_IRQHandler
    interruptmanager.o(.rodata..Lswitch.table._ZN3Bsp16InterruptManager17RegisterInterruptEPFvvENS0_4IRQnE) refers to interruptmanager.o(.bss._ZN3Bsp16InterruptManager18m_EXTI8_IRQHandlerE) for Bsp::InterruptManager::m_EXTI8_IRQHandler
    interruptmanager.o(.rodata..Lswitch.table._ZN3Bsp16InterruptManager17RegisterInterruptEPFvvENS0_4IRQnE) refers to interruptmanager.o(.bss._ZN3Bsp16InterruptManager18m_EXTI9_IRQHandlerE) for Bsp::InterruptManager::m_EXTI9_IRQHandler
    interruptmanager.o(.rodata..Lswitch.table._ZN3Bsp16InterruptManager17RegisterInterruptEPFvvENS0_4IRQnE) refers to interruptmanager.o(.bss._ZN3Bsp16InterruptManager19m_EXTI10_IRQHandlerE) for Bsp::InterruptManager::m_EXTI10_IRQHandler
    interruptmanager.o(.rodata..Lswitch.table._ZN3Bsp16InterruptManager17RegisterInterruptEPFvvENS0_4IRQnE) refers to interruptmanager.o(.bss._ZN3Bsp16InterruptManager19m_EXTI11_IRQHandlerE) for Bsp::InterruptManager::m_EXTI11_IRQHandler
    interruptmanager.o(.rodata..Lswitch.table._ZN3Bsp16InterruptManager17RegisterInterruptEPFvvENS0_4IRQnE) refers to interruptmanager.o(.bss._ZN3Bsp16InterruptManager19m_EXTI12_IRQHandlerE) for Bsp::InterruptManager::m_EXTI12_IRQHandler
    interruptmanager.o(.rodata..Lswitch.table._ZN3Bsp16InterruptManager17RegisterInterruptEPFvvENS0_4IRQnE) refers to interruptmanager.o(.bss._ZN3Bsp16InterruptManager19m_EXTI13_IRQHandlerE) for Bsp::InterruptManager::m_EXTI13_IRQHandler
    interruptmanager.o(.rodata..Lswitch.table._ZN3Bsp16InterruptManager17RegisterInterruptEPFvvENS0_4IRQnE) refers to interruptmanager.o(.bss._ZN3Bsp16InterruptManager19m_EXTI14_IRQHandlerE) for Bsp::InterruptManager::m_EXTI14_IRQHandler
    interruptmanager.o(.rodata..Lswitch.table._ZN3Bsp16InterruptManager17RegisterInterruptEPFvvENS0_4IRQnE) refers to interruptmanager.o(.bss._ZN3Bsp16InterruptManager19m_EXTI15_IRQHandlerE) for Bsp::InterruptManager::m_EXTI15_IRQHandler
    peripheral.o(.text) refers to clockmanager.o(.text) for Bsp::ClockManager::GetInstance()
    peripheral.o(.text) refers to interruptmanager.o(.text) for Bsp::InterruptManager::GetInstance()
    peripheral.o(.ARM.exidx) refers to Unwind-EHABI.cpp.o(.text.__aeabi_unwind_cpp_pr0) for __aeabi_unwind_cpp_pr0
    peripheral.o(.ARM.exidx) refers to peripheral.o(.text) for [Anonymous Symbol]
    peripheral.o(.rodata._ZTVN3Bsp10PeripheralE) refers to gpioinput.o(.text._ZN3Bsp14PeripheralBaseD2Ev) for Bsp::PeripheralBase::~PeripheralBase__sub_object()
    peripheral.o(.rodata._ZTVN3Bsp10PeripheralE) refers to peripheral.o(.text._ZN3Bsp10PeripheralD0Ev) for Bsp::Peripheral::~Peripheral__deallocating()
    peripheral.o(.rodata._ZTVN3Bsp10PeripheralE) refers to peripheral.o(.text._ZN3Bsp10Peripheral6HwInitEv) for Bsp::Peripheral::HwInit()
    peripheral.o(.rodata._ZTVN3Bsp10PeripheralE) refers to gpioinput.o(.text._ZN3Bsp10Peripheral8HwConfigEPv) for Bsp::Peripheral::HwConfig(void*)
    peripheral.o(.rodata._ZTVN3Bsp10PeripheralE) refers to gpioinput.o(.text._ZN3Bsp10Peripheral8HwEnableEv) for Bsp::Peripheral::HwEnable()
    peripheral.o(.rodata._ZTVN3Bsp10PeripheralE) refers to gpioinput.o(.text._ZN3Bsp10Peripheral9HwDisableEv) for Bsp::Peripheral::HwDisable()
    peripheral.o(.rodata._ZTVN3Bsp10PeripheralE) refers to gpioinput.o(.text._ZN3Bsp10Peripheral15HwGetFlagStatusEj) for Bsp::Peripheral::HwGetFlagStatus(unsigned)
    peripheral.o(.rodata._ZTVN3Bsp10PeripheralE) refers to peripheral.o(.text) for Bsp::Peripheral::HwClockEnable(Bsp::PeripheralBase::Peripheral_t)
    peripheral.o(.rodata._ZTVN3Bsp10PeripheralE) refers to gpioinput.o(.text._ZN3Bsp10Peripheral16HwClearInterruptENS_14PeripheralBase4IRQnE) for Bsp::Peripheral::HwClearInterrupt(Bsp::PeripheralBase::IRQn)
    portmanager.o(.text) refers to stm32f10x_gpio.o(.text) for GPIO_PinRemapConfig
    portmanager.o(.text) refers to portmanager.o(.bss._ZN3Bsp11PortManager14m_pPortManagerE) for Bsp::PortManager::m_pPortManager
    portmanager.o(.text) refers to portmanager.o(.bss._ZGVZN3Bsp11PortManager11GetInstanceEvE20PortManager_Instance) for guard variable for Bsp::PortManager::GetInstance()::PortManager_Instance
    portmanager.o(.text) refers to portmanager.o(.bss._ZZN3Bsp11PortManager11GetInstanceEvE20PortManager_Instance) for Bsp::PortManager::GetInstance()::PortManager_Instance
    portmanager.o(.text) refers to cxa_guard.cpp.o(.text.__cxa_guard_acquire) for __cxa_guard_acquire
    portmanager.o(.ARM.exidx) refers to Unwind-EHABI.cpp.o(.text.__aeabi_unwind_cpp_pr0) for __aeabi_unwind_cpp_pr0
    portmanager.o(.ARM.exidx) refers to portmanager.o(.text) for [Anonymous Symbol]
    systicktimer.o(.text) refers to systicktimer.o(.bss._ZN3Bsp12SysTickTimer7m_ticksE) for Bsp::SysTickTimer::m_ticks
    systicktimer.o(.text) refers to stm32f10x_rcc.o(.text) for RCC_GetClocksFreq
    systicktimer.o(.ARM.exidx) refers to systicktimer.o(.text) for [Anonymous Symbol]
    systicktimer.o(.ARM.exidx) refers to Unwind-EHABI.cpp.o(.text.__aeabi_unwind_cpp_pr0) for __aeabi_unwind_cpp_pr0
    ds3231.o(.text) refers to i2cdriver.o(.text) for Bsp::I2CDriver::Send(unsigned char, unsigned char*, unsigned)
    ds3231.o(.text) refers to sys_time.o(.text) for time
    ds3231.o(.text) refers to localtime.o(.text) for localtime
    ds3231.o(.text) refers to dflt_clz.o(x$fpl$dflt) for __aeabi_i2d
    ds3231.o(.text) refers to dmul.o(x$fpl$dmul) for __aeabi_dmul
    ds3231.o(.text) refers to dfix.o(x$fpl$dfix) for __aeabi_d2iz
    ds3231.o(.text) refers to ds3231.o(.data._ZZN6DS323110getTimeStrEhE6output) for DS3231::getTimeStr(unsigned char)::output
    ds3231.o(.text) refers to ds3231.o(.data._ZZN6DS323110getDateStrEhhcE6output) for DS3231::getDateStr(unsigned char, unsigned char, char)::output
    ds3231.o(.text) refers to ds3231.o(.rodata..L_ZZN6DS32319getDOWStrEhE9daysShort) for .L_ZZN6DS32319getDOWStrEhE9daysShort
    ds3231.o(.text) refers to ds3231.o(.rodata..L_ZZN6DS32319getDOWStrEhE8daysLong) for .L_ZZN6DS32319getDOWStrEhE8daysLong
    ds3231.o(.text) refers to ds3231.o(.rodata..L_ZZN6DS323111getMonthStrEhE10monthShort) for .L_ZZN6DS323111getMonthStrEhE10monthShort
    ds3231.o(.text) refers to ds3231.o(.rodata..L_ZZN6DS323111getMonthStrEhE9monthLong) for .L_ZZN6DS323111getMonthStrEhE9monthLong
    ds3231.o(.text) refers to fflt_clz.o(x$fpl$ffltu) for __aeabi_ui2f
    ds3231.o(.text) refers to fflt_clz.o(x$fpl$fflt) for __aeabi_i2f
    ds3231.o(.text) refers to fmul.o(x$fpl$fmul) for __aeabi_fmul
    ds3231.o(.text) refers to faddsub_clz.o(x$fpl$fadd) for __aeabi_fadd
    ds3231.o(.text) refers to string.cpp.o(.text._ZNSt3__19to_stringEi) for std::__1::to_string(int)
    ds3231.o(.text) refers to new.cpp.o(.text._ZdlPv) for operator delete (void*)
    ds3231.o(.ARM.exidx) refers to ds3231.o(.text) for [Anonymous Symbol]
    ds3231.o(.ARM.exidx) refers to Unwind-EHABI.cpp.o(.text.__aeabi_unwind_cpp_pr0) for __aeabi_unwind_cpp_pr0
    ds3231.o(.rodata..L_ZZN6DS32319getDOWStrEhE8daysLong) refers to ds3231.o(.rodata.str1.1) for .L.str.1
    ds3231.o(.rodata..L_ZZN6DS32319getDOWStrEhE9daysShort) refers to ds3231.o(.rodata.str1.1) for .L.str.8
    ds3231.o(.rodata..L_ZZN6DS323111getMonthStrEhE9monthLong) refers to ds3231.o(.rodata.str1.1) for .L.str.16
    ds3231.o(.rodata..L_ZZN6DS323111getMonthStrEhE10monthShort) refers to ds3231.o(.rodata.str1.1) for .L.str.28
    hwbutton.o(.text) refers to gpioinput.o(.text) for Bsp::GpioInput::GpioInput__sub_object(GPIO_TypeDef*, unsigned short)
    hwbutton.o(.text) refers to hwbutton.o(.rodata._ZTVN3Bsp8HwButtonE) for vtable for Bsp::HwButton
    hwbutton.o(.text) refers to rt_memclr_w.o(.text) for __aeabi_memclr4
    hwbutton.o(.text) refers to systicktimer.o(.bss._ZN3Bsp12SysTickTimer7m_ticksE) for Bsp::SysTickTimer::m_ticks
    hwbutton.o(.text) refers to hwbutton.o(.bss._ZZN3Bsp8HwButton15RunStateMachineEvE11ElapsedTime) for Bsp::HwButton::RunStateMachine()::ElapsedTime
    hwbutton.o(.text) refers to hwbutton.o(.bss._ZZN3Bsp8HwButton15RunStateMachineEvE21LastClickStateEntered) for Bsp::HwButton::RunStateMachine()::LastClickStateEntered
    hwbutton.o(.text) refers to stm32f10x_gpio.o(.text) for GPIO_ReadInputDataBit
    hwbutton.o(.ARM.exidx) refers to Unwind-EHABI.cpp.o(.text.__aeabi_unwind_cpp_pr0) for __aeabi_unwind_cpp_pr0
    hwbutton.o(.ARM.exidx) refers to hwbutton.o(.text) for [Anonymous Symbol]
    hwbutton.o(.rodata._ZTVN3Bsp8HwButtonE) refers to gpioinput.o(.text._ZN3Bsp14PeripheralBaseD2Ev) for Bsp::PeripheralBase::~PeripheralBase__sub_object()
    hwbutton.o(.rodata._ZTVN3Bsp8HwButtonE) refers to hwbutton.o(.text._ZN3Bsp8HwButtonD0Ev) for Bsp::HwButton::~HwButton__deallocating()
    hwbutton.o(.rodata._ZTVN3Bsp8HwButtonE) refers to hwbutton.o(.text) for Bsp::HwButton::HwInit()
    hwbutton.o(.rodata._ZTVN3Bsp8HwButtonE) refers to gpioinput.o(.text._ZN3Bsp10Peripheral8HwConfigEPv) for Bsp::Peripheral::HwConfig(void*)
    hwbutton.o(.rodata._ZTVN3Bsp8HwButtonE) refers to gpioinput.o(.text._ZN3Bsp10Peripheral8HwEnableEv) for Bsp::Peripheral::HwEnable()
    hwbutton.o(.rodata._ZTVN3Bsp8HwButtonE) refers to gpioinput.o(.text._ZN3Bsp10Peripheral9HwDisableEv) for Bsp::Peripheral::HwDisable()
    hwbutton.o(.rodata._ZTVN3Bsp8HwButtonE) refers to gpioinput.o(.text._ZN3Bsp10Peripheral15HwGetFlagStatusEj) for Bsp::Peripheral::HwGetFlagStatus(unsigned)
    hwbutton.o(.rodata._ZTVN3Bsp8HwButtonE) refers to peripheral.o(.text) for Bsp::Peripheral::HwClockEnable(Bsp::PeripheralBase::Peripheral_t)
    hwbutton.o(.rodata._ZTVN3Bsp8HwButtonE) refers to gpioinput.o(.text._ZN3Bsp10Peripheral16HwClearInterruptENS_14PeripheralBase4IRQnE) for Bsp::Peripheral::HwClearInterrupt(Bsp::PeripheralBase::IRQn)
    hwbuttonintr.o(.text) refers to hwbuttonintr.o(.text._ZN3Bsp12HwButtonIntr3ISREv) for Bsp::HwButtonIntr::ISR()
    hwbuttonintr.o(.text) refers to gpioinput.o(.text) for Bsp::GpioInput::GpioInput__sub_object(GPIO_TypeDef*, unsigned short, void(*)(), Bsp::Gpio::IntOnWhichEdge, Bsp::Gpio::EXTIMode)
    hwbuttonintr.o(.text) refers to hwbuttonintr.o(.rodata._ZTVN3Bsp12HwButtonIntrE) for vtable for Bsp::HwButtonIntr
    hwbuttonintr.o(.text) refers to hwbuttonintr.o(.bss._ZN3Bsp12HwButtonIntr5m_PinE) for Bsp::HwButtonIntr::m_Pin
    hwbuttonintr.o(.text) refers to rt_memclr_w.o(.text) for __aeabi_memclr4
    hwbuttonintr.o(.text) refers to hwbuttonintr.o(.bss._ZN3Bsp12HwButtonIntr14m_CurrentStateE) for Bsp::HwButtonIntr::m_CurrentState
    hwbuttonintr.o(.text) refers to systicktimer.o(.bss._ZN3Bsp12SysTickTimer7m_ticksE) for Bsp::SysTickTimer::m_ticks
    hwbuttonintr.o(.text) refers to hwbuttonintr.o(.bss._ZZN3Bsp12HwButtonIntr15RunStateMachineEvE21LastClickStateEntered) for Bsp::HwButtonIntr::RunStateMachine()::LastClickStateEntered
    hwbuttonintr.o(.ARM.exidx) refers to Unwind-EHABI.cpp.o(.text.__aeabi_unwind_cpp_pr0) for __aeabi_unwind_cpp_pr0
    hwbuttonintr.o(.ARM.exidx) refers to hwbuttonintr.o(.text) for [Anonymous Symbol]
    hwbuttonintr.o(.rodata._ZTVN3Bsp12HwButtonIntrE) refers to gpioinput.o(.text._ZN3Bsp14PeripheralBaseD2Ev) for Bsp::PeripheralBase::~PeripheralBase__sub_object()
    hwbuttonintr.o(.rodata._ZTVN3Bsp12HwButtonIntrE) refers to hwbuttonintr.o(.text._ZN3Bsp12HwButtonIntrD0Ev) for Bsp::HwButtonIntr::~HwButtonIntr__deallocating()
    hwbuttonintr.o(.rodata._ZTVN3Bsp12HwButtonIntrE) refers to hwbuttonintr.o(.text) for Bsp::HwButtonIntr::HwInit()
    hwbuttonintr.o(.rodata._ZTVN3Bsp12HwButtonIntrE) refers to gpioinput.o(.text._ZN3Bsp10Peripheral8HwConfigEPv) for Bsp::Peripheral::HwConfig(void*)
    hwbuttonintr.o(.rodata._ZTVN3Bsp12HwButtonIntrE) refers to gpioinput.o(.text._ZN3Bsp10Peripheral8HwEnableEv) for Bsp::Peripheral::HwEnable()
    hwbuttonintr.o(.rodata._ZTVN3Bsp12HwButtonIntrE) refers to gpioinput.o(.text._ZN3Bsp10Peripheral9HwDisableEv) for Bsp::Peripheral::HwDisable()
    hwbuttonintr.o(.rodata._ZTVN3Bsp12HwButtonIntrE) refers to gpioinput.o(.text._ZN3Bsp10Peripheral15HwGetFlagStatusEj) for Bsp::Peripheral::HwGetFlagStatus(unsigned)
    hwbuttonintr.o(.rodata._ZTVN3Bsp12HwButtonIntrE) refers to peripheral.o(.text) for Bsp::Peripheral::HwClockEnable(Bsp::PeripheralBase::Peripheral_t)
    hwbuttonintr.o(.rodata._ZTVN3Bsp12HwButtonIntrE) refers to gpioinput.o(.text._ZN3Bsp10Peripheral16HwClearInterruptENS_14PeripheralBase4IRQnE) for Bsp::Peripheral::HwClearInterrupt(Bsp::PeripheralBase::IRQn)
    ina219.o(.text) refers to ina219.o(.rodata._ZTVN3Bsp6INA219E) for vtable for Bsp::INA219
    ina219.o(.text) refers to new.cpp.o(.text._ZdlPv) for operator delete (void*)
    ina219.o(.text) refers to fcmp.o(x$fpl$fcmp) for __aeabi_fcmplt
    ina219.o(.text) refers to dflt_clz.o(x$fpl$dflt) for __aeabi_i2d
    ina219.o(.text) refers to dmul.o(x$fpl$dmul) for __aeabi_dmul
    ina219.o(.text) refers to d2f.o(x$fpl$d2f) for __aeabi_d2f
    ina219.o(.text) refers to fflt_clz.o(x$fpl$fflt) for __aeabi_i2f
    ina219.o(.text) refers to fflt_clz.o(x$fpl$ffltu) for __aeabi_ui2f
    ina219.o(.text) refers to fdiv.o(x$fpl$fdiv) for __aeabi_fdiv
    ina219.o(.text) refers to i2cdriver.o(.text) for Bsp::I2CDriver::Send(unsigned char, unsigned char*, unsigned)
    ina219.o(.ARM.exidx) refers to ina219.o(.text) for [Anonymous Symbol]
    ina219.o(.ARM.exidx) refers to Unwind-EHABI.cpp.o(.text.__aeabi_unwind_cpp_pr0) for __aeabi_unwind_cpp_pr0
    ina219.o(.rodata._ZTVN3Bsp6INA219E) refers to ina219.o(.text) for Bsp::INA219::~INA219__sub_object()
    led.o(.text) refers to gpiooutput.o(.text) for Bsp::GpioOutput::GpioOutput__sub_object(GPIO_TypeDef*, unsigned short)
    led.o(.text) refers to led.o(.rodata._ZTV3Led) for vtable for Led
    led.o(.text) refers to stm32f10x_gpio.o(.text) for GPIO_WriteBit
    led.o(.text) refers to systicktimer.o(.text) for Bsp::SysTickTimer::DelayTicks(unsigned)
    led.o(.ARM.exidx) refers to Unwind-EHABI.cpp.o(.text.__aeabi_unwind_cpp_pr0) for __aeabi_unwind_cpp_pr0
    led.o(.ARM.exidx) refers to led.o(.text) for [Anonymous Symbol]
    nokia5110lcd.o(.text) refers to stm32f10x_gpio.o(.text) for GPIO_WriteBit
    nokia5110lcd.o(.text) refers to systicktimer.o(.text) for Bsp::SysTickTimer::DelayTicks(unsigned)
    nokia5110lcd.o(.text) refers to spidriver.o(.text) for Bsp::SpiDriver::ChipSelect(Bsp::SpiDriver::ChipSelect_t)
    nokia5110lcd.o(.text) refers to nokia5110lcd.o(.rodata._ZN3AppL5ASCIIE) for _ZN3AppL5ASCIIE
    nokia5110lcd.o(.text) refers to nokia5110lcd.o(.rodata.str1.1) for .L.str
    nokia5110lcd.o(.ARM.exidx) refers to nokia5110lcd.o(.text) for [Anonymous Symbol]
    nokia5110lcd.o(.ARM.exidx) refers to Unwind-EHABI.cpp.o(.text.__aeabi_unwind_cpp_pr0) for __aeabi_unwind_cpp_pr0
    queue.o(.text) refers to queue.o(.rodata._ZTVN3Bsp5QueueE) for vtable for Bsp::Queue
    queue.o(.text) refers to new.cpp.o(.text._ZdlPv) for operator delete (void*)
    queue.o(.ARM.exidx) refers to queue.o(.text) for [Anonymous Symbol]
    queue.o(.rodata._ZTVN3Bsp5QueueE) refers to queue.o(.text) for Bsp::Queue::~Queue__sub_object()
    line.o(.ARM.exidx) refers to line.o(.text) for [Anonymous Symbol]
    menu.o(.text) refers to aeabi_memset.o(.text) for __aeabi_memset
    menu.o(.text) refers to rt_memcpy_v6.o(.text) for __aeabi_memcpy
    menu.o(.ARM.exidx) refers to menu.o(.text) for [Anonymous Symbol]
    menu.o(.ARM.exidx) refers to Unwind-EHABI.cpp.o(.text.__aeabi_unwind_cpp_pr0) for __aeabi_unwind_cpp_pr0
    page.o(.text) refers to aeabi_memset.o(.text) for __aeabi_memset
    page.o(.text) refers to rt_memcpy_v6.o(.text) for __aeabi_memcpy
    page.o(.ARM.exidx) refers to page.o(.text) for [Anonymous Symbol]
    screen.o(.text) refers to screen.o(.rodata._ZTVN3Bsp6ScreenE) for vtable for Bsp::Screen
    screen.o(.text) refers to aeabi_memset4.o(.text) for __aeabi_memset4
    screen.o(.text) refers to new.cpp.o(.text._ZdlPv) for operator delete (void*)
    screen.o(.text) refers to rt_memcpy_v6.o(.text) for __aeabi_memcpy
    screen.o(.text) refers to ui.o(.bss._ZN3App2UI12ActiveScreenE) for App::UI::ActiveScreen
    screen.o(.text) refers to ui.o(.bss._ZN3App2UI20PreviousActiveScreenE) for App::UI::PreviousActiveScreen
    screen.o(.text) refers to ui.o(.bss._ZN3App2UI22TotalRegisteredScreensE) for App::UI::TotalRegisteredScreens
    screen.o(.ARM.exidx) refers to screen.o(.text) for [Anonymous Symbol]
    screen.o(.ARM.exidx) refers to Unwind-EHABI.cpp.o(.text.__aeabi_unwind_cpp_pr0) for __aeabi_unwind_cpp_pr0
    screen.o(.rodata._ZTVN3Bsp6ScreenE) refers to screen.o(.text) for Bsp::Screen::~Screen__sub_object()
    screen.o(.rodata._ZTVN3Bsp6ScreenE) refers to screen.o(.text._ZN3Bsp6Screen18GetScreenTextArrayEv) for Bsp::Screen::GetScreenTextArray()
    ui.o(.text) refers to nokia5110lcd.o(.text) for App::Nokia5110LCD::HwInit()
    ui.o(.text) refers to rt_memclr_w.o(.text) for __aeabi_memclr4
    ui.o(.text) refers to ui.o(.bss._ZN3App2UI12ActiveScreenE) for App::UI::ActiveScreen
    ui.o(.ARM.exidx) refers to ui.o(.text) for [Anonymous Symbol]
    ui.o(.ARM.exidx) refers to Unwind-EHABI.cpp.o(.text.__aeabi_unwind_cpp_pr0) for __aeabi_unwind_cpp_pr0
    controlscreen.o(.text) refers to screen.o(.text) for Bsp::Screen::Screen__sub_object()
    controlscreen.o(.text) refers to controlscreen.o(.rodata._ZTVN3Bsp13ControlScreenE) for vtable for Bsp::ControlScreen
    controlscreen.o(.text) refers to rt_memclr_w.o(.text) for __aeabi_memclr4
    controlscreen.o(.text) refers to Unwind-EHABI.cpp.o(.text._Unwind_Resume) for _Unwind_Resume
    controlscreen.o(.text) refers to new.cpp.o(.text._ZdlPv) for operator delete (void*)
    controlscreen.o(.ARM.extab) refers to cxa_personality.cpp.o(.text.__gxx_personality_v0) for __gxx_personality_v0
    controlscreen.o(.ARM.exidx) refers to controlscreen.o(.text) for [Anonymous Symbol]
    controlscreen.o(.ARM.exidx) refers to controlscreen.o(.ARM.extab) for [Anonymous Symbol]
    controlscreen.o(.ARM.exidx) refers to Unwind-EHABI.cpp.o(.text.__aeabi_unwind_cpp_pr0) for __aeabi_unwind_cpp_pr0
    controlscreen.o(.rodata._ZTVN3Bsp13ControlScreenE) refers to controlscreen.o(.text) for Bsp::ControlScreen::~ControlScreen__sub_object()
    controlscreen.o(.rodata._ZTVN3Bsp13ControlScreenE) refers to controlscreen.o(.text._ZN3Bsp13ControlScreen18GetScreenTextArrayEv) for Bsp::ControlScreen::GetScreenTextArray()
    test.o(.text) refers to gpioinput.o(.text) for Bsp::GpioInput::GpioInput(GPIO_TypeDef*, unsigned short, void(*)(), Bsp::Gpio::IntOnWhichEdge)
    test.o(.text) refers to test.o(.bss._ZL25TestGpio_WithoutInterrupt) for _ZL25TestGpio_WithoutInterrupt
    test.o(.text) refers to test.o(.bss._ZL11HwButton_A2) for _ZL11HwButton_A2
    test.o(.text) refers to hwbuttonintr.o(.text) for Bsp::HwButtonIntr::HwInit()
    test.o(.text) refers to test.o(.bss._ZL10INA219_I2C) for _ZL10INA219_I2C
    test.o(.text) refers to i2cdriver.o(.text) for Bsp::I2CDriver::HwInit()
    test.o(.text) refers to test.o(.bss._ZL10INA219_Obj) for _ZL10INA219_Obj
    test.o(.text) refers to ina219.o(.text) for Bsp::INA219::SetCalibration_32V_2A()
    test.o(.text) refers to test.o(.bss.MyUI) for MyUI
    test.o(.text) refers to ui.o(.text) for App::UI::Init()
    test.o(.text) refers to test.o(.bss._ZL3rtc) for _ZL3rtc
    test.o(.text) refers to ds3231.o(.text) for DS3231::begin()
    test.o(.text) refers to Unwind-EHABI.cpp.o(.text._Unwind_Resume) for _Unwind_Resume
    test.o(.text) refers to test.o(.bss._ZZ13GpioInput_ISRvE1i) for GpioInput_ISR()::i
    test.o(.text) refers to test.o(.data.gEvent) for gEvent
    test.o(.text) refers to test.o(.bss._ZL18PowerMonitorScreen) for _ZL18PowerMonitorScreen
    test.o(.text) refers to test.o(.rodata.str1.1) for .L.str.18
    test.o(.text) refers to screen.o(.text) for Bsp::Screen::AddText(char*)
    test.o(.text) refers to test.o(.bss._ZL15myControlScreen) for _ZL15myControlScreen
    test.o(.text) refers to test.o(.rodata.str1.4) for .L.str.19
    test.o(.text) refers to rt_memcpy_w.o(.text) for __aeabi_memcpy4
    test.o(.text) refers to controlscreen.o(.text) for Bsp::ControlScreen::AddHandler(unsigned char, void(*)(), void(*)())
    test.o(.text) refers to test.o(.bss._ZL21myControlScreenHandle) for _ZL21myControlScreenHandle
    test.o(.text) refers to test.o(.bss.aVoltage) for aVoltage
    test.o(.text) refers to test.o(.bss.aCurrent) for aCurrent
    test.o(.text) refers to ffix.o(x$fpl$ffix) for __aeabi_f2iz
    test.o(.text) refers to fflt_clz.o(x$fpl$fflt) for __aeabi_i2f
    test.o(.text) refers to faddsub_clz.o(x$fpl$fsub) for __aeabi_fsub
    test.o(.text) refers to f2d.o(x$fpl$f2d) for __aeabi_f2d
    test.o(.text) refers to dflt_clz.o(x$fpl$dflt) for __aeabi_i2d
    test.o(.text) refers to pow.o(i.pow) for pow
    test.o(.text) refers to dmul.o(x$fpl$dmul) for __aeabi_dmul
    test.o(.text) refers to d2f.o(x$fpl$d2f) for __aeabi_d2f
    test.o(.text) refers to stm32f10x_gpio.o(.text) for GPIO_ReadInputDataBit
    test.o(.text) refers to test.o(.bss._ZL8Led_PC13) for _ZL8Led_PC13
    test.o(.text) refers to led.o(.text) for Led::On()
    test.o(.text) refers to systicktimer.o(.text) for Bsp::SysTickTimer::DelayTicks(unsigned)
    test.o(.text) refers to test.o(.bss.NokiaLCD) for NokiaLCD
    test.o(.text) refers to nokia5110lcd.o(.text) for App::Nokia5110LCD::DrawLine(unsigned char, unsigned char, const char*)
    test.o(.text) refers to test.o(.bss._ZZ14I2CDriver_TestvE11I2C_Devices) for I2CDriver_Test()::I2C_Devices
    test.o(.text) refers to test.o(.bss._ZZ18Nokia_Display_TestvE5index) for Nokia_Display_Test()::index
    test.o(.text) refers to test.o(.rodata.cst8) for Nokia_Display_Test()::Array
    test.o(.text) refers to gpiooutput.o(.text) for Bsp::GpioOutput::ToggleOutput()
    test.o(.text) refers to ui.o(.bss._ZN3App2UI12ActiveScreenE) for App::UI::ActiveScreen
    test.o(.text) refers to ui.o(.bss._ZN3App2UI20PreviousActiveScreenE) for App::UI::PreviousActiveScreen
    test.o(.text) refers to test.o(.bss._ZL13BackLightGpio) for _ZL13BackLightGpio
    test.o(.text) refers to aeabi_memset.o(.text) for __aeabi_memset
    test.o(.text) refers to cxa_atexit.o(.text) for __cxa_atexit
    test.o(.text) refers to test.o(.bss._ZL12SpiDriverLCD) for _ZL12SpiDriverLCD
    test.o(.text) refers to spidriver.o(.text) for Bsp::SpiDriver::SpiDriver(Bsp::SpiDriver::SpiInstance_t, void(*)(), Bsp::SpiDriver::SpiMode_t, Bsp::SpiDriver::SpiBaudRate_t)
    test.o(.text) refers to test.o(.bss._ZL21DataCommandSelectGpio) for _ZL21DataCommandSelectGpio
    test.o(.text) refers to test.o(.bss._ZL12ResetPinGpio) for _ZL12ResetPinGpio
    test.o(.ARM.extab) refers to cxa_personality.cpp.o(.text.__gxx_personality_v0) for __gxx_personality_v0
    test.o(.ARM.exidx) refers to test.o(.text) for [Anonymous Symbol]
    test.o(.ARM.exidx) refers to test.o(.ARM.extab) for [Anonymous Symbol]
    test.o(.ARM.exidx) refers to Unwind-EHABI.cpp.o(.text.__aeabi_unwind_cpp_pr0) for __aeabi_unwind_cpp_pr0
    test.o(.init_array) refers to test.o(.text) for _GLOBAL__sub_I_Test.cpp
    startup_stm32f10x_md.o(STACK) refers (Special) to heapauxi.o(.text) for __use_two_region_memory
    startup_stm32f10x_md.o(HEAP) refers (Special) to heapauxi.o(.text) for __use_two_region_memory
    startup_stm32f10x_md.o(RESET) refers (Special) to heapauxi.o(.text) for __use_two_region_memory
    startup_stm32f10x_md.o(RESET) refers to startup_stm32f10x_md.o(STACK) for __initial_sp
    startup_stm32f10x_md.o(RESET) refers to startup_stm32f10x_md.o(.text) for Reset_Handler
    startup_stm32f10x_md.o(RESET) refers to systicktimer.o(.text) for SysTick_Handler
    startup_stm32f10x_md.o(RESET) refers to interruptmanager.o(.text) for EXTI0_IRQHandler
    startup_stm32f10x_md.o(.text) refers (Special) to heapauxi.o(.text) for __use_two_region_memory
    startup_stm32f10x_md.o(.text) refers to system_stm32f10x.o(.text) for SystemInit
    startup_stm32f10x_md.o(.text) refers to __main.o(!!!main) for __main
    startup_stm32f10x_md.o(.text) refers to startup_stm32f10x_md.o(HEAP) for Heap_Mem
    startup_stm32f10x_md.o(.text) refers to startup_stm32f10x_md.o(STACK) for Stack_Mem
    system_stm32f10x.o(.text) refers to system_stm32f10x.o(.data.SystemCoreClock) for SystemCoreClock
    system_stm32f10x.o(.text) refers to system_stm32f10x.o(.rodata.AHBPrescTable) for AHBPrescTable
    system_stm32f10x.o(.ARM.exidx) refers to system_stm32f10x.o(.text) for [Anonymous Symbol]
    sys_time.o(.text) refers (Special) to use_no_semi.o(.text) for __I$use$semihosting
    sys_time.o(.text) refers (Special) to indicate_semi.o(.text) for __semihosting_library_function
    sys_time_hlt.o(.text) refers (Special) to use_no_semi.o(.text) for __I$use$semihosting
    sys_time_hlt.o(.text) refers (Special) to indicate_semi.o(.text) for __semihosting_library_function
    atexit_cxa.o(.text) refers to cxa_atexit.o(.text) for __cxa_atexit
    atexit_cxa.o(.ARM.exidx) refers to atexit_cxa.o(.text) for .text
    cxa_atexit.o(.text) refers to aeabi_atexit.o(.text) for __aeabi_atexit
    cxa_atexit.o(.ARM.exidx) refers to cxa_atexit.o(.text) for .text
    rt_memcpy_v6.o(.text) refers to rt_memcpy_w.o(.text) for __aeabi_memcpy4
    aeabi_memset.o(.text) refers to rt_memclr.o(.text) for _memset
    aeabi_memset4.o(.text) refers to rt_memclr_w.o(.text) for _memset_w
    localtime.o(.text) refers to localtime_internal.o(.text) for _localtime_r
    localtime.o(.text) refers to localtime.o(.bss) for .bss
    __main.o(!!!main) refers to __rtentry.o(.ARM.Collect$$rtentry$$00000000) for __rt_entry
    init_aeabi.o(.emb_text) refers (Special) to libinit2.o(.ARM.Collect$$libinit$$00000031) for __rt_lib_init_cpp_2
    init_aeabi.o(.init_array) refers (Special) to libinit2.o(.ARM.Collect$$libinit$$00000031) for __rt_lib_init_cpp_2
    init_aeabi.o(.dummy_text) refers (Special) to libinit2.o(.ARM.Collect$$libinit$$00000031) for __rt_lib_init_cpp_2
    init_aeabi.o(.text) refers (Special) to libinit2.o(.ARM.Collect$$libinit$$00000031) for __rt_lib_init_cpp_2
    init_aeabi.o(.ARM.exidx) refers (Special) to libinit2.o(.ARM.Collect$$libinit$$00000031) for __rt_lib_init_cpp_2
    init_aeabi.o(.ARM.exidx) refers to init_aeabi.o(.text) for .text
    d2f.o(x$fpl$d2f) refers (Special) to usenofp.o(x$fpl$usenofp) for __I$use$fp
    d2f.o(x$fpl$d2f) refers to fretinf.o(x$fpl$fretinf) for __fpl_fretinf
    d2f.o(x$fpl$d2f) refers to dnaninf.o(x$fpl$dnaninf) for __fpl_dnaninf
    dfix.o(x$fpl$dfix) refers (Special) to usenofp.o(x$fpl$usenofp) for __I$use$fp
    dfix.o(x$fpl$dfix) refers to dnaninf.o(x$fpl$dnaninf) for __fpl_dnaninf
    dfix.o(x$fpl$dfixr) refers (Special) to usenofp.o(x$fpl$usenofp) for __I$use$fp
    dfix.o(x$fpl$dfixr) refers to dnaninf.o(x$fpl$dnaninf) for __fpl_dnaninf
    dflt_clz.o(x$fpl$dfltu) refers (Special) to usenofp.o(x$fpl$usenofp) for __I$use$fp
    dflt_clz.o(x$fpl$dflt) refers (Special) to usenofp.o(x$fpl$usenofp) for __I$use$fp
    dflt_clz.o(x$fpl$dfltn) refers (Special) to usenofp.o(x$fpl$usenofp) for __I$use$fp
    dmul.o(x$fpl$dmul) refers (Special) to usenofp.o(x$fpl$usenofp) for __I$use$fp
    dmul.o(x$fpl$dmul) refers to dretinf.o(x$fpl$dretinf) for __fpl_dretinf
    dmul.o(x$fpl$dmul) refers to dnaninf.o(x$fpl$dnaninf) for __fpl_dnaninf
    f2d.o(x$fpl$f2d) refers (Special) to usenofp.o(x$fpl$usenofp) for __I$use$fp
    f2d.o(x$fpl$f2d) refers to fnaninf.o(x$fpl$fnaninf) for __fpl_fnaninf
    f2d.o(x$fpl$f2d) refers to dretinf.o(x$fpl$dretinf) for __fpl_dretinf
    faddsub_clz.o(x$fpl$fadd) refers (Special) to usenofp.o(x$fpl$usenofp) for __I$use$fp
    faddsub_clz.o(x$fpl$fadd) refers to faddsub_clz.o(x$fpl$fsub) for _fsub1
    faddsub_clz.o(x$fpl$fadd) refers to fretinf.o(x$fpl$fretinf) for __fpl_fretinf
    faddsub_clz.o(x$fpl$fadd) refers to fnaninf.o(x$fpl$fnaninf) for __fpl_fnaninf
    faddsub_clz.o(x$fpl$frsb) refers (Special) to usenofp.o(x$fpl$usenofp) for __I$use$fp
    faddsub_clz.o(x$fpl$frsb) refers to faddsub_clz.o(x$fpl$fadd) for _fadd1
    faddsub_clz.o(x$fpl$frsb) refers to faddsub_clz.o(x$fpl$fsub) for _fsub1
    faddsub_clz.o(x$fpl$fsub) refers (Special) to usenofp.o(x$fpl$usenofp) for __I$use$fp
    faddsub_clz.o(x$fpl$fsub) refers to faddsub_clz.o(x$fpl$fadd) for _fadd1
    faddsub_clz.o(x$fpl$fsub) refers to fnaninf.o(x$fpl$fnaninf) for __fpl_fnaninf
    fcmp.o(x$fpl$fcmp) refers (Special) to usenofp.o(x$fpl$usenofp) for __I$use$fp
    fcmp.o(x$fpl$fcmp) refers to feqf.o(x$fpl$feqf) for _fcmpeq
    fcmp.o(x$fpl$fcmp) refers to fgeqf.o(x$fpl$fgeqf) for _fcmpge
    fcmp.o(x$fpl$fcmp) refers to fleqf.o(x$fpl$fleqf) for _fcmple
    fdiv.o(x$fpl$frdiv) refers (Special) to usenofp.o(x$fpl$usenofp) for __I$use$fp
    fdiv.o(x$fpl$frdiv) refers to fdiv.o(x$fpl$fdiv) for _fdiv1
    fdiv.o(x$fpl$fdiv) refers (Special) to usenofp.o(x$fpl$usenofp) for __I$use$fp
    fdiv.o(x$fpl$fdiv) refers to fretinf.o(x$fpl$fretinf) for __fpl_fretinf
    fdiv.o(x$fpl$fdiv) refers to fnaninf.o(x$fpl$fnaninf) for __fpl_fnaninf
    ffix.o(x$fpl$ffix) refers (Special) to usenofp.o(x$fpl$usenofp) for __I$use$fp
    ffix.o(x$fpl$ffix) refers to fnaninf.o(x$fpl$fnaninf) for __fpl_fnaninf
    ffix.o(x$fpl$ffixr) refers (Special) to usenofp.o(x$fpl$usenofp) for __I$use$fp
    ffix.o(x$fpl$ffixr) refers to fnaninf.o(x$fpl$fnaninf) for __fpl_fnaninf
    fflt_clz.o(x$fpl$ffltu) refers (Special) to usenofp.o(x$fpl$usenofp) for __I$use$fp
    fflt_clz.o(x$fpl$fflt) refers (Special) to usenofp.o(x$fpl$usenofp) for __I$use$fp
    fflt_clz.o(x$fpl$ffltn) refers (Special) to usenofp.o(x$fpl$usenofp) for __I$use$fp
    fmul.o(x$fpl$fmul) refers (Special) to usenofp.o(x$fpl$usenofp) for __I$use$fp
    fmul.o(x$fpl$fmul) refers to fretinf.o(x$fpl$fretinf) for __fpl_fretinf
    fmul.o(x$fpl$fmul) refers to fnaninf.o(x$fpl$fnaninf) for __fpl_fnaninf
    string.cpp.o(.text) refers (Special) to _printf_d.o(.ARM.Collect$$_printf_percent$$00000009) for _printf_d
    string.cpp.o(.text) refers (Special) to _printf_f.o(.ARM.Collect$$_printf_percent$$00000003) for _printf_f
    string.cpp.o(.text) refers (Special) to printf1.o(x$fpl$printf1) for _printf_fp_dec
    string.cpp.o(.text) refers (Special) to _printf_dec.o(.text) for _printf_int_dec
    string.cpp.o(.text) refers (Special) to _printf_lld.o(.ARM.Collect$$_printf_percent$$0000000E) for _printf_lld
    string.cpp.o(.text) refers (Special) to _printf_llu.o(.ARM.Collect$$_printf_percent$$0000000F) for _printf_llu
    string.cpp.o(.text) refers (Special) to _printf_longlong_dec.o(.text) for _printf_longlong_dec
    string.cpp.o(.text) refers (Special) to _printf_percent.o(.ARM.Collect$$_printf_percent$$00000000) for _printf_percent
    string.cpp.o(.text) refers (Special) to _printf_u.o(.ARM.Collect$$_printf_percent$$0000000A) for _printf_u
    string.cpp.o(.text._ZNSt3__14stoiERKNS_12basic_stringIcNS_11char_traitsIcEENS_9allocatorIcEEEEPji) refers (Special) to _printf_d.o(.ARM.Collect$$_printf_percent$$00000009) for _printf_d
    string.cpp.o(.text._ZNSt3__14stoiERKNS_12basic_stringIcNS_11char_traitsIcEENS_9allocatorIcEEEEPji) refers (Special) to _printf_f.o(.ARM.Collect$$_printf_percent$$00000003) for _printf_f
    string.cpp.o(.text._ZNSt3__14stoiERKNS_12basic_stringIcNS_11char_traitsIcEENS_9allocatorIcEEEEPji) refers (Special) to printf1.o(x$fpl$printf1) for _printf_fp_dec
    string.cpp.o(.text._ZNSt3__14stoiERKNS_12basic_stringIcNS_11char_traitsIcEENS_9allocatorIcEEEEPji) refers (Special) to _printf_dec.o(.text) for _printf_int_dec
    string.cpp.o(.text._ZNSt3__14stoiERKNS_12basic_stringIcNS_11char_traitsIcEENS_9allocatorIcEEEEPji) refers (Special) to _printf_lld.o(.ARM.Collect$$_printf_percent$$0000000E) for _printf_lld
    string.cpp.o(.text._ZNSt3__14stoiERKNS_12basic_stringIcNS_11char_traitsIcEENS_9allocatorIcEEEEPji) refers (Special) to _printf_llu.o(.ARM.Collect$$_printf_percent$$0000000F) for _printf_llu
    string.cpp.o(.text._ZNSt3__14stoiERKNS_12basic_stringIcNS_11char_traitsIcEENS_9allocatorIcEEEEPji) refers (Special) to _printf_longlong_dec.o(.text) for _printf_longlong_dec
    string.cpp.o(.text._ZNSt3__14stoiERKNS_12basic_stringIcNS_11char_traitsIcEENS_9allocatorIcEEEEPji) refers (Special) to _printf_percent.o(.ARM.Collect$$_printf_percent$$00000000) for _printf_percent
    string.cpp.o(.text._ZNSt3__14stoiERKNS_12basic_stringIcNS_11char_traitsIcEENS_9allocatorIcEEEEPji) refers (Special) to _printf_u.o(.ARM.Collect$$_printf_percent$$0000000A) for _printf_u
    string.cpp.o(.text._ZNSt3__14stoiERKNS_12basic_stringIcNS_11char_traitsIcEENS_9allocatorIcEEEEPji) refers to rt_errno_addr_intlibspace.o(.text) for __aeabi_errno_addr
    string.cpp.o(.text._ZNSt3__14stoiERKNS_12basic_stringIcNS_11char_traitsIcEENS_9allocatorIcEEEEPji) refers to strtol.o(.text) for strtol
    string.cpp.o(.text._ZNSt3__14stoiERKNS_12basic_stringIcNS_11char_traitsIcEENS_9allocatorIcEEEEPji) refers to new.cpp.o(.text._ZdlPv) for operator delete (void*)
    string.cpp.o(.text._ZNSt3__14stoiERKNS_12basic_stringIcNS_11char_traitsIcEENS_9allocatorIcEEEEPji) refers to string.cpp.o(.rodata.str1.1) for .L.str.26
    string.cpp.o(.text._ZNSt3__14stoiERKNS_12basic_stringIcNS_11char_traitsIcEENS_9allocatorIcEEEEPji) refers to string.cpp.o(.text._ZNSt3__1plIcNS_11char_traitsIcEENS_9allocatorIcEEEENS_12basic_stringIT_T0_T1_EERKS9_PKS6_) for std::__1::basic_string<T1, T2, T3> std::__1::operator +<char, std::__1::char_traits<char>, std::__1::allocator<char>>(const std::__1::basic_string<T1, T2, T3>&, const T1*)
    string.cpp.o(.text._ZNSt3__14stoiERKNS_12basic_stringIcNS_11char_traitsIcEENS_9allocatorIcEEEEPji) refers to cxa_exception.cpp.o(.text.__cxa_allocate_exception) for __cxa_allocate_exception
    string.cpp.o(.text._ZNSt3__14stoiERKNS_12basic_stringIcNS_11char_traitsIcEENS_9allocatorIcEEEEPji) refers to stdexcept.cpp.o(.text._ZNSt11logic_errorC2ERKNSt3__112basic_stringIcNS0_11char_traitsIcEENS0_9allocatorIcEEEE) for std::logic_error::logic_error__sub_object(const std::__1::basic_string<char, std::__1::char_traits<char>, std::__1::allocator<char>>&)
    string.cpp.o(.text._ZNSt3__14stoiERKNS_12basic_stringIcNS_11char_traitsIcEENS_9allocatorIcEEEEPji) refers to stdlib_stdexcept.cpp.o(.rodata._ZTVSt12out_of_range) for vtable for std::out_of_range
    string.cpp.o(.text._ZNSt3__14stoiERKNS_12basic_stringIcNS_11char_traitsIcEENS_9allocatorIcEEEEPji) refers to stdlib_stdexcept.cpp.o(.rodata._ZTISt12out_of_range) for typeinfo for std::out_of_range
    string.cpp.o(.text._ZNSt3__14stoiERKNS_12basic_stringIcNS_11char_traitsIcEENS_9allocatorIcEEEEPji) refers to stdlib_stdexcept.cpp.o(.text._ZNSt11logic_errorD2Ev) for std::out_of_range::~out_of_range()
    string.cpp.o(.text._ZNSt3__14stoiERKNS_12basic_stringIcNS_11char_traitsIcEENS_9allocatorIcEEEEPji) refers to cxa_exception.cpp.o(.text.__cxa_throw) for __cxa_throw
    string.cpp.o(.text._ZNSt3__14stoiERKNS_12basic_stringIcNS_11char_traitsIcEENS_9allocatorIcEEEEPji) refers to stdlib_stdexcept.cpp.o(.rodata._ZTVSt16invalid_argument) for vtable for std::invalid_argument
    string.cpp.o(.text._ZNSt3__14stoiERKNS_12basic_stringIcNS_11char_traitsIcEENS_9allocatorIcEEEEPji) refers to stdlib_stdexcept.cpp.o(.rodata._ZTISt16invalid_argument) for typeinfo for std::invalid_argument
    string.cpp.o(.text._ZNSt3__14stoiERKNS_12basic_stringIcNS_11char_traitsIcEENS_9allocatorIcEEEEPji) refers to cxa_exception.cpp.o(.text.__cxa_free_exception) for __cxa_free_exception
    string.cpp.o(.text._ZNSt3__14stoiERKNS_12basic_stringIcNS_11char_traitsIcEENS_9allocatorIcEEEEPji) refers to Unwind-EHABI.cpp.o(.text._Unwind_Resume) for _Unwind_Resume
    string.cpp.o(.ARM.extab.text._ZNSt3__14stoiERKNS_12basic_stringIcNS_11char_traitsIcEENS_9allocatorIcEEEEPji) refers (Special) to _printf_d.o(.ARM.Collect$$_printf_percent$$00000009) for _printf_d
    string.cpp.o(.ARM.extab.text._ZNSt3__14stoiERKNS_12basic_stringIcNS_11char_traitsIcEENS_9allocatorIcEEEEPji) refers (Special) to _printf_f.o(.ARM.Collect$$_printf_percent$$00000003) for _printf_f
    string.cpp.o(.ARM.extab.text._ZNSt3__14stoiERKNS_12basic_stringIcNS_11char_traitsIcEENS_9allocatorIcEEEEPji) refers (Special) to printf1.o(x$fpl$printf1) for _printf_fp_dec
    string.cpp.o(.ARM.extab.text._ZNSt3__14stoiERKNS_12basic_stringIcNS_11char_traitsIcEENS_9allocatorIcEEEEPji) refers (Special) to _printf_dec.o(.text) for _printf_int_dec
    string.cpp.o(.ARM.extab.text._ZNSt3__14stoiERKNS_12basic_stringIcNS_11char_traitsIcEENS_9allocatorIcEEEEPji) refers (Special) to _printf_lld.o(.ARM.Collect$$_printf_percent$$0000000E) for _printf_lld
    string.cpp.o(.ARM.extab.text._ZNSt3__14stoiERKNS_12basic_stringIcNS_11char_traitsIcEENS_9allocatorIcEEEEPji) refers (Special) to _printf_llu.o(.ARM.Collect$$_printf_percent$$0000000F) for _printf_llu
    string.cpp.o(.ARM.extab.text._ZNSt3__14stoiERKNS_12basic_stringIcNS_11char_traitsIcEENS_9allocatorIcEEEEPji) refers (Special) to _printf_longlong_dec.o(.text) for _printf_longlong_dec
    string.cpp.o(.ARM.extab.text._ZNSt3__14stoiERKNS_12basic_stringIcNS_11char_traitsIcEENS_9allocatorIcEEEEPji) refers (Special) to _printf_percent.o(.ARM.Collect$$_printf_percent$$00000000) for _printf_percent
    string.cpp.o(.ARM.extab.text._ZNSt3__14stoiERKNS_12basic_stringIcNS_11char_traitsIcEENS_9allocatorIcEEEEPji) refers (Special) to _printf_u.o(.ARM.Collect$$_printf_percent$$0000000A) for _printf_u
    string.cpp.o(.ARM.extab.text._ZNSt3__14stoiERKNS_12basic_stringIcNS_11char_traitsIcEENS_9allocatorIcEEEEPji) refers to cxa_personality.cpp.o(.text.__gxx_personality_v0) for __gxx_personality_v0
    string.cpp.o(.ARM.exidx.text._ZNSt3__14stoiERKNS_12basic_stringIcNS_11char_traitsIcEENS_9allocatorIcEEEEPji) refers (Special) to _printf_d.o(.ARM.Collect$$_printf_percent$$00000009) for _printf_d
    string.cpp.o(.ARM.exidx.text._ZNSt3__14stoiERKNS_12basic_stringIcNS_11char_traitsIcEENS_9allocatorIcEEEEPji) refers (Special) to _printf_f.o(.ARM.Collect$$_printf_percent$$00000003) for _printf_f
    string.cpp.o(.ARM.exidx.text._ZNSt3__14stoiERKNS_12basic_stringIcNS_11char_traitsIcEENS_9allocatorIcEEEEPji) refers (Special) to printf1.o(x$fpl$printf1) for _printf_fp_dec
    string.cpp.o(.ARM.exidx.text._ZNSt3__14stoiERKNS_12basic_stringIcNS_11char_traitsIcEENS_9allocatorIcEEEEPji) refers (Special) to _printf_dec.o(.text) for _printf_int_dec
    string.cpp.o(.ARM.exidx.text._ZNSt3__14stoiERKNS_12basic_stringIcNS_11char_traitsIcEENS_9allocatorIcEEEEPji) refers (Special) to _printf_lld.o(.ARM.Collect$$_printf_percent$$0000000E) for _printf_lld
    string.cpp.o(.ARM.exidx.text._ZNSt3__14stoiERKNS_12basic_stringIcNS_11char_traitsIcEENS_9allocatorIcEEEEPji) refers (Special) to _printf_llu.o(.ARM.Collect$$_printf_percent$$0000000F) for _printf_llu
    string.cpp.o(.ARM.exidx.text._ZNSt3__14stoiERKNS_12basic_stringIcNS_11char_traitsIcEENS_9allocatorIcEEEEPji) refers (Special) to _printf_longlong_dec.o(.text) for _printf_longlong_dec
    string.cpp.o(.ARM.exidx.text._ZNSt3__14stoiERKNS_12basic_stringIcNS_11char_traitsIcEENS_9allocatorIcEEEEPji) refers (Special) to _printf_percent.o(.ARM.Collect$$_printf_percent$$00000000) for _printf_percent
    string.cpp.o(.ARM.exidx.text._ZNSt3__14stoiERKNS_12basic_stringIcNS_11char_traitsIcEENS_9allocatorIcEEEEPji) refers (Special) to _printf_u.o(.ARM.Collect$$_printf_percent$$0000000A) for _printf_u
    string.cpp.o(.ARM.exidx.text._ZNSt3__14stoiERKNS_12basic_stringIcNS_11char_traitsIcEENS_9allocatorIcEEEEPji) refers to string.cpp.o(.text._ZNSt3__14stoiERKNS_12basic_stringIcNS_11char_traitsIcEENS_9allocatorIcEEEEPji) for [Anonymous Symbol]
    string.cpp.o(.ARM.exidx.text._ZNSt3__14stoiERKNS_12basic_stringIcNS_11char_traitsIcEENS_9allocatorIcEEEEPji) refers to string.cpp.o(.ARM.extab.text._ZNSt3__14stoiERKNS_12basic_stringIcNS_11char_traitsIcEENS_9allocatorIcEEEEPji) for [Anonymous Symbol]
    string.cpp.o(.text._ZNSt3__14stoiERKNS_12basic_stringIwNS_11char_traitsIwEENS_9allocatorIwEEEEPji) refers (Special) to _printf_d.o(.ARM.Collect$$_printf_percent$$00000009) for _printf_d
    string.cpp.o(.text._ZNSt3__14stoiERKNS_12basic_stringIwNS_11char_traitsIwEENS_9allocatorIwEEEEPji) refers (Special) to _printf_f.o(.ARM.Collect$$_printf_percent$$00000003) for _printf_f
    string.cpp.o(.text._ZNSt3__14stoiERKNS_12basic_stringIwNS_11char_traitsIwEENS_9allocatorIwEEEEPji) refers (Special) to printf1.o(x$fpl$printf1) for _printf_fp_dec
    string.cpp.o(.text._ZNSt3__14stoiERKNS_12basic_stringIwNS_11char_traitsIwEENS_9allocatorIwEEEEPji) refers (Special) to _printf_dec.o(.text) for _printf_int_dec
    string.cpp.o(.text._ZNSt3__14stoiERKNS_12basic_stringIwNS_11char_traitsIwEENS_9allocatorIwEEEEPji) refers (Special) to _printf_lld.o(.ARM.Collect$$_printf_percent$$0000000E) for _printf_lld
    string.cpp.o(.text._ZNSt3__14stoiERKNS_12basic_stringIwNS_11char_traitsIwEENS_9allocatorIwEEEEPji) refers (Special) to _printf_llu.o(.ARM.Collect$$_printf_percent$$0000000F) for _printf_llu
    string.cpp.o(.text._ZNSt3__14stoiERKNS_12basic_stringIwNS_11char_traitsIwEENS_9allocatorIwEEEEPji) refers (Special) to _printf_longlong_dec.o(.text) for _printf_longlong_dec
    string.cpp.o(.text._ZNSt3__14stoiERKNS_12basic_stringIwNS_11char_traitsIwEENS_9allocatorIwEEEEPji) refers (Special) to _printf_percent.o(.ARM.Collect$$_printf_percent$$00000000) for _printf_percent
    string.cpp.o(.text._ZNSt3__14stoiERKNS_12basic_stringIwNS_11char_traitsIwEENS_9allocatorIwEEEEPji) refers (Special) to _printf_u.o(.ARM.Collect$$_printf_percent$$0000000A) for _printf_u
    string.cpp.o(.text._ZNSt3__14stoiERKNS_12basic_stringIwNS_11char_traitsIwEENS_9allocatorIwEEEEPji) refers to rt_errno_addr_intlibspace.o(.text) for __aeabi_errno_addr
    string.cpp.o(.text._ZNSt3__14stoiERKNS_12basic_stringIwNS_11char_traitsIwEENS_9allocatorIwEEEEPji) refers to wcstol.o(.text) for wcstol
    string.cpp.o(.text._ZNSt3__14stoiERKNS_12basic_stringIwNS_11char_traitsIwEENS_9allocatorIwEEEEPji) refers to new.cpp.o(.text._ZdlPv) for operator delete (void*)
    string.cpp.o(.text._ZNSt3__14stoiERKNS_12basic_stringIwNS_11char_traitsIwEENS_9allocatorIwEEEEPji) refers to string.cpp.o(.rodata.str1.1) for .L.str.26
    string.cpp.o(.text._ZNSt3__14stoiERKNS_12basic_stringIwNS_11char_traitsIwEENS_9allocatorIwEEEEPji) refers to string.cpp.o(.text._ZNSt3__1plIcNS_11char_traitsIcEENS_9allocatorIcEEEENS_12basic_stringIT_T0_T1_EERKS9_PKS6_) for std::__1::basic_string<T1, T2, T3> std::__1::operator +<char, std::__1::char_traits<char>, std::__1::allocator<char>>(const std::__1::basic_string<T1, T2, T3>&, const T1*)
    string.cpp.o(.text._ZNSt3__14stoiERKNS_12basic_stringIwNS_11char_traitsIwEENS_9allocatorIwEEEEPji) refers to cxa_exception.cpp.o(.text.__cxa_allocate_exception) for __cxa_allocate_exception
    string.cpp.o(.text._ZNSt3__14stoiERKNS_12basic_stringIwNS_11char_traitsIwEENS_9allocatorIwEEEEPji) refers to stdexcept.cpp.o(.text._ZNSt11logic_errorC2ERKNSt3__112basic_stringIcNS0_11char_traitsIcEENS0_9allocatorIcEEEE) for std::logic_error::logic_error__sub_object(const std::__1::basic_string<char, std::__1::char_traits<char>, std::__1::allocator<char>>&)
    string.cpp.o(.text._ZNSt3__14stoiERKNS_12basic_stringIwNS_11char_traitsIwEENS_9allocatorIwEEEEPji) refers to stdlib_stdexcept.cpp.o(.rodata._ZTVSt12out_of_range) for vtable for std::out_of_range
    string.cpp.o(.text._ZNSt3__14stoiERKNS_12basic_stringIwNS_11char_traitsIwEENS_9allocatorIwEEEEPji) refers to stdlib_stdexcept.cpp.o(.rodata._ZTISt12out_of_range) for typeinfo for std::out_of_range
    string.cpp.o(.text._ZNSt3__14stoiERKNS_12basic_stringIwNS_11char_traitsIwEENS_9allocatorIwEEEEPji) refers to stdlib_stdexcept.cpp.o(.text._ZNSt11logic_errorD2Ev) for std::out_of_range::~out_of_range()
    string.cpp.o(.text._ZNSt3__14stoiERKNS_12basic_stringIwNS_11char_traitsIwEENS_9allocatorIwEEEEPji) refers to cxa_exception.cpp.o(.text.__cxa_throw) for __cxa_throw
    string.cpp.o(.text._ZNSt3__14stoiERKNS_12basic_stringIwNS_11char_traitsIwEENS_9allocatorIwEEEEPji) refers to stdlib_stdexcept.cpp.o(.rodata._ZTVSt16invalid_argument) for vtable for std::invalid_argument
    string.cpp.o(.text._ZNSt3__14stoiERKNS_12basic_stringIwNS_11char_traitsIwEENS_9allocatorIwEEEEPji) refers to stdlib_stdexcept.cpp.o(.rodata._ZTISt16invalid_argument) for typeinfo for std::invalid_argument
    string.cpp.o(.text._ZNSt3__14stoiERKNS_12basic_stringIwNS_11char_traitsIwEENS_9allocatorIwEEEEPji) refers to cxa_exception.cpp.o(.text.__cxa_free_exception) for __cxa_free_exception
    string.cpp.o(.text._ZNSt3__14stoiERKNS_12basic_stringIwNS_11char_traitsIwEENS_9allocatorIwEEEEPji) refers to Unwind-EHABI.cpp.o(.text._Unwind_Resume) for _Unwind_Resume
    string.cpp.o(.ARM.extab.text._ZNSt3__14stoiERKNS_12basic_stringIwNS_11char_traitsIwEENS_9allocatorIwEEEEPji) refers (Special) to _printf_d.o(.ARM.Collect$$_printf_percent$$00000009) for _printf_d
    string.cpp.o(.ARM.extab.text._ZNSt3__14stoiERKNS_12basic_stringIwNS_11char_traitsIwEENS_9allocatorIwEEEEPji) refers (Special) to _printf_f.o(.ARM.Collect$$_printf_percent$$00000003) for _printf_f
    string.cpp.o(.ARM.extab.text._ZNSt3__14stoiERKNS_12basic_stringIwNS_11char_traitsIwEENS_9allocatorIwEEEEPji) refers (Special) to printf1.o(x$fpl$printf1) for _printf_fp_dec
    string.cpp.o(.ARM.extab.text._ZNSt3__14stoiERKNS_12basic_stringIwNS_11char_traitsIwEENS_9allocatorIwEEEEPji) refers (Special) to _printf_dec.o(.text) for _printf_int_dec
    string.cpp.o(.ARM.extab.text._ZNSt3__14stoiERKNS_12basic_stringIwNS_11char_traitsIwEENS_9allocatorIwEEEEPji) refers (Special) to _printf_lld.o(.ARM.Collect$$_printf_percent$$0000000E) for _printf_lld
    string.cpp.o(.ARM.extab.text._ZNSt3__14stoiERKNS_12basic_stringIwNS_11char_traitsIwEENS_9allocatorIwEEEEPji) refers (Special) to _printf_llu.o(.ARM.Collect$$_printf_percent$$0000000F) for _printf_llu
    string.cpp.o(.ARM.extab.text._ZNSt3__14stoiERKNS_12basic_stringIwNS_11char_traitsIwEENS_9allocatorIwEEEEPji) refers (Special) to _printf_longlong_dec.o(.text) for _printf_longlong_dec
    string.cpp.o(.ARM.extab.text._ZNSt3__14stoiERKNS_12basic_stringIwNS_11char_traitsIwEENS_9allocatorIwEEEEPji) refers (Special) to _printf_percent.o(.ARM.Collect$$_printf_percent$$00000000) for _printf_percent
    string.cpp.o(.ARM.extab.text._ZNSt3__14stoiERKNS_12basic_stringIwNS_11char_traitsIwEENS_9allocatorIwEEEEPji) refers (Special) to _printf_u.o(.ARM.Collect$$_printf_percent$$0000000A) for _printf_u
    string.cpp.o(.ARM.extab.text._ZNSt3__14stoiERKNS_12basic_stringIwNS_11char_traitsIwEENS_9allocatorIwEEEEPji) refers to cxa_personality.cpp.o(.text.__gxx_personality_v0) for __gxx_personality_v0
    string.cpp.o(.ARM.exidx.text._ZNSt3__14stoiERKNS_12basic_stringIwNS_11char_traitsIwEENS_9allocatorIwEEEEPji) refers (Special) to _printf_d.o(.ARM.Collect$$_printf_percent$$00000009) for _printf_d
    string.cpp.o(.ARM.exidx.text._ZNSt3__14stoiERKNS_12basic_stringIwNS_11char_traitsIwEENS_9allocatorIwEEEEPji) refers (Special) to _printf_f.o(.ARM.Collect$$_printf_percent$$00000003) for _printf_f
    string.cpp.o(.ARM.exidx.text._ZNSt3__14stoiERKNS_12basic_stringIwNS_11char_traitsIwEENS_9allocatorIwEEEEPji) refers (Special) to printf1.o(x$fpl$printf1) for _printf_fp_dec
    string.cpp.o(.ARM.exidx.text._ZNSt3__14stoiERKNS_12basic_stringIwNS_11char_traitsIwEENS_9allocatorIwEEEEPji) refers (Special) to _printf_dec.o(.text) for _printf_int_dec
    string.cpp.o(.ARM.exidx.text._ZNSt3__14stoiERKNS_12basic_stringIwNS_11char_traitsIwEENS_9allocatorIwEEEEPji) refers (Special) to _printf_lld.o(.ARM.Collect$$_printf_percent$$0000000E) for _printf_lld
    string.cpp.o(.ARM.exidx.text._ZNSt3__14stoiERKNS_12basic_stringIwNS_11char_traitsIwEENS_9allocatorIwEEEEPji) refers (Special) to _printf_llu.o(.ARM.Collect$$_printf_percent$$0000000F) for _printf_llu
    string.cpp.o(.ARM.exidx.text._ZNSt3__14stoiERKNS_12basic_stringIwNS_11char_traitsIwEENS_9allocatorIwEEEEPji) refers (Special) to _printf_longlong_dec.o(.text) for _printf_longlong_dec
    string.cpp.o(.ARM.exidx.text._ZNSt3__14stoiERKNS_12basic_stringIwNS_11char_traitsIwEENS_9allocatorIwEEEEPji) refers (Special) to _printf_percent.o(.ARM.Collect$$_printf_percent$$00000000) for _printf_percent
    string.cpp.o(.ARM.exidx.text._ZNSt3__14stoiERKNS_12basic_stringIwNS_11char_traitsIwEENS_9allocatorIwEEEEPji) refers (Special) to _printf_u.o(.ARM.Collect$$_printf_percent$$0000000A) for _printf_u
    string.cpp.o(.ARM.exidx.text._ZNSt3__14stoiERKNS_12basic_stringIwNS_11char_traitsIwEENS_9allocatorIwEEEEPji) refers to string.cpp.o(.text._ZNSt3__14stoiERKNS_12basic_stringIwNS_11char_traitsIwEENS_9allocatorIwEEEEPji) for [Anonymous Symbol]
    string.cpp.o(.ARM.exidx.text._ZNSt3__14stoiERKNS_12basic_stringIwNS_11char_traitsIwEENS_9allocatorIwEEEEPji) refers to string.cpp.o(.ARM.extab.text._ZNSt3__14stoiERKNS_12basic_stringIwNS_11char_traitsIwEENS_9allocatorIwEEEEPji) for [Anonymous Symbol]
    string.cpp.o(.text._ZNSt3__14stolERKNS_12basic_stringIcNS_11char_traitsIcEENS_9allocatorIcEEEEPji) refers (Special) to _printf_d.o(.ARM.Collect$$_printf_percent$$00000009) for _printf_d
    string.cpp.o(.text._ZNSt3__14stolERKNS_12basic_stringIcNS_11char_traitsIcEENS_9allocatorIcEEEEPji) refers (Special) to _printf_f.o(.ARM.Collect$$_printf_percent$$00000003) for _printf_f
    string.cpp.o(.text._ZNSt3__14stolERKNS_12basic_stringIcNS_11char_traitsIcEENS_9allocatorIcEEEEPji) refers (Special) to printf1.o(x$fpl$printf1) for _printf_fp_dec
    string.cpp.o(.text._ZNSt3__14stolERKNS_12basic_stringIcNS_11char_traitsIcEENS_9allocatorIcEEEEPji) refers (Special) to _printf_dec.o(.text) for _printf_int_dec
    string.cpp.o(.text._ZNSt3__14stolERKNS_12basic_stringIcNS_11char_traitsIcEENS_9allocatorIcEEEEPji) refers (Special) to _printf_lld.o(.ARM.Collect$$_printf_percent$$0000000E) for _printf_lld
    string.cpp.o(.text._ZNSt3__14stolERKNS_12basic_stringIcNS_11char_traitsIcEENS_9allocatorIcEEEEPji) refers (Special) to _printf_llu.o(.ARM.Collect$$_printf_percent$$0000000F) for _printf_llu
    string.cpp.o(.text._ZNSt3__14stolERKNS_12basic_stringIcNS_11char_traitsIcEENS_9allocatorIcEEEEPji) refers (Special) to _printf_longlong_dec.o(.text) for _printf_longlong_dec
    string.cpp.o(.text._ZNSt3__14stolERKNS_12basic_stringIcNS_11char_traitsIcEENS_9allocatorIcEEEEPji) refers (Special) to _printf_percent.o(.ARM.Collect$$_printf_percent$$00000000) for _printf_percent
    string.cpp.o(.text._ZNSt3__14stolERKNS_12basic_stringIcNS_11char_traitsIcEENS_9allocatorIcEEEEPji) refers (Special) to _printf_u.o(.ARM.Collect$$_printf_percent$$0000000A) for _printf_u
    string.cpp.o(.text._ZNSt3__14stolERKNS_12basic_stringIcNS_11char_traitsIcEENS_9allocatorIcEEEEPji) refers to rt_errno_addr_intlibspace.o(.text) for __aeabi_errno_addr
    string.cpp.o(.text._ZNSt3__14stolERKNS_12basic_stringIcNS_11char_traitsIcEENS_9allocatorIcEEEEPji) refers to strtol.o(.text) for strtol
    string.cpp.o(.text._ZNSt3__14stolERKNS_12basic_stringIcNS_11char_traitsIcEENS_9allocatorIcEEEEPji) refers to new.cpp.o(.text._ZdlPv) for operator delete (void*)
    string.cpp.o(.text._ZNSt3__14stolERKNS_12basic_stringIcNS_11char_traitsIcEENS_9allocatorIcEEEEPji) refers to string.cpp.o(.rodata.str1.1) for .L.str.26
    string.cpp.o(.text._ZNSt3__14stolERKNS_12basic_stringIcNS_11char_traitsIcEENS_9allocatorIcEEEEPji) refers to string.cpp.o(.text._ZNSt3__1plIcNS_11char_traitsIcEENS_9allocatorIcEEEENS_12basic_stringIT_T0_T1_EERKS9_PKS6_) for std::__1::basic_string<T1, T2, T3> std::__1::operator +<char, std::__1::char_traits<char>, std::__1::allocator<char>>(const std::__1::basic_string<T1, T2, T3>&, const T1*)
    string.cpp.o(.text._ZNSt3__14stolERKNS_12basic_stringIcNS_11char_traitsIcEENS_9allocatorIcEEEEPji) refers to cxa_exception.cpp.o(.text.__cxa_allocate_exception) for __cxa_allocate_exception
    string.cpp.o(.text._ZNSt3__14stolERKNS_12basic_stringIcNS_11char_traitsIcEENS_9allocatorIcEEEEPji) refers to stdexcept.cpp.o(.text._ZNSt11logic_errorC2ERKNSt3__112basic_stringIcNS0_11char_traitsIcEENS0_9allocatorIcEEEE) for std::logic_error::logic_error__sub_object(const std::__1::basic_string<char, std::__1::char_traits<char>, std::__1::allocator<char>>&)
    string.cpp.o(.text._ZNSt3__14stolERKNS_12basic_stringIcNS_11char_traitsIcEENS_9allocatorIcEEEEPji) refers to stdlib_stdexcept.cpp.o(.rodata._ZTVSt12out_of_range) for vtable for std::out_of_range
    string.cpp.o(.text._ZNSt3__14stolERKNS_12basic_stringIcNS_11char_traitsIcEENS_9allocatorIcEEEEPji) refers to stdlib_stdexcept.cpp.o(.rodata._ZTISt12out_of_range) for typeinfo for std::out_of_range
    string.cpp.o(.text._ZNSt3__14stolERKNS_12basic_stringIcNS_11char_traitsIcEENS_9allocatorIcEEEEPji) refers to stdlib_stdexcept.cpp.o(.text._ZNSt11logic_errorD2Ev) for std::out_of_range::~out_of_range()
    string.cpp.o(.text._ZNSt3__14stolERKNS_12basic_stringIcNS_11char_traitsIcEENS_9allocatorIcEEEEPji) refers to cxa_exception.cpp.o(.text.__cxa_throw) for __cxa_throw
    string.cpp.o(.text._ZNSt3__14stolERKNS_12basic_stringIcNS_11char_traitsIcEENS_9allocatorIcEEEEPji) refers to stdlib_stdexcept.cpp.o(.rodata._ZTVSt16invalid_argument) for vtable for std::invalid_argument
    string.cpp.o(.text._ZNSt3__14stolERKNS_12basic_stringIcNS_11char_traitsIcEENS_9allocatorIcEEEEPji) refers to stdlib_stdexcept.cpp.o(.rodata._ZTISt16invalid_argument) for typeinfo for std::invalid_argument
    string.cpp.o(.text._ZNSt3__14stolERKNS_12basic_stringIcNS_11char_traitsIcEENS_9allocatorIcEEEEPji) refers to cxa_exception.cpp.o(.text.__cxa_free_exception) for __cxa_free_exception
    string.cpp.o(.text._ZNSt3__14stolERKNS_12basic_stringIcNS_11char_traitsIcEENS_9allocatorIcEEEEPji) refers to Unwind-EHABI.cpp.o(.text._Unwind_Resume) for _Unwind_Resume
    string.cpp.o(.ARM.extab.text._ZNSt3__14stolERKNS_12basic_stringIcNS_11char_traitsIcEENS_9allocatorIcEEEEPji) refers (Special) to _printf_d.o(.ARM.Collect$$_printf_percent$$00000009) for _printf_d
    string.cpp.o(.ARM.extab.text._ZNSt3__14stolERKNS_12basic_stringIcNS_11char_traitsIcEENS_9allocatorIcEEEEPji) refers (Special) to _printf_f.o(.ARM.Collect$$_printf_percent$$00000003) for _printf_f
    string.cpp.o(.ARM.extab.text._ZNSt3__14stolERKNS_12basic_stringIcNS_11char_traitsIcEENS_9allocatorIcEEEEPji) refers (Special) to printf1.o(x$fpl$printf1) for _printf_fp_dec
    string.cpp.o(.ARM.extab.text._ZNSt3__14stolERKNS_12basic_stringIcNS_11char_traitsIcEENS_9allocatorIcEEEEPji) refers (Special) to _printf_dec.o(.text) for _printf_int_dec
    string.cpp.o(.ARM.extab.text._ZNSt3__14stolERKNS_12basic_stringIcNS_11char_traitsIcEENS_9allocatorIcEEEEPji) refers (Special) to _printf_lld.o(.ARM.Collect$$_printf_percent$$0000000E) for _printf_lld
    string.cpp.o(.ARM.extab.text._ZNSt3__14stolERKNS_12basic_stringIcNS_11char_traitsIcEENS_9allocatorIcEEEEPji) refers (Special) to _printf_llu.o(.ARM.Collect$$_printf_percent$$0000000F) for _printf_llu
    string.cpp.o(.ARM.extab.text._ZNSt3__14stolERKNS_12basic_stringIcNS_11char_traitsIcEENS_9allocatorIcEEEEPji) refers (Special) to _printf_longlong_dec.o(.text) for _printf_longlong_dec
    string.cpp.o(.ARM.extab.text._ZNSt3__14stolERKNS_12basic_stringIcNS_11char_traitsIcEENS_9allocatorIcEEEEPji) refers (Special) to _printf_percent.o(.ARM.Collect$$_printf_percent$$00000000) for _printf_percent
    string.cpp.o(.ARM.extab.text._ZNSt3__14stolERKNS_12basic_stringIcNS_11char_traitsIcEENS_9allocatorIcEEEEPji) refers (Special) to _printf_u.o(.ARM.Collect$$_printf_percent$$0000000A) for _printf_u
    string.cpp.o(.ARM.extab.text._ZNSt3__14stolERKNS_12basic_stringIcNS_11char_traitsIcEENS_9allocatorIcEEEEPji) refers to cxa_personality.cpp.o(.text.__gxx_personality_v0) for __gxx_personality_v0
    string.cpp.o(.ARM.exidx.text._ZNSt3__14stolERKNS_12basic_stringIcNS_11char_traitsIcEENS_9allocatorIcEEEEPji) refers (Special) to _printf_d.o(.ARM.Collect$$_printf_percent$$00000009) for _printf_d
    string.cpp.o(.ARM.exidx.text._ZNSt3__14stolERKNS_12basic_stringIcNS_11char_traitsIcEENS_9allocatorIcEEEEPji) refers (Special) to _printf_f.o(.ARM.Collect$$_printf_percent$$00000003) for _printf_f
    string.cpp.o(.ARM.exidx.text._ZNSt3__14stolERKNS_12basic_stringIcNS_11char_traitsIcEENS_9allocatorIcEEEEPji) refers (Special) to printf1.o(x$fpl$printf1) for _printf_fp_dec
    string.cpp.o(.ARM.exidx.text._ZNSt3__14stolERKNS_12basic_stringIcNS_11char_traitsIcEENS_9allocatorIcEEEEPji) refers (Special) to _printf_dec.o(.text) for _printf_int_dec
    string.cpp.o(.ARM.exidx.text._ZNSt3__14stolERKNS_12basic_stringIcNS_11char_traitsIcEENS_9allocatorIcEEEEPji) refers (Special) to _printf_lld.o(.ARM.Collect$$_printf_percent$$0000000E) for _printf_lld
    string.cpp.o(.ARM.exidx.text._ZNSt3__14stolERKNS_12basic_stringIcNS_11char_traitsIcEENS_9allocatorIcEEEEPji) refers (Special) to _printf_llu.o(.ARM.Collect$$_printf_percent$$0000000F) for _printf_llu
    string.cpp.o(.ARM.exidx.text._ZNSt3__14stolERKNS_12basic_stringIcNS_11char_traitsIcEENS_9allocatorIcEEEEPji) refers (Special) to _printf_longlong_dec.o(.text) for _printf_longlong_dec
    string.cpp.o(.ARM.exidx.text._ZNSt3__14stolERKNS_12basic_stringIcNS_11char_traitsIcEENS_9allocatorIcEEEEPji) refers (Special) to _printf_percent.o(.ARM.Collect$$_printf_percent$$00000000) for _printf_percent
    string.cpp.o(.ARM.exidx.text._ZNSt3__14stolERKNS_12basic_stringIcNS_11char_traitsIcEENS_9allocatorIcEEEEPji) refers (Special) to _printf_u.o(.ARM.Collect$$_printf_percent$$0000000A) for _printf_u
    string.cpp.o(.ARM.exidx.text._ZNSt3__14stolERKNS_12basic_stringIcNS_11char_traitsIcEENS_9allocatorIcEEEEPji) refers to string.cpp.o(.text._ZNSt3__14stolERKNS_12basic_stringIcNS_11char_traitsIcEENS_9allocatorIcEEEEPji) for [Anonymous Symbol]
    string.cpp.o(.ARM.exidx.text._ZNSt3__14stolERKNS_12basic_stringIcNS_11char_traitsIcEENS_9allocatorIcEEEEPji) refers to string.cpp.o(.ARM.extab.text._ZNSt3__14stolERKNS_12basic_stringIcNS_11char_traitsIcEENS_9allocatorIcEEEEPji) for [Anonymous Symbol]
    string.cpp.o(.text._ZNSt3__14stolERKNS_12basic_stringIwNS_11char_traitsIwEENS_9allocatorIwEEEEPji) refers (Special) to _printf_d.o(.ARM.Collect$$_printf_percent$$00000009) for _printf_d
    string.cpp.o(.text._ZNSt3__14stolERKNS_12basic_stringIwNS_11char_traitsIwEENS_9allocatorIwEEEEPji) refers (Special) to _printf_f.o(.ARM.Collect$$_printf_percent$$00000003) for _printf_f
    string.cpp.o(.text._ZNSt3__14stolERKNS_12basic_stringIwNS_11char_traitsIwEENS_9allocatorIwEEEEPji) refers (Special) to printf1.o(x$fpl$printf1) for _printf_fp_dec
    string.cpp.o(.text._ZNSt3__14stolERKNS_12basic_stringIwNS_11char_traitsIwEENS_9allocatorIwEEEEPji) refers (Special) to _printf_dec.o(.text) for _printf_int_dec
    string.cpp.o(.text._ZNSt3__14stolERKNS_12basic_stringIwNS_11char_traitsIwEENS_9allocatorIwEEEEPji) refers (Special) to _printf_lld.o(.ARM.Collect$$_printf_percent$$0000000E) for _printf_lld
    string.cpp.o(.text._ZNSt3__14stolERKNS_12basic_stringIwNS_11char_traitsIwEENS_9allocatorIwEEEEPji) refers (Special) to _printf_llu.o(.ARM.Collect$$_printf_percent$$0000000F) for _printf_llu
    string.cpp.o(.text._ZNSt3__14stolERKNS_12basic_stringIwNS_11char_traitsIwEENS_9allocatorIwEEEEPji) refers (Special) to _printf_longlong_dec.o(.text) for _printf_longlong_dec
    string.cpp.o(.text._ZNSt3__14stolERKNS_12basic_stringIwNS_11char_traitsIwEENS_9allocatorIwEEEEPji) refers (Special) to _printf_percent.o(.ARM.Collect$$_printf_percent$$00000000) for _printf_percent
    string.cpp.o(.text._ZNSt3__14stolERKNS_12basic_stringIwNS_11char_traitsIwEENS_9allocatorIwEEEEPji) refers (Special) to _printf_u.o(.ARM.Collect$$_printf_percent$$0000000A) for _printf_u
    string.cpp.o(.text._ZNSt3__14stolERKNS_12basic_stringIwNS_11char_traitsIwEENS_9allocatorIwEEEEPji) refers to rt_errno_addr_intlibspace.o(.text) for __aeabi_errno_addr
    string.cpp.o(.text._ZNSt3__14stolERKNS_12basic_stringIwNS_11char_traitsIwEENS_9allocatorIwEEEEPji) refers to wcstol.o(.text) for wcstol
    string.cpp.o(.text._ZNSt3__14stolERKNS_12basic_stringIwNS_11char_traitsIwEENS_9allocatorIwEEEEPji) refers to new.cpp.o(.text._ZdlPv) for operator delete (void*)
    string.cpp.o(.text._ZNSt3__14stolERKNS_12basic_stringIwNS_11char_traitsIwEENS_9allocatorIwEEEEPji) refers to string.cpp.o(.rodata.str1.1) for .L.str.26
    string.cpp.o(.text._ZNSt3__14stolERKNS_12basic_stringIwNS_11char_traitsIwEENS_9allocatorIwEEEEPji) refers to string.cpp.o(.text._ZNSt3__1plIcNS_11char_traitsIcEENS_9allocatorIcEEEENS_12basic_stringIT_T0_T1_EERKS9_PKS6_) for std::__1::basic_string<T1, T2, T3> std::__1::operator +<char, std::__1::char_traits<char>, std::__1::allocator<char>>(const std::__1::basic_string<T1, T2, T3>&, const T1*)
    string.cpp.o(.text._ZNSt3__14stolERKNS_12basic_stringIwNS_11char_traitsIwEENS_9allocatorIwEEEEPji) refers to cxa_exception.cpp.o(.text.__cxa_allocate_exception) for __cxa_allocate_exception
    string.cpp.o(.text._ZNSt3__14stolERKNS_12basic_stringIwNS_11char_traitsIwEENS_9allocatorIwEEEEPji) refers to stdexcept.cpp.o(.text._ZNSt11logic_errorC2ERKNSt3__112basic_stringIcNS0_11char_traitsIcEENS0_9allocatorIcEEEE) for std::logic_error::logic_error__sub_object(const std::__1::basic_string<char, std::__1::char_traits<char>, std::__1::allocator<char>>&)
    string.cpp.o(.text._ZNSt3__14stolERKNS_12basic_stringIwNS_11char_traitsIwEENS_9allocatorIwEEEEPji) refers to stdlib_stdexcept.cpp.o(.rodata._ZTVSt12out_of_range) for vtable for std::out_of_range
    string.cpp.o(.text._ZNSt3__14stolERKNS_12basic_stringIwNS_11char_traitsIwEENS_9allocatorIwEEEEPji) refers to stdlib_stdexcept.cpp.o(.rodata._ZTISt12out_of_range) for typeinfo for std::out_of_range
    string.cpp.o(.text._ZNSt3__14stolERKNS_12basic_stringIwNS_11char_traitsIwEENS_9allocatorIwEEEEPji) refers to stdlib_stdexcept.cpp.o(.text._ZNSt11logic_errorD2Ev) for std::out_of_range::~out_of_range()
    string.cpp.o(.text._ZNSt3__14stolERKNS_12basic_stringIwNS_11char_traitsIwEENS_9allocatorIwEEEEPji) refers to cxa_exception.cpp.o(.text.__cxa_throw) for __cxa_throw
    string.cpp.o(.text._ZNSt3__14stolERKNS_12basic_stringIwNS_11char_traitsIwEENS_9allocatorIwEEEEPji) refers to stdlib_stdexcept.cpp.o(.rodata._ZTVSt16invalid_argument) for vtable for std::invalid_argument
    string.cpp.o(.text._ZNSt3__14stolERKNS_12basic_stringIwNS_11char_traitsIwEENS_9allocatorIwEEEEPji) refers to stdlib_stdexcept.cpp.o(.rodata._ZTISt16invalid_argument) for typeinfo for std::invalid_argument
    string.cpp.o(.text._ZNSt3__14stolERKNS_12basic_stringIwNS_11char_traitsIwEENS_9allocatorIwEEEEPji) refers to cxa_exception.cpp.o(.text.__cxa_free_exception) for __cxa_free_exception
    string.cpp.o(.text._ZNSt3__14stolERKNS_12basic_stringIwNS_11char_traitsIwEENS_9allocatorIwEEEEPji) refers to Unwind-EHABI.cpp.o(.text._Unwind_Resume) for _Unwind_Resume
    string.cpp.o(.ARM.extab.text._ZNSt3__14stolERKNS_12basic_stringIwNS_11char_traitsIwEENS_9allocatorIwEEEEPji) refers (Special) to _printf_d.o(.ARM.Collect$$_printf_percent$$00000009) for _printf_d
    string.cpp.o(.ARM.extab.text._ZNSt3__14stolERKNS_12basic_stringIwNS_11char_traitsIwEENS_9allocatorIwEEEEPji) refers (Special) to _printf_f.o(.ARM.Collect$$_printf_percent$$00000003) for _printf_f
    string.cpp.o(.ARM.extab.text._ZNSt3__14stolERKNS_12basic_stringIwNS_11char_traitsIwEENS_9allocatorIwEEEEPji) refers (Special) to printf1.o(x$fpl$printf1) for _printf_fp_dec
    string.cpp.o(.ARM.extab.text._ZNSt3__14stolERKNS_12basic_stringIwNS_11char_traitsIwEENS_9allocatorIwEEEEPji) refers (Special) to _printf_dec.o(.text) for _printf_int_dec
    string.cpp.o(.ARM.extab.text._ZNSt3__14stolERKNS_12basic_stringIwNS_11char_traitsIwEENS_9allocatorIwEEEEPji) refers (Special) to _printf_lld.o(.ARM.Collect$$_printf_percent$$0000000E) for _printf_lld
    string.cpp.o(.ARM.extab.text._ZNSt3__14stolERKNS_12basic_stringIwNS_11char_traitsIwEENS_9allocatorIwEEEEPji) refers (Special) to _printf_llu.o(.ARM.Collect$$_printf_percent$$0000000F) for _printf_llu
    string.cpp.o(.ARM.extab.text._ZNSt3__14stolERKNS_12basic_stringIwNS_11char_traitsIwEENS_9allocatorIwEEEEPji) refers (Special) to _printf_longlong_dec.o(.text) for _printf_longlong_dec
    string.cpp.o(.ARM.extab.text._ZNSt3__14stolERKNS_12basic_stringIwNS_11char_traitsIwEENS_9allocatorIwEEEEPji) refers (Special) to _printf_percent.o(.ARM.Collect$$_printf_percent$$00000000) for _printf_percent
    string.cpp.o(.ARM.extab.text._ZNSt3__14stolERKNS_12basic_stringIwNS_11char_traitsIwEENS_9allocatorIwEEEEPji) refers (Special) to _printf_u.o(.ARM.Collect$$_printf_percent$$0000000A) for _printf_u
    string.cpp.o(.ARM.extab.text._ZNSt3__14stolERKNS_12basic_stringIwNS_11char_traitsIwEENS_9allocatorIwEEEEPji) refers to cxa_personality.cpp.o(.text.__gxx_personality_v0) for __gxx_personality_v0
    string.cpp.o(.ARM.exidx.text._ZNSt3__14stolERKNS_12basic_stringIwNS_11char_traitsIwEENS_9allocatorIwEEEEPji) refers (Special) to _printf_d.o(.ARM.Collect$$_printf_percent$$00000009) for _printf_d
    string.cpp.o(.ARM.exidx.text._ZNSt3__14stolERKNS_12basic_stringIwNS_11char_traitsIwEENS_9allocatorIwEEEEPji) refers (Special) to _printf_f.o(.ARM.Collect$$_printf_percent$$00000003) for _printf_f
    string.cpp.o(.ARM.exidx.text._ZNSt3__14stolERKNS_12basic_stringIwNS_11char_traitsIwEENS_9allocatorIwEEEEPji) refers (Special) to printf1.o(x$fpl$printf1) for _printf_fp_dec
    string.cpp.o(.ARM.exidx.text._ZNSt3__14stolERKNS_12basic_stringIwNS_11char_traitsIwEENS_9allocatorIwEEEEPji) refers (Special) to _printf_dec.o(.text) for _printf_int_dec
    string.cpp.o(.ARM.exidx.text._ZNSt3__14stolERKNS_12basic_stringIwNS_11char_traitsIwEENS_9allocatorIwEEEEPji) refers (Special) to _printf_lld.o(.ARM.Collect$$_printf_percent$$0000000E) for _printf_lld
    string.cpp.o(.ARM.exidx.text._ZNSt3__14stolERKNS_12basic_stringIwNS_11char_traitsIwEENS_9allocatorIwEEEEPji) refers (Special) to _printf_llu.o(.ARM.Collect$$_printf_percent$$0000000F) for _printf_llu
    string.cpp.o(.ARM.exidx.text._ZNSt3__14stolERKNS_12basic_stringIwNS_11char_traitsIwEENS_9allocatorIwEEEEPji) refers (Special) to _printf_longlong_dec.o(.text) for _printf_longlong_dec
    string.cpp.o(.ARM.exidx.text._ZNSt3__14stolERKNS_12basic_stringIwNS_11char_traitsIwEENS_9allocatorIwEEEEPji) refers (Special) to _printf_percent.o(.ARM.Collect$$_printf_percent$$00000000) for _printf_percent
    string.cpp.o(.ARM.exidx.text._ZNSt3__14stolERKNS_12basic_stringIwNS_11char_traitsIwEENS_9allocatorIwEEEEPji) refers (Special) to _printf_u.o(.ARM.Collect$$_printf_percent$$0000000A) for _printf_u
    string.cpp.o(.ARM.exidx.text._ZNSt3__14stolERKNS_12basic_stringIwNS_11char_traitsIwEENS_9allocatorIwEEEEPji) refers to string.cpp.o(.text._ZNSt3__14stolERKNS_12basic_stringIwNS_11char_traitsIwEENS_9allocatorIwEEEEPji) for [Anonymous Symbol]
    string.cpp.o(.ARM.exidx.text._ZNSt3__14stolERKNS_12basic_stringIwNS_11char_traitsIwEENS_9allocatorIwEEEEPji) refers to string.cpp.o(.ARM.extab.text._ZNSt3__14stolERKNS_12basic_stringIwNS_11char_traitsIwEENS_9allocatorIwEEEEPji) for [Anonymous Symbol]
    string.cpp.o(.text._ZNSt3__15stoulERKNS_12basic_stringIcNS_11char_traitsIcEENS_9allocatorIcEEEEPji) refers (Special) to _printf_d.o(.ARM.Collect$$_printf_percent$$00000009) for _printf_d
    string.cpp.o(.text._ZNSt3__15stoulERKNS_12basic_stringIcNS_11char_traitsIcEENS_9allocatorIcEEEEPji) refers (Special) to _printf_f.o(.ARM.Collect$$_printf_percent$$00000003) for _printf_f
    string.cpp.o(.text._ZNSt3__15stoulERKNS_12basic_stringIcNS_11char_traitsIcEENS_9allocatorIcEEEEPji) refers (Special) to printf1.o(x$fpl$printf1) for _printf_fp_dec
    string.cpp.o(.text._ZNSt3__15stoulERKNS_12basic_stringIcNS_11char_traitsIcEENS_9allocatorIcEEEEPji) refers (Special) to _printf_dec.o(.text) for _printf_int_dec
    string.cpp.o(.text._ZNSt3__15stoulERKNS_12basic_stringIcNS_11char_traitsIcEENS_9allocatorIcEEEEPji) refers (Special) to _printf_lld.o(.ARM.Collect$$_printf_percent$$0000000E) for _printf_lld
    string.cpp.o(.text._ZNSt3__15stoulERKNS_12basic_stringIcNS_11char_traitsIcEENS_9allocatorIcEEEEPji) refers (Special) to _printf_llu.o(.ARM.Collect$$_printf_percent$$0000000F) for _printf_llu
    string.cpp.o(.text._ZNSt3__15stoulERKNS_12basic_stringIcNS_11char_traitsIcEENS_9allocatorIcEEEEPji) refers (Special) to _printf_longlong_dec.o(.text) for _printf_longlong_dec
    string.cpp.o(.text._ZNSt3__15stoulERKNS_12basic_stringIcNS_11char_traitsIcEENS_9allocatorIcEEEEPji) refers (Special) to _printf_percent.o(.ARM.Collect$$_printf_percent$$00000000) for _printf_percent
    string.cpp.o(.text._ZNSt3__15stoulERKNS_12basic_stringIcNS_11char_traitsIcEENS_9allocatorIcEEEEPji) refers (Special) to _printf_u.o(.ARM.Collect$$_printf_percent$$0000000A) for _printf_u
    string.cpp.o(.text._ZNSt3__15stoulERKNS_12basic_stringIcNS_11char_traitsIcEENS_9allocatorIcEEEEPji) refers to string.cpp.o(.rodata.str1.1) for .L.str.3
    string.cpp.o(.text._ZNSt3__15stoulERKNS_12basic_stringIcNS_11char_traitsIcEENS_9allocatorIcEEEEPji) refers to rt_memcpy_v6.o(.text) for __aeabi_memcpy
    string.cpp.o(.text._ZNSt3__15stoulERKNS_12basic_stringIcNS_11char_traitsIcEENS_9allocatorIcEEEEPji) refers to rt_errno_addr_intlibspace.o(.text) for __aeabi_errno_addr
    string.cpp.o(.text._ZNSt3__15stoulERKNS_12basic_stringIcNS_11char_traitsIcEENS_9allocatorIcEEEEPji) refers to strtoul.o(.text) for strtoul
    string.cpp.o(.text._ZNSt3__15stoulERKNS_12basic_stringIcNS_11char_traitsIcEENS_9allocatorIcEEEEPji) refers to new.cpp.o(.text._ZdlPv) for operator delete (void*)
    string.cpp.o(.text._ZNSt3__15stoulERKNS_12basic_stringIcNS_11char_traitsIcEENS_9allocatorIcEEEEPji) refers to string.cpp.o(.text._ZNSt3__1plIcNS_11char_traitsIcEENS_9allocatorIcEEEENS_12basic_stringIT_T0_T1_EERKS9_PKS6_) for std::__1::basic_string<T1, T2, T3> std::__1::operator +<char, std::__1::char_traits<char>, std::__1::allocator<char>>(const std::__1::basic_string<T1, T2, T3>&, const T1*)
    string.cpp.o(.text._ZNSt3__15stoulERKNS_12basic_stringIcNS_11char_traitsIcEENS_9allocatorIcEEEEPji) refers to cxa_exception.cpp.o(.text.__cxa_allocate_exception) for __cxa_allocate_exception
    string.cpp.o(.text._ZNSt3__15stoulERKNS_12basic_stringIcNS_11char_traitsIcEENS_9allocatorIcEEEEPji) refers to stdexcept.cpp.o(.text._ZNSt11logic_errorC2ERKNSt3__112basic_stringIcNS0_11char_traitsIcEENS0_9allocatorIcEEEE) for std::logic_error::logic_error__sub_object(const std::__1::basic_string<char, std::__1::char_traits<char>, std::__1::allocator<char>>&)
    string.cpp.o(.text._ZNSt3__15stoulERKNS_12basic_stringIcNS_11char_traitsIcEENS_9allocatorIcEEEEPji) refers to stdlib_stdexcept.cpp.o(.rodata._ZTVSt12out_of_range) for vtable for std::out_of_range
    string.cpp.o(.text._ZNSt3__15stoulERKNS_12basic_stringIcNS_11char_traitsIcEENS_9allocatorIcEEEEPji) refers to stdlib_stdexcept.cpp.o(.rodata._ZTISt12out_of_range) for typeinfo for std::out_of_range
    string.cpp.o(.text._ZNSt3__15stoulERKNS_12basic_stringIcNS_11char_traitsIcEENS_9allocatorIcEEEEPji) refers to stdlib_stdexcept.cpp.o(.text._ZNSt11logic_errorD2Ev) for std::out_of_range::~out_of_range()
    string.cpp.o(.text._ZNSt3__15stoulERKNS_12basic_stringIcNS_11char_traitsIcEENS_9allocatorIcEEEEPji) refers to cxa_exception.cpp.o(.text.__cxa_throw) for __cxa_throw
    string.cpp.o(.text._ZNSt3__15stoulERKNS_12basic_stringIcNS_11char_traitsIcEENS_9allocatorIcEEEEPji) refers to stdlib_stdexcept.cpp.o(.rodata._ZTVSt16invalid_argument) for vtable for std::invalid_argument
    string.cpp.o(.text._ZNSt3__15stoulERKNS_12basic_stringIcNS_11char_traitsIcEENS_9allocatorIcEEEEPji) refers to stdlib_stdexcept.cpp.o(.rodata._ZTISt16invalid_argument) for typeinfo for std::invalid_argument
    string.cpp.o(.text._ZNSt3__15stoulERKNS_12basic_stringIcNS_11char_traitsIcEENS_9allocatorIcEEEEPji) refers to cxa_exception.cpp.o(.text.__cxa_free_exception) for __cxa_free_exception
    string.cpp.o(.text._ZNSt3__15stoulERKNS_12basic_stringIcNS_11char_traitsIcEENS_9allocatorIcEEEEPji) refers to Unwind-EHABI.cpp.o(.text._Unwind_Resume) for _Unwind_Resume
    string.cpp.o(.ARM.extab.text._ZNSt3__15stoulERKNS_12basic_stringIcNS_11char_traitsIcEENS_9allocatorIcEEEEPji) refers (Special) to _printf_d.o(.ARM.Collect$$_printf_percent$$00000009) for _printf_d
    string.cpp.o(.ARM.extab.text._ZNSt3__15stoulERKNS_12basic_stringIcNS_11char_traitsIcEENS_9allocatorIcEEEEPji) refers (Special) to _printf_f.o(.ARM.Collect$$_printf_percent$$00000003) for _printf_f
    string.cpp.o(.ARM.extab.text._ZNSt3__15stoulERKNS_12basic_stringIcNS_11char_traitsIcEENS_9allocatorIcEEEEPji) refers (Special) to printf1.o(x$fpl$printf1) for _printf_fp_dec
    string.cpp.o(.ARM.extab.text._ZNSt3__15stoulERKNS_12basic_stringIcNS_11char_traitsIcEENS_9allocatorIcEEEEPji) refers (Special) to _printf_dec.o(.text) for _printf_int_dec
    string.cpp.o(.ARM.extab.text._ZNSt3__15stoulERKNS_12basic_stringIcNS_11char_traitsIcEENS_9allocatorIcEEEEPji) refers (Special) to _printf_lld.o(.ARM.Collect$$_printf_percent$$0000000E) for _printf_lld
    string.cpp.o(.ARM.extab.text._ZNSt3__15stoulERKNS_12basic_stringIcNS_11char_traitsIcEENS_9allocatorIcEEEEPji) refers (Special) to _printf_llu.o(.ARM.Collect$$_printf_percent$$0000000F) for _printf_llu
    string.cpp.o(.ARM.extab.text._ZNSt3__15stoulERKNS_12basic_stringIcNS_11char_traitsIcEENS_9allocatorIcEEEEPji) refers (Special) to _printf_longlong_dec.o(.text) for _printf_longlong_dec
    string.cpp.o(.ARM.extab.text._ZNSt3__15stoulERKNS_12basic_stringIcNS_11char_traitsIcEENS_9allocatorIcEEEEPji) refers (Special) to _printf_percent.o(.ARM.Collect$$_printf_percent$$00000000) for _printf_percent
    string.cpp.o(.ARM.extab.text._ZNSt3__15stoulERKNS_12basic_stringIcNS_11char_traitsIcEENS_9allocatorIcEEEEPji) refers (Special) to _printf_u.o(.ARM.Collect$$_printf_percent$$0000000A) for _printf_u
    string.cpp.o(.ARM.extab.text._ZNSt3__15stoulERKNS_12basic_stringIcNS_11char_traitsIcEENS_9allocatorIcEEEEPji) refers to cxa_personality.cpp.o(.text.__gxx_personality_v0) for __gxx_personality_v0
    string.cpp.o(.ARM.exidx.text._ZNSt3__15stoulERKNS_12basic_stringIcNS_11char_traitsIcEENS_9allocatorIcEEEEPji) refers (Special) to _printf_d.o(.ARM.Collect$$_printf_percent$$00000009) for _printf_d
    string.cpp.o(.ARM.exidx.text._ZNSt3__15stoulERKNS_12basic_stringIcNS_11char_traitsIcEENS_9allocatorIcEEEEPji) refers (Special) to _printf_f.o(.ARM.Collect$$_printf_percent$$00000003) for _printf_f
    string.cpp.o(.ARM.exidx.text._ZNSt3__15stoulERKNS_12basic_stringIcNS_11char_traitsIcEENS_9allocatorIcEEEEPji) refers (Special) to printf1.o(x$fpl$printf1) for _printf_fp_dec
    string.cpp.o(.ARM.exidx.text._ZNSt3__15stoulERKNS_12basic_stringIcNS_11char_traitsIcEENS_9allocatorIcEEEEPji) refers (Special) to _printf_dec.o(.text) for _printf_int_dec
    string.cpp.o(.ARM.exidx.text._ZNSt3__15stoulERKNS_12basic_stringIcNS_11char_traitsIcEENS_9allocatorIcEEEEPji) refers (Special) to _printf_lld.o(.ARM.Collect$$_printf_percent$$0000000E) for _printf_lld
    string.cpp.o(.ARM.exidx.text._ZNSt3__15stoulERKNS_12basic_stringIcNS_11char_traitsIcEENS_9allocatorIcEEEEPji) refers (Special) to _printf_llu.o(.ARM.Collect$$_printf_percent$$0000000F) for _printf_llu
    string.cpp.o(.ARM.exidx.text._ZNSt3__15stoulERKNS_12basic_stringIcNS_11char_traitsIcEENS_9allocatorIcEEEEPji) refers (Special) to _printf_longlong_dec.o(.text) for _printf_longlong_dec
    string.cpp.o(.ARM.exidx.text._ZNSt3__15stoulERKNS_12basic_stringIcNS_11char_traitsIcEENS_9allocatorIcEEEEPji) refers (Special) to _printf_percent.o(.ARM.Collect$$_printf_percent$$00000000) for _printf_percent
    string.cpp.o(.ARM.exidx.text._ZNSt3__15stoulERKNS_12basic_stringIcNS_11char_traitsIcEENS_9allocatorIcEEEEPji) refers (Special) to _printf_u.o(.ARM.Collect$$_printf_percent$$0000000A) for _printf_u
    string.cpp.o(.ARM.exidx.text._ZNSt3__15stoulERKNS_12basic_stringIcNS_11char_traitsIcEENS_9allocatorIcEEEEPji) refers to string.cpp.o(.text._ZNSt3__15stoulERKNS_12basic_stringIcNS_11char_traitsIcEENS_9allocatorIcEEEEPji) for [Anonymous Symbol]
    string.cpp.o(.ARM.exidx.text._ZNSt3__15stoulERKNS_12basic_stringIcNS_11char_traitsIcEENS_9allocatorIcEEEEPji) refers to string.cpp.o(.ARM.extab.text._ZNSt3__15stoulERKNS_12basic_stringIcNS_11char_traitsIcEENS_9allocatorIcEEEEPji) for [Anonymous Symbol]
    string.cpp.o(.text._ZNSt3__15stoulERKNS_12basic_stringIwNS_11char_traitsIwEENS_9allocatorIwEEEEPji) refers (Special) to _printf_d.o(.ARM.Collect$$_printf_percent$$00000009) for _printf_d
    string.cpp.o(.text._ZNSt3__15stoulERKNS_12basic_stringIwNS_11char_traitsIwEENS_9allocatorIwEEEEPji) refers (Special) to _printf_f.o(.ARM.Collect$$_printf_percent$$00000003) for _printf_f
    string.cpp.o(.text._ZNSt3__15stoulERKNS_12basic_stringIwNS_11char_traitsIwEENS_9allocatorIwEEEEPji) refers (Special) to printf1.o(x$fpl$printf1) for _printf_fp_dec
    string.cpp.o(.text._ZNSt3__15stoulERKNS_12basic_stringIwNS_11char_traitsIwEENS_9allocatorIwEEEEPji) refers (Special) to _printf_dec.o(.text) for _printf_int_dec
    string.cpp.o(.text._ZNSt3__15stoulERKNS_12basic_stringIwNS_11char_traitsIwEENS_9allocatorIwEEEEPji) refers (Special) to _printf_lld.o(.ARM.Collect$$_printf_percent$$0000000E) for _printf_lld
    string.cpp.o(.text._ZNSt3__15stoulERKNS_12basic_stringIwNS_11char_traitsIwEENS_9allocatorIwEEEEPji) refers (Special) to _printf_llu.o(.ARM.Collect$$_printf_percent$$0000000F) for _printf_llu
    string.cpp.o(.text._ZNSt3__15stoulERKNS_12basic_stringIwNS_11char_traitsIwEENS_9allocatorIwEEEEPji) refers (Special) to _printf_longlong_dec.o(.text) for _printf_longlong_dec
    string.cpp.o(.text._ZNSt3__15stoulERKNS_12basic_stringIwNS_11char_traitsIwEENS_9allocatorIwEEEEPji) refers (Special) to _printf_percent.o(.ARM.Collect$$_printf_percent$$00000000) for _printf_percent
    string.cpp.o(.text._ZNSt3__15stoulERKNS_12basic_stringIwNS_11char_traitsIwEENS_9allocatorIwEEEEPji) refers (Special) to _printf_u.o(.ARM.Collect$$_printf_percent$$0000000A) for _printf_u
    string.cpp.o(.text._ZNSt3__15stoulERKNS_12basic_stringIwNS_11char_traitsIwEENS_9allocatorIwEEEEPji) refers to string.cpp.o(.rodata.str1.1) for .L.str.3
    string.cpp.o(.text._ZNSt3__15stoulERKNS_12basic_stringIwNS_11char_traitsIwEENS_9allocatorIwEEEEPji) refers to rt_memcpy_v6.o(.text) for __aeabi_memcpy
    string.cpp.o(.text._ZNSt3__15stoulERKNS_12basic_stringIwNS_11char_traitsIwEENS_9allocatorIwEEEEPji) refers to rt_errno_addr_intlibspace.o(.text) for __aeabi_errno_addr
    string.cpp.o(.text._ZNSt3__15stoulERKNS_12basic_stringIwNS_11char_traitsIwEENS_9allocatorIwEEEEPji) refers to wcstoul.o(.text) for wcstoul
    string.cpp.o(.text._ZNSt3__15stoulERKNS_12basic_stringIwNS_11char_traitsIwEENS_9allocatorIwEEEEPji) refers to new.cpp.o(.text._ZdlPv) for operator delete (void*)
    string.cpp.o(.text._ZNSt3__15stoulERKNS_12basic_stringIwNS_11char_traitsIwEENS_9allocatorIwEEEEPji) refers to string.cpp.o(.text._ZNSt3__1plIcNS_11char_traitsIcEENS_9allocatorIcEEEENS_12basic_stringIT_T0_T1_EERKS9_PKS6_) for std::__1::basic_string<T1, T2, T3> std::__1::operator +<char, std::__1::char_traits<char>, std::__1::allocator<char>>(const std::__1::basic_string<T1, T2, T3>&, const T1*)
    string.cpp.o(.text._ZNSt3__15stoulERKNS_12basic_stringIwNS_11char_traitsIwEENS_9allocatorIwEEEEPji) refers to cxa_exception.cpp.o(.text.__cxa_allocate_exception) for __cxa_allocate_exception
    string.cpp.o(.text._ZNSt3__15stoulERKNS_12basic_stringIwNS_11char_traitsIwEENS_9allocatorIwEEEEPji) refers to stdexcept.cpp.o(.text._ZNSt11logic_errorC2ERKNSt3__112basic_stringIcNS0_11char_traitsIcEENS0_9allocatorIcEEEE) for std::logic_error::logic_error__sub_object(const std::__1::basic_string<char, std::__1::char_traits<char>, std::__1::allocator<char>>&)
    string.cpp.o(.text._ZNSt3__15stoulERKNS_12basic_stringIwNS_11char_traitsIwEENS_9allocatorIwEEEEPji) refers to stdlib_stdexcept.cpp.o(.rodata._ZTVSt12out_of_range) for vtable for std::out_of_range
    string.cpp.o(.text._ZNSt3__15stoulERKNS_12basic_stringIwNS_11char_traitsIwEENS_9allocatorIwEEEEPji) refers to stdlib_stdexcept.cpp.o(.rodata._ZTISt12out_of_range) for typeinfo for std::out_of_range
    string.cpp.o(.text._ZNSt3__15stoulERKNS_12basic_stringIwNS_11char_traitsIwEENS_9allocatorIwEEEEPji) refers to stdlib_stdexcept.cpp.o(.text._ZNSt11logic_errorD2Ev) for std::out_of_range::~out_of_range()
    string.cpp.o(.text._ZNSt3__15stoulERKNS_12basic_stringIwNS_11char_traitsIwEENS_9allocatorIwEEEEPji) refers to cxa_exception.cpp.o(.text.__cxa_throw) for __cxa_throw
    string.cpp.o(.text._ZNSt3__15stoulERKNS_12basic_stringIwNS_11char_traitsIwEENS_9allocatorIwEEEEPji) refers to stdlib_stdexcept.cpp.o(.rodata._ZTVSt16invalid_argument) for vtable for std::invalid_argument
    string.cpp.o(.text._ZNSt3__15stoulERKNS_12basic_stringIwNS_11char_traitsIwEENS_9allocatorIwEEEEPji) refers to stdlib_stdexcept.cpp.o(.rodata._ZTISt16invalid_argument) for typeinfo for std::invalid_argument
    string.cpp.o(.text._ZNSt3__15stoulERKNS_12basic_stringIwNS_11char_traitsIwEENS_9allocatorIwEEEEPji) refers to cxa_exception.cpp.o(.text.__cxa_free_exception) for __cxa_free_exception
    string.cpp.o(.text._ZNSt3__15stoulERKNS_12basic_stringIwNS_11char_traitsIwEENS_9allocatorIwEEEEPji) refers to Unwind-EHABI.cpp.o(.text._Unwind_Resume) for _Unwind_Resume
    string.cpp.o(.ARM.extab.text._ZNSt3__15stoulERKNS_12basic_stringIwNS_11char_traitsIwEENS_9allocatorIwEEEEPji) refers (Special) to _printf_d.o(.ARM.Collect$$_printf_percent$$00000009) for _printf_d
    string.cpp.o(.ARM.extab.text._ZNSt3__15stoulERKNS_12basic_stringIwNS_11char_traitsIwEENS_9allocatorIwEEEEPji) refers (Special) to _printf_f.o(.ARM.Collect$$_printf_percent$$00000003) for _printf_f
    string.cpp.o(.ARM.extab.text._ZNSt3__15stoulERKNS_12basic_stringIwNS_11char_traitsIwEENS_9allocatorIwEEEEPji) refers (Special) to printf1.o(x$fpl$printf1) for _printf_fp_dec
    string.cpp.o(.ARM.extab.text._ZNSt3__15stoulERKNS_12basic_stringIwNS_11char_traitsIwEENS_9allocatorIwEEEEPji) refers (Special) to _printf_dec.o(.text) for _printf_int_dec
    string.cpp.o(.ARM.extab.text._ZNSt3__15stoulERKNS_12basic_stringIwNS_11char_traitsIwEENS_9allocatorIwEEEEPji) refers (Special) to _printf_lld.o(.ARM.Collect$$_printf_percent$$0000000E) for _printf_lld
    string.cpp.o(.ARM.extab.text._ZNSt3__15stoulERKNS_12basic_stringIwNS_11char_traitsIwEENS_9allocatorIwEEEEPji) refers (Special) to _printf_llu.o(.ARM.Collect$$_printf_percent$$0000000F) for _printf_llu
    string.cpp.o(.ARM.extab.text._ZNSt3__15stoulERKNS_12basic_stringIwNS_11char_traitsIwEENS_9allocatorIwEEEEPji) refers (Special) to _printf_longlong_dec.o(.text) for _printf_longlong_dec
    string.cpp.o(.ARM.extab.text._ZNSt3__15stoulERKNS_12basic_stringIwNS_11char_traitsIwEENS_9allocatorIwEEEEPji) refers (Special) to _printf_percent.o(.ARM.Collect$$_printf_percent$$00000000) for _printf_percent
    string.cpp.o(.ARM.extab.text._ZNSt3__15stoulERKNS_12basic_stringIwNS_11char_traitsIwEENS_9allocatorIwEEEEPji) refers (Special) to _printf_u.o(.ARM.Collect$$_printf_percent$$0000000A) for _printf_u
    string.cpp.o(.ARM.extab.text._ZNSt3__15stoulERKNS_12basic_stringIwNS_11char_traitsIwEENS_9allocatorIwEEEEPji) refers to cxa_personality.cpp.o(.text.__gxx_personality_v0) for __gxx_personality_v0
    string.cpp.o(.ARM.exidx.text._ZNSt3__15stoulERKNS_12basic_stringIwNS_11char_traitsIwEENS_9allocatorIwEEEEPji) refers (Special) to _printf_d.o(.ARM.Collect$$_printf_percent$$00000009) for _printf_d
    string.cpp.o(.ARM.exidx.text._ZNSt3__15stoulERKNS_12basic_stringIwNS_11char_traitsIwEENS_9allocatorIwEEEEPji) refers (Special) to _printf_f.o(.ARM.Collect$$_printf_percent$$00000003) for _printf_f
    string.cpp.o(.ARM.exidx.text._ZNSt3__15stoulERKNS_12basic_stringIwNS_11char_traitsIwEENS_9allocatorIwEEEEPji) refers (Special) to printf1.o(x$fpl$printf1) for _printf_fp_dec
    string.cpp.o(.ARM.exidx.text._ZNSt3__15stoulERKNS_12basic_stringIwNS_11char_traitsIwEENS_9allocatorIwEEEEPji) refers (Special) to _printf_dec.o(.text) for _printf_int_dec
    string.cpp.o(.ARM.exidx.text._ZNSt3__15stoulERKNS_12basic_stringIwNS_11char_traitsIwEENS_9allocatorIwEEEEPji) refers (Special) to _printf_lld.o(.ARM.Collect$$_printf_percent$$0000000E) for _printf_lld
    string.cpp.o(.ARM.exidx.text._ZNSt3__15stoulERKNS_12basic_stringIwNS_11char_traitsIwEENS_9allocatorIwEEEEPji) refers (Special) to _printf_llu.o(.ARM.Collect$$_printf_percent$$0000000F) for _printf_llu
    string.cpp.o(.ARM.exidx.text._ZNSt3__15stoulERKNS_12basic_stringIwNS_11char_traitsIwEENS_9allocatorIwEEEEPji) refers (Special) to _printf_longlong_dec.o(.text) for _printf_longlong_dec
    string.cpp.o(.ARM.exidx.text._ZNSt3__15stoulERKNS_12basic_stringIwNS_11char_traitsIwEENS_9allocatorIwEEEEPji) refers (Special) to _printf_percent.o(.ARM.Collect$$_printf_percent$$00000000) for _printf_percent
    string.cpp.o(.ARM.exidx.text._ZNSt3__15stoulERKNS_12basic_stringIwNS_11char_traitsIwEENS_9allocatorIwEEEEPji) refers (Special) to _printf_u.o(.ARM.Collect$$_printf_percent$$0000000A) for _printf_u
    string.cpp.o(.ARM.exidx.text._ZNSt3__15stoulERKNS_12basic_stringIwNS_11char_traitsIwEENS_9allocatorIwEEEEPji) refers to string.cpp.o(.text._ZNSt3__15stoulERKNS_12basic_stringIwNS_11char_traitsIwEENS_9allocatorIwEEEEPji) for [Anonymous Symbol]
    string.cpp.o(.ARM.exidx.text._ZNSt3__15stoulERKNS_12basic_stringIwNS_11char_traitsIwEENS_9allocatorIwEEEEPji) refers to string.cpp.o(.ARM.extab.text._ZNSt3__15stoulERKNS_12basic_stringIwNS_11char_traitsIwEENS_9allocatorIwEEEEPji) for [Anonymous Symbol]
    string.cpp.o(.text._ZNSt3__15stollERKNS_12basic_stringIcNS_11char_traitsIcEENS_9allocatorIcEEEEPji) refers (Special) to _printf_d.o(.ARM.Collect$$_printf_percent$$00000009) for _printf_d
    string.cpp.o(.text._ZNSt3__15stollERKNS_12basic_stringIcNS_11char_traitsIcEENS_9allocatorIcEEEEPji) refers (Special) to _printf_f.o(.ARM.Collect$$_printf_percent$$00000003) for _printf_f
    string.cpp.o(.text._ZNSt3__15stollERKNS_12basic_stringIcNS_11char_traitsIcEENS_9allocatorIcEEEEPji) refers (Special) to printf1.o(x$fpl$printf1) for _printf_fp_dec
    string.cpp.o(.text._ZNSt3__15stollERKNS_12basic_stringIcNS_11char_traitsIcEENS_9allocatorIcEEEEPji) refers (Special) to _printf_dec.o(.text) for _printf_int_dec
    string.cpp.o(.text._ZNSt3__15stollERKNS_12basic_stringIcNS_11char_traitsIcEENS_9allocatorIcEEEEPji) refers (Special) to _printf_lld.o(.ARM.Collect$$_printf_percent$$0000000E) for _printf_lld
    string.cpp.o(.text._ZNSt3__15stollERKNS_12basic_stringIcNS_11char_traitsIcEENS_9allocatorIcEEEEPji) refers (Special) to _printf_llu.o(.ARM.Collect$$_printf_percent$$0000000F) for _printf_llu
    string.cpp.o(.text._ZNSt3__15stollERKNS_12basic_stringIcNS_11char_traitsIcEENS_9allocatorIcEEEEPji) refers (Special) to _printf_longlong_dec.o(.text) for _printf_longlong_dec
    string.cpp.o(.text._ZNSt3__15stollERKNS_12basic_stringIcNS_11char_traitsIcEENS_9allocatorIcEEEEPji) refers (Special) to _printf_percent.o(.ARM.Collect$$_printf_percent$$00000000) for _printf_percent
    string.cpp.o(.text._ZNSt3__15stollERKNS_12basic_stringIcNS_11char_traitsIcEENS_9allocatorIcEEEEPji) refers (Special) to _printf_u.o(.ARM.Collect$$_printf_percent$$0000000A) for _printf_u
    string.cpp.o(.text._ZNSt3__15stollERKNS_12basic_stringIcNS_11char_traitsIcEENS_9allocatorIcEEEEPji) refers to string.cpp.o(.rodata.str1.1) for .L.str.4
    string.cpp.o(.text._ZNSt3__15stollERKNS_12basic_stringIcNS_11char_traitsIcEENS_9allocatorIcEEEEPji) refers to rt_memcpy_v6.o(.text) for __aeabi_memcpy
    string.cpp.o(.text._ZNSt3__15stollERKNS_12basic_stringIcNS_11char_traitsIcEENS_9allocatorIcEEEEPji) refers to rt_errno_addr_intlibspace.o(.text) for __aeabi_errno_addr
    string.cpp.o(.text._ZNSt3__15stollERKNS_12basic_stringIcNS_11char_traitsIcEENS_9allocatorIcEEEEPji) refers to strtoll.o(.text) for strtoll
    string.cpp.o(.text._ZNSt3__15stollERKNS_12basic_stringIcNS_11char_traitsIcEENS_9allocatorIcEEEEPji) refers to new.cpp.o(.text._ZdlPv) for operator delete (void*)
    string.cpp.o(.text._ZNSt3__15stollERKNS_12basic_stringIcNS_11char_traitsIcEENS_9allocatorIcEEEEPji) refers to string.cpp.o(.text._ZNSt3__1plIcNS_11char_traitsIcEENS_9allocatorIcEEEENS_12basic_stringIT_T0_T1_EERKS9_PKS6_) for std::__1::basic_string<T1, T2, T3> std::__1::operator +<char, std::__1::char_traits<char>, std::__1::allocator<char>>(const std::__1::basic_string<T1, T2, T3>&, const T1*)
    string.cpp.o(.text._ZNSt3__15stollERKNS_12basic_stringIcNS_11char_traitsIcEENS_9allocatorIcEEEEPji) refers to cxa_exception.cpp.o(.text.__cxa_allocate_exception) for __cxa_allocate_exception
    string.cpp.o(.text._ZNSt3__15stollERKNS_12basic_stringIcNS_11char_traitsIcEENS_9allocatorIcEEEEPji) refers to stdexcept.cpp.o(.text._ZNSt11logic_errorC2ERKNSt3__112basic_stringIcNS0_11char_traitsIcEENS0_9allocatorIcEEEE) for std::logic_error::logic_error__sub_object(const std::__1::basic_string<char, std::__1::char_traits<char>, std::__1::allocator<char>>&)
    string.cpp.o(.text._ZNSt3__15stollERKNS_12basic_stringIcNS_11char_traitsIcEENS_9allocatorIcEEEEPji) refers to stdlib_stdexcept.cpp.o(.rodata._ZTVSt12out_of_range) for vtable for std::out_of_range
    string.cpp.o(.text._ZNSt3__15stollERKNS_12basic_stringIcNS_11char_traitsIcEENS_9allocatorIcEEEEPji) refers to stdlib_stdexcept.cpp.o(.rodata._ZTISt12out_of_range) for typeinfo for std::out_of_range
    string.cpp.o(.text._ZNSt3__15stollERKNS_12basic_stringIcNS_11char_traitsIcEENS_9allocatorIcEEEEPji) refers to stdlib_stdexcept.cpp.o(.text._ZNSt11logic_errorD2Ev) for std::out_of_range::~out_of_range()
    string.cpp.o(.text._ZNSt3__15stollERKNS_12basic_stringIcNS_11char_traitsIcEENS_9allocatorIcEEEEPji) refers to cxa_exception.cpp.o(.text.__cxa_throw) for __cxa_throw
    string.cpp.o(.text._ZNSt3__15stollERKNS_12basic_stringIcNS_11char_traitsIcEENS_9allocatorIcEEEEPji) refers to stdlib_stdexcept.cpp.o(.rodata._ZTVSt16invalid_argument) for vtable for std::invalid_argument
    string.cpp.o(.text._ZNSt3__15stollERKNS_12basic_stringIcNS_11char_traitsIcEENS_9allocatorIcEEEEPji) refers to stdlib_stdexcept.cpp.o(.rodata._ZTISt16invalid_argument) for typeinfo for std::invalid_argument
    string.cpp.o(.text._ZNSt3__15stollERKNS_12basic_stringIcNS_11char_traitsIcEENS_9allocatorIcEEEEPji) refers to cxa_exception.cpp.o(.text.__cxa_free_exception) for __cxa_free_exception
    string.cpp.o(.text._ZNSt3__15stollERKNS_12basic_stringIcNS_11char_traitsIcEENS_9allocatorIcEEEEPji) refers to Unwind-EHABI.cpp.o(.text._Unwind_Resume) for _Unwind_Resume
    string.cpp.o(.ARM.extab.text._ZNSt3__15stollERKNS_12basic_stringIcNS_11char_traitsIcEENS_9allocatorIcEEEEPji) refers (Special) to _printf_d.o(.ARM.Collect$$_printf_percent$$00000009) for _printf_d
    string.cpp.o(.ARM.extab.text._ZNSt3__15stollERKNS_12basic_stringIcNS_11char_traitsIcEENS_9allocatorIcEEEEPji) refers (Special) to _printf_f.o(.ARM.Collect$$_printf_percent$$00000003) for _printf_f
    string.cpp.o(.ARM.extab.text._ZNSt3__15stollERKNS_12basic_stringIcNS_11char_traitsIcEENS_9allocatorIcEEEEPji) refers (Special) to printf1.o(x$fpl$printf1) for _printf_fp_dec
    string.cpp.o(.ARM.extab.text._ZNSt3__15stollERKNS_12basic_stringIcNS_11char_traitsIcEENS_9allocatorIcEEEEPji) refers (Special) to _printf_dec.o(.text) for _printf_int_dec
    string.cpp.o(.ARM.extab.text._ZNSt3__15stollERKNS_12basic_stringIcNS_11char_traitsIcEENS_9allocatorIcEEEEPji) refers (Special) to _printf_lld.o(.ARM.Collect$$_printf_percent$$0000000E) for _printf_lld
    string.cpp.o(.ARM.extab.text._ZNSt3__15stollERKNS_12basic_stringIcNS_11char_traitsIcEENS_9allocatorIcEEEEPji) refers (Special) to _printf_llu.o(.ARM.Collect$$_printf_percent$$0000000F) for _printf_llu
    string.cpp.o(.ARM.extab.text._ZNSt3__15stollERKNS_12basic_stringIcNS_11char_traitsIcEENS_9allocatorIcEEEEPji) refers (Special) to _printf_longlong_dec.o(.text) for _printf_longlong_dec
    string.cpp.o(.ARM.extab.text._ZNSt3__15stollERKNS_12basic_stringIcNS_11char_traitsIcEENS_9allocatorIcEEEEPji) refers (Special) to _printf_percent.o(.ARM.Collect$$_printf_percent$$00000000) for _printf_percent
    string.cpp.o(.ARM.extab.text._ZNSt3__15stollERKNS_12basic_stringIcNS_11char_traitsIcEENS_9allocatorIcEEEEPji) refers (Special) to _printf_u.o(.ARM.Collect$$_printf_percent$$0000000A) for _printf_u
    string.cpp.o(.ARM.extab.text._ZNSt3__15stollERKNS_12basic_stringIcNS_11char_traitsIcEENS_9allocatorIcEEEEPji) refers to cxa_personality.cpp.o(.text.__gxx_personality_v0) for __gxx_personality_v0
    string.cpp.o(.ARM.exidx.text._ZNSt3__15stollERKNS_12basic_stringIcNS_11char_traitsIcEENS_9allocatorIcEEEEPji) refers (Special) to _printf_d.o(.ARM.Collect$$_printf_percent$$00000009) for _printf_d
    string.cpp.o(.ARM.exidx.text._ZNSt3__15stollERKNS_12basic_stringIcNS_11char_traitsIcEENS_9allocatorIcEEEEPji) refers (Special) to _printf_f.o(.ARM.Collect$$_printf_percent$$00000003) for _printf_f
    string.cpp.o(.ARM.exidx.text._ZNSt3__15stollERKNS_12basic_stringIcNS_11char_traitsIcEENS_9allocatorIcEEEEPji) refers (Special) to printf1.o(x$fpl$printf1) for _printf_fp_dec
    string.cpp.o(.ARM.exidx.text._ZNSt3__15stollERKNS_12basic_stringIcNS_11char_traitsIcEENS_9allocatorIcEEEEPji) refers (Special) to _printf_dec.o(.text) for _printf_int_dec
    string.cpp.o(.ARM.exidx.text._ZNSt3__15stollERKNS_12basic_stringIcNS_11char_traitsIcEENS_9allocatorIcEEEEPji) refers (Special) to _printf_lld.o(.ARM.Collect$$_printf_percent$$0000000E) for _printf_lld
    string.cpp.o(.ARM.exidx.text._ZNSt3__15stollERKNS_12basic_stringIcNS_11char_traitsIcEENS_9allocatorIcEEEEPji) refers (Special) to _printf_llu.o(.ARM.Collect$$_printf_percent$$0000000F) for _printf_llu
    string.cpp.o(.ARM.exidx.text._ZNSt3__15stollERKNS_12basic_stringIcNS_11char_traitsIcEENS_9allocatorIcEEEEPji) refers (Special) to _printf_longlong_dec.o(.text) for _printf_longlong_dec
    string.cpp.o(.ARM.exidx.text._ZNSt3__15stollERKNS_12basic_stringIcNS_11char_traitsIcEENS_9allocatorIcEEEEPji) refers (Special) to _printf_percent.o(.ARM.Collect$$_printf_percent$$00000000) for _printf_percent
    string.cpp.o(.ARM.exidx.text._ZNSt3__15stollERKNS_12basic_stringIcNS_11char_traitsIcEENS_9allocatorIcEEEEPji) refers (Special) to _printf_u.o(.ARM.Collect$$_printf_percent$$0000000A) for _printf_u
    string.cpp.o(.ARM.exidx.text._ZNSt3__15stollERKNS_12basic_stringIcNS_11char_traitsIcEENS_9allocatorIcEEEEPji) refers to string.cpp.o(.text._ZNSt3__15stollERKNS_12basic_stringIcNS_11char_traitsIcEENS_9allocatorIcEEEEPji) for [Anonymous Symbol]
    string.cpp.o(.ARM.exidx.text._ZNSt3__15stollERKNS_12basic_stringIcNS_11char_traitsIcEENS_9allocatorIcEEEEPji) refers to string.cpp.o(.ARM.extab.text._ZNSt3__15stollERKNS_12basic_stringIcNS_11char_traitsIcEENS_9allocatorIcEEEEPji) for [Anonymous Symbol]
    string.cpp.o(.text._ZNSt3__15stollERKNS_12basic_stringIwNS_11char_traitsIwEENS_9allocatorIwEEEEPji) refers (Special) to _printf_d.o(.ARM.Collect$$_printf_percent$$00000009) for _printf_d
    string.cpp.o(.text._ZNSt3__15stollERKNS_12basic_stringIwNS_11char_traitsIwEENS_9allocatorIwEEEEPji) refers (Special) to _printf_f.o(.ARM.Collect$$_printf_percent$$00000003) for _printf_f
    string.cpp.o(.text._ZNSt3__15stollERKNS_12basic_stringIwNS_11char_traitsIwEENS_9allocatorIwEEEEPji) refers (Special) to printf1.o(x$fpl$printf1) for _printf_fp_dec
    string.cpp.o(.text._ZNSt3__15stollERKNS_12basic_stringIwNS_11char_traitsIwEENS_9allocatorIwEEEEPji) refers (Special) to _printf_dec.o(.text) for _printf_int_dec
    string.cpp.o(.text._ZNSt3__15stollERKNS_12basic_stringIwNS_11char_traitsIwEENS_9allocatorIwEEEEPji) refers (Special) to _printf_lld.o(.ARM.Collect$$_printf_percent$$0000000E) for _printf_lld
    string.cpp.o(.text._ZNSt3__15stollERKNS_12basic_stringIwNS_11char_traitsIwEENS_9allocatorIwEEEEPji) refers (Special) to _printf_llu.o(.ARM.Collect$$_printf_percent$$0000000F) for _printf_llu
    string.cpp.o(.text._ZNSt3__15stollERKNS_12basic_stringIwNS_11char_traitsIwEENS_9allocatorIwEEEEPji) refers (Special) to _printf_longlong_dec.o(.text) for _printf_longlong_dec
    string.cpp.o(.text._ZNSt3__15stollERKNS_12basic_stringIwNS_11char_traitsIwEENS_9allocatorIwEEEEPji) refers (Special) to _printf_percent.o(.ARM.Collect$$_printf_percent$$00000000) for _printf_percent
    string.cpp.o(.text._ZNSt3__15stollERKNS_12basic_stringIwNS_11char_traitsIwEENS_9allocatorIwEEEEPji) refers (Special) to _printf_u.o(.ARM.Collect$$_printf_percent$$0000000A) for _printf_u
    string.cpp.o(.text._ZNSt3__15stollERKNS_12basic_stringIwNS_11char_traitsIwEENS_9allocatorIwEEEEPji) refers to string.cpp.o(.rodata.str1.1) for .L.str.4
    string.cpp.o(.text._ZNSt3__15stollERKNS_12basic_stringIwNS_11char_traitsIwEENS_9allocatorIwEEEEPji) refers to rt_memcpy_v6.o(.text) for __aeabi_memcpy
    string.cpp.o(.text._ZNSt3__15stollERKNS_12basic_stringIwNS_11char_traitsIwEENS_9allocatorIwEEEEPji) refers to rt_errno_addr_intlibspace.o(.text) for __aeabi_errno_addr
    string.cpp.o(.text._ZNSt3__15stollERKNS_12basic_stringIwNS_11char_traitsIwEENS_9allocatorIwEEEEPji) refers to wcstoll.o(.text) for wcstoll
    string.cpp.o(.text._ZNSt3__15stollERKNS_12basic_stringIwNS_11char_traitsIwEENS_9allocatorIwEEEEPji) refers to new.cpp.o(.text._ZdlPv) for operator delete (void*)
    string.cpp.o(.text._ZNSt3__15stollERKNS_12basic_stringIwNS_11char_traitsIwEENS_9allocatorIwEEEEPji) refers to string.cpp.o(.text._ZNSt3__1plIcNS_11char_traitsIcEENS_9allocatorIcEEEENS_12basic_stringIT_T0_T1_EERKS9_PKS6_) for std::__1::basic_string<T1, T2, T3> std::__1::operator +<char, std::__1::char_traits<char>, std::__1::allocator<char>>(const std::__1::basic_string<T1, T2, T3>&, const T1*)
    string.cpp.o(.text._ZNSt3__15stollERKNS_12basic_stringIwNS_11char_traitsIwEENS_9allocatorIwEEEEPji) refers to cxa_exception.cpp.o(.text.__cxa_allocate_exception) for __cxa_allocate_exception
    string.cpp.o(.text._ZNSt3__15stollERKNS_12basic_stringIwNS_11char_traitsIwEENS_9allocatorIwEEEEPji) refers to stdexcept.cpp.o(.text._ZNSt11logic_errorC2ERKNSt3__112basic_stringIcNS0_11char_traitsIcEENS0_9allocatorIcEEEE) for std::logic_error::logic_error__sub_object(const std::__1::basic_string<char, std::__1::char_traits<char>, std::__1::allocator<char>>&)
    string.cpp.o(.text._ZNSt3__15stollERKNS_12basic_stringIwNS_11char_traitsIwEENS_9allocatorIwEEEEPji) refers to stdlib_stdexcept.cpp.o(.rodata._ZTVSt12out_of_range) for vtable for std::out_of_range
    string.cpp.o(.text._ZNSt3__15stollERKNS_12basic_stringIwNS_11char_traitsIwEENS_9allocatorIwEEEEPji) refers to stdlib_stdexcept.cpp.o(.rodata._ZTISt12out_of_range) for typeinfo for std::out_of_range
    string.cpp.o(.text._ZNSt3__15stollERKNS_12basic_stringIwNS_11char_traitsIwEENS_9allocatorIwEEEEPji) refers to stdlib_stdexcept.cpp.o(.text._ZNSt11logic_errorD2Ev) for std::out_of_range::~out_of_range()
    string.cpp.o(.text._ZNSt3__15stollERKNS_12basic_stringIwNS_11char_traitsIwEENS_9allocatorIwEEEEPji) refers to cxa_exception.cpp.o(.text.__cxa_throw) for __cxa_throw
    string.cpp.o(.text._ZNSt3__15stollERKNS_12basic_stringIwNS_11char_traitsIwEENS_9allocatorIwEEEEPji) refers to stdlib_stdexcept.cpp.o(.rodata._ZTVSt16invalid_argument) for vtable for std::invalid_argument
    string.cpp.o(.text._ZNSt3__15stollERKNS_12basic_stringIwNS_11char_traitsIwEENS_9allocatorIwEEEEPji) refers to stdlib_stdexcept.cpp.o(.rodata._ZTISt16invalid_argument) for typeinfo for std::invalid_argument
    string.cpp.o(.text._ZNSt3__15stollERKNS_12basic_stringIwNS_11char_traitsIwEENS_9allocatorIwEEEEPji) refers to cxa_exception.cpp.o(.text.__cxa_free_exception) for __cxa_free_exception
    string.cpp.o(.text._ZNSt3__15stollERKNS_12basic_stringIwNS_11char_traitsIwEENS_9allocatorIwEEEEPji) refers to Unwind-EHABI.cpp.o(.text._Unwind_Resume) for _Unwind_Resume
    string.cpp.o(.ARM.extab.text._ZNSt3__15stollERKNS_12basic_stringIwNS_11char_traitsIwEENS_9allocatorIwEEEEPji) refers (Special) to _printf_d.o(.ARM.Collect$$_printf_percent$$00000009) for _printf_d
    string.cpp.o(.ARM.extab.text._ZNSt3__15stollERKNS_12basic_stringIwNS_11char_traitsIwEENS_9allocatorIwEEEEPji) refers (Special) to _printf_f.o(.ARM.Collect$$_printf_percent$$00000003) for _printf_f
    string.cpp.o(.ARM.extab.text._ZNSt3__15stollERKNS_12basic_stringIwNS_11char_traitsIwEENS_9allocatorIwEEEEPji) refers (Special) to printf1.o(x$fpl$printf1) for _printf_fp_dec
    string.cpp.o(.ARM.extab.text._ZNSt3__15stollERKNS_12basic_stringIwNS_11char_traitsIwEENS_9allocatorIwEEEEPji) refers (Special) to _printf_dec.o(.text) for _printf_int_dec
    string.cpp.o(.ARM.extab.text._ZNSt3__15stollERKNS_12basic_stringIwNS_11char_traitsIwEENS_9allocatorIwEEEEPji) refers (Special) to _printf_lld.o(.ARM.Collect$$_printf_percent$$0000000E) for _printf_lld
    string.cpp.o(.ARM.extab.text._ZNSt3__15stollERKNS_12basic_stringIwNS_11char_traitsIwEENS_9allocatorIwEEEEPji) refers (Special) to _printf_llu.o(.ARM.Collect$$_printf_percent$$0000000F) for _printf_llu
    string.cpp.o(.ARM.extab.text._ZNSt3__15stollERKNS_12basic_stringIwNS_11char_traitsIwEENS_9allocatorIwEEEEPji) refers (Special) to _printf_longlong_dec.o(.text) for _printf_longlong_dec
    string.cpp.o(.ARM.extab.text._ZNSt3__15stollERKNS_12basic_stringIwNS_11char_traitsIwEENS_9allocatorIwEEEEPji) refers (Special) to _printf_percent.o(.ARM.Collect$$_printf_percent$$00000000) for _printf_percent
    string.cpp.o(.ARM.extab.text._ZNSt3__15stollERKNS_12basic_stringIwNS_11char_traitsIwEENS_9allocatorIwEEEEPji) refers (Special) to _printf_u.o(.ARM.Collect$$_printf_percent$$0000000A) for _printf_u
    string.cpp.o(.ARM.extab.text._ZNSt3__15stollERKNS_12basic_stringIwNS_11char_traitsIwEENS_9allocatorIwEEEEPji) refers to cxa_personality.cpp.o(.text.__gxx_personality_v0) for __gxx_personality_v0
    string.cpp.o(.ARM.exidx.text._ZNSt3__15stollERKNS_12basic_stringIwNS_11char_traitsIwEENS_9allocatorIwEEEEPji) refers (Special) to _printf_d.o(.ARM.Collect$$_printf_percent$$00000009) for _printf_d
    string.cpp.o(.ARM.exidx.text._ZNSt3__15stollERKNS_12basic_stringIwNS_11char_traitsIwEENS_9allocatorIwEEEEPji) refers (Special) to _printf_f.o(.ARM.Collect$$_printf_percent$$00000003) for _printf_f
    string.cpp.o(.ARM.exidx.text._ZNSt3__15stollERKNS_12basic_stringIwNS_11char_traitsIwEENS_9allocatorIwEEEEPji) refers (Special) to printf1.o(x$fpl$printf1) for _printf_fp_dec
    string.cpp.o(.ARM.exidx.text._ZNSt3__15stollERKNS_12basic_stringIwNS_11char_traitsIwEENS_9allocatorIwEEEEPji) refers (Special) to _printf_dec.o(.text) for _printf_int_dec
    string.cpp.o(.ARM.exidx.text._ZNSt3__15stollERKNS_12basic_stringIwNS_11char_traitsIwEENS_9allocatorIwEEEEPji) refers (Special) to _printf_lld.o(.ARM.Collect$$_printf_percent$$0000000E) for _printf_lld
    string.cpp.o(.ARM.exidx.text._ZNSt3__15stollERKNS_12basic_stringIwNS_11char_traitsIwEENS_9allocatorIwEEEEPji) refers (Special) to _printf_llu.o(.ARM.Collect$$_printf_percent$$0000000F) for _printf_llu
    string.cpp.o(.ARM.exidx.text._ZNSt3__15stollERKNS_12basic_stringIwNS_11char_traitsIwEENS_9allocatorIwEEEEPji) refers (Special) to _printf_longlong_dec.o(.text) for _printf_longlong_dec
    string.cpp.o(.ARM.exidx.text._ZNSt3__15stollERKNS_12basic_stringIwNS_11char_traitsIwEENS_9allocatorIwEEEEPji) refers (Special) to _printf_percent.o(.ARM.Collect$$_printf_percent$$00000000) for _printf_percent
    string.cpp.o(.ARM.exidx.text._ZNSt3__15stollERKNS_12basic_stringIwNS_11char_traitsIwEENS_9allocatorIwEEEEPji) refers (Special) to _printf_u.o(.ARM.Collect$$_printf_percent$$0000000A) for _printf_u
    string.cpp.o(.ARM.exidx.text._ZNSt3__15stollERKNS_12basic_stringIwNS_11char_traitsIwEENS_9allocatorIwEEEEPji) refers to string.cpp.o(.text._ZNSt3__15stollERKNS_12basic_stringIwNS_11char_traitsIwEENS_9allocatorIwEEEEPji) for [Anonymous Symbol]
    string.cpp.o(.ARM.exidx.text._ZNSt3__15stollERKNS_12basic_stringIwNS_11char_traitsIwEENS_9allocatorIwEEEEPji) refers to string.cpp.o(.ARM.extab.text._ZNSt3__15stollERKNS_12basic_stringIwNS_11char_traitsIwEENS_9allocatorIwEEEEPji) for [Anonymous Symbol]
    string.cpp.o(.text._ZNSt3__16stoullERKNS_12basic_stringIcNS_11char_traitsIcEENS_9allocatorIcEEEEPji) refers (Special) to _printf_d.o(.ARM.Collect$$_printf_percent$$00000009) for _printf_d
    string.cpp.o(.text._ZNSt3__16stoullERKNS_12basic_stringIcNS_11char_traitsIcEENS_9allocatorIcEEEEPji) refers (Special) to _printf_f.o(.ARM.Collect$$_printf_percent$$00000003) for _printf_f
    string.cpp.o(.text._ZNSt3__16stoullERKNS_12basic_stringIcNS_11char_traitsIcEENS_9allocatorIcEEEEPji) refers (Special) to printf1.o(x$fpl$printf1) for _printf_fp_dec
    string.cpp.o(.text._ZNSt3__16stoullERKNS_12basic_stringIcNS_11char_traitsIcEENS_9allocatorIcEEEEPji) refers (Special) to _printf_dec.o(.text) for _printf_int_dec
    string.cpp.o(.text._ZNSt3__16stoullERKNS_12basic_stringIcNS_11char_traitsIcEENS_9allocatorIcEEEEPji) refers (Special) to _printf_lld.o(.ARM.Collect$$_printf_percent$$0000000E) for _printf_lld
    string.cpp.o(.text._ZNSt3__16stoullERKNS_12basic_stringIcNS_11char_traitsIcEENS_9allocatorIcEEEEPji) refers (Special) to _printf_llu.o(.ARM.Collect$$_printf_percent$$0000000F) for _printf_llu
    string.cpp.o(.text._ZNSt3__16stoullERKNS_12basic_stringIcNS_11char_traitsIcEENS_9allocatorIcEEEEPji) refers (Special) to _printf_longlong_dec.o(.text) for _printf_longlong_dec
    string.cpp.o(.text._ZNSt3__16stoullERKNS_12basic_stringIcNS_11char_traitsIcEENS_9allocatorIcEEEEPji) refers (Special) to _printf_percent.o(.ARM.Collect$$_printf_percent$$00000000) for _printf_percent
    string.cpp.o(.text._ZNSt3__16stoullERKNS_12basic_stringIcNS_11char_traitsIcEENS_9allocatorIcEEEEPji) refers (Special) to _printf_u.o(.ARM.Collect$$_printf_percent$$0000000A) for _printf_u
    string.cpp.o(.text._ZNSt3__16stoullERKNS_12basic_stringIcNS_11char_traitsIcEENS_9allocatorIcEEEEPji) refers to string.cpp.o(.rodata.str1.1) for .L.str.5
    string.cpp.o(.text._ZNSt3__16stoullERKNS_12basic_stringIcNS_11char_traitsIcEENS_9allocatorIcEEEEPji) refers to rt_memcpy_v6.o(.text) for __aeabi_memcpy
    string.cpp.o(.text._ZNSt3__16stoullERKNS_12basic_stringIcNS_11char_traitsIcEENS_9allocatorIcEEEEPji) refers to rt_errno_addr_intlibspace.o(.text) for __aeabi_errno_addr
    string.cpp.o(.text._ZNSt3__16stoullERKNS_12basic_stringIcNS_11char_traitsIcEENS_9allocatorIcEEEEPji) refers to strtoull.o(.text) for strtoull
    string.cpp.o(.text._ZNSt3__16stoullERKNS_12basic_stringIcNS_11char_traitsIcEENS_9allocatorIcEEEEPji) refers to new.cpp.o(.text._ZdlPv) for operator delete (void*)
    string.cpp.o(.text._ZNSt3__16stoullERKNS_12basic_stringIcNS_11char_traitsIcEENS_9allocatorIcEEEEPji) refers to string.cpp.o(.text._ZNSt3__1plIcNS_11char_traitsIcEENS_9allocatorIcEEEENS_12basic_stringIT_T0_T1_EERKS9_PKS6_) for std::__1::basic_string<T1, T2, T3> std::__1::operator +<char, std::__1::char_traits<char>, std::__1::allocator<char>>(const std::__1::basic_string<T1, T2, T3>&, const T1*)
    string.cpp.o(.text._ZNSt3__16stoullERKNS_12basic_stringIcNS_11char_traitsIcEENS_9allocatorIcEEEEPji) refers to cxa_exception.cpp.o(.text.__cxa_allocate_exception) for __cxa_allocate_exception
    string.cpp.o(.text._ZNSt3__16stoullERKNS_12basic_stringIcNS_11char_traitsIcEENS_9allocatorIcEEEEPji) refers to stdexcept.cpp.o(.text._ZNSt11logic_errorC2ERKNSt3__112basic_stringIcNS0_11char_traitsIcEENS0_9allocatorIcEEEE) for std::logic_error::logic_error__sub_object(const std::__1::basic_string<char, std::__1::char_traits<char>, std::__1::allocator<char>>&)
    string.cpp.o(.text._ZNSt3__16stoullERKNS_12basic_stringIcNS_11char_traitsIcEENS_9allocatorIcEEEEPji) refers to stdlib_stdexcept.cpp.o(.rodata._ZTVSt12out_of_range) for vtable for std::out_of_range
    string.cpp.o(.text._ZNSt3__16stoullERKNS_12basic_stringIcNS_11char_traitsIcEENS_9allocatorIcEEEEPji) refers to stdlib_stdexcept.cpp.o(.rodata._ZTISt12out_of_range) for typeinfo for std::out_of_range
    string.cpp.o(.text._ZNSt3__16stoullERKNS_12basic_stringIcNS_11char_traitsIcEENS_9allocatorIcEEEEPji) refers to stdlib_stdexcept.cpp.o(.text._ZNSt11logic_errorD2Ev) for std::out_of_range::~out_of_range()
    string.cpp.o(.text._ZNSt3__16stoullERKNS_12basic_stringIcNS_11char_traitsIcEENS_9allocatorIcEEEEPji) refers to cxa_exception.cpp.o(.text.__cxa_throw) for __cxa_throw
    string.cpp.o(.text._ZNSt3__16stoullERKNS_12basic_stringIcNS_11char_traitsIcEENS_9allocatorIcEEEEPji) refers to stdlib_stdexcept.cpp.o(.rodata._ZTVSt16invalid_argument) for vtable for std::invalid_argument
    string.cpp.o(.text._ZNSt3__16stoullERKNS_12basic_stringIcNS_11char_traitsIcEENS_9allocatorIcEEEEPji) refers to stdlib_stdexcept.cpp.o(.rodata._ZTISt16invalid_argument) for typeinfo for std::invalid_argument
    string.cpp.o(.text._ZNSt3__16stoullERKNS_12basic_stringIcNS_11char_traitsIcEENS_9allocatorIcEEEEPji) refers to cxa_exception.cpp.o(.text.__cxa_free_exception) for __cxa_free_exception
    string.cpp.o(.text._ZNSt3__16stoullERKNS_12basic_stringIcNS_11char_traitsIcEENS_9allocatorIcEEEEPji) refers to Unwind-EHABI.cpp.o(.text._Unwind_Resume) for _Unwind_Resume
    string.cpp.o(.ARM.extab.text._ZNSt3__16stoullERKNS_12basic_stringIcNS_11char_traitsIcEENS_9allocatorIcEEEEPji) refers (Special) to _printf_d.o(.ARM.Collect$$_printf_percent$$00000009) for _printf_d
    string.cpp.o(.ARM.extab.text._ZNSt3__16stoullERKNS_12basic_stringIcNS_11char_traitsIcEENS_9allocatorIcEEEEPji) refers (Special) to _printf_f.o(.ARM.Collect$$_printf_percent$$00000003) for _printf_f
    string.cpp.o(.ARM.extab.text._ZNSt3__16stoullERKNS_12basic_stringIcNS_11char_traitsIcEENS_9allocatorIcEEEEPji) refers (Special) to printf1.o(x$fpl$printf1) for _printf_fp_dec
    string.cpp.o(.ARM.extab.text._ZNSt3__16stoullERKNS_12basic_stringIcNS_11char_traitsIcEENS_9allocatorIcEEEEPji) refers (Special) to _printf_dec.o(.text) for _printf_int_dec
    string.cpp.o(.ARM.extab.text._ZNSt3__16stoullERKNS_12basic_stringIcNS_11char_traitsIcEENS_9allocatorIcEEEEPji) refers (Special) to _printf_lld.o(.ARM.Collect$$_printf_percent$$0000000E) for _printf_lld
    string.cpp.o(.ARM.extab.text._ZNSt3__16stoullERKNS_12basic_stringIcNS_11char_traitsIcEENS_9allocatorIcEEEEPji) refers (Special) to _printf_llu.o(.ARM.Collect$$_printf_percent$$0000000F) for _printf_llu
    string.cpp.o(.ARM.extab.text._ZNSt3__16stoullERKNS_12basic_stringIcNS_11char_traitsIcEENS_9allocatorIcEEEEPji) refers (Special) to _printf_longlong_dec.o(.text) for _printf_longlong_dec
    string.cpp.o(.ARM.extab.text._ZNSt3__16stoullERKNS_12basic_stringIcNS_11char_traitsIcEENS_9allocatorIcEEEEPji) refers (Special) to _printf_percent.o(.ARM.Collect$$_printf_percent$$00000000) for _printf_percent
    string.cpp.o(.ARM.extab.text._ZNSt3__16stoullERKNS_12basic_stringIcNS_11char_traitsIcEENS_9allocatorIcEEEEPji) refers (Special) to _printf_u.o(.ARM.Collect$$_printf_percent$$0000000A) for _printf_u
    string.cpp.o(.ARM.extab.text._ZNSt3__16stoullERKNS_12basic_stringIcNS_11char_traitsIcEENS_9allocatorIcEEEEPji) refers to cxa_personality.cpp.o(.text.__gxx_personality_v0) for __gxx_personality_v0
    string.cpp.o(.ARM.exidx.text._ZNSt3__16stoullERKNS_12basic_stringIcNS_11char_traitsIcEENS_9allocatorIcEEEEPji) refers (Special) to _printf_d.o(.ARM.Collect$$_printf_percent$$00000009) for _printf_d
    string.cpp.o(.ARM.exidx.text._ZNSt3__16stoullERKNS_12basic_stringIcNS_11char_traitsIcEENS_9allocatorIcEEEEPji) refers (Special) to _printf_f.o(.ARM.Collect$$_printf_percent$$00000003) for _printf_f
    string.cpp.o(.ARM.exidx.text._ZNSt3__16stoullERKNS_12basic_stringIcNS_11char_traitsIcEENS_9allocatorIcEEEEPji) refers (Special) to printf1.o(x$fpl$printf1) for _printf_fp_dec
    string.cpp.o(.ARM.exidx.text._ZNSt3__16stoullERKNS_12basic_stringIcNS_11char_traitsIcEENS_9allocatorIcEEEEPji) refers (Special) to _printf_dec.o(.text) for _printf_int_dec
    string.cpp.o(.ARM.exidx.text._ZNSt3__16stoullERKNS_12basic_stringIcNS_11char_traitsIcEENS_9allocatorIcEEEEPji) refers (Special) to _printf_lld.o(.ARM.Collect$$_printf_percent$$0000000E) for _printf_lld
    string.cpp.o(.ARM.exidx.text._ZNSt3__16stoullERKNS_12basic_stringIcNS_11char_traitsIcEENS_9allocatorIcEEEEPji) refers (Special) to _printf_llu.o(.ARM.Collect$$_printf_percent$$0000000F) for _printf_llu
    string.cpp.o(.ARM.exidx.text._ZNSt3__16stoullERKNS_12basic_stringIcNS_11char_traitsIcEENS_9allocatorIcEEEEPji) refers (Special) to _printf_longlong_dec.o(.text) for _printf_longlong_dec
    string.cpp.o(.ARM.exidx.text._ZNSt3__16stoullERKNS_12basic_stringIcNS_11char_traitsIcEENS_9allocatorIcEEEEPji) refers (Special) to _printf_percent.o(.ARM.Collect$$_printf_percent$$00000000) for _printf_percent
    string.cpp.o(.ARM.exidx.text._ZNSt3__16stoullERKNS_12basic_stringIcNS_11char_traitsIcEENS_9allocatorIcEEEEPji) refers (Special) to _printf_u.o(.ARM.Collect$$_printf_percent$$0000000A) for _printf_u
    string.cpp.o(.ARM.exidx.text._ZNSt3__16stoullERKNS_12basic_stringIcNS_11char_traitsIcEENS_9allocatorIcEEEEPji) refers to string.cpp.o(.text._ZNSt3__16stoullERKNS_12basic_stringIcNS_11char_traitsIcEENS_9allocatorIcEEEEPji) for [Anonymous Symbol]
    string.cpp.o(.ARM.exidx.text._ZNSt3__16stoullERKNS_12basic_stringIcNS_11char_traitsIcEENS_9allocatorIcEEEEPji) refers to string.cpp.o(.ARM.extab.text._ZNSt3__16stoullERKNS_12basic_stringIcNS_11char_traitsIcEENS_9allocatorIcEEEEPji) for [Anonymous Symbol]
    string.cpp.o(.text._ZNSt3__16stoullERKNS_12basic_stringIwNS_11char_traitsIwEENS_9allocatorIwEEEEPji) refers (Special) to _printf_d.o(.ARM.Collect$$_printf_percent$$00000009) for _printf_d
    string.cpp.o(.text._ZNSt3__16stoullERKNS_12basic_stringIwNS_11char_traitsIwEENS_9allocatorIwEEEEPji) refers (Special) to _printf_f.o(.ARM.Collect$$_printf_percent$$00000003) for _printf_f
    string.cpp.o(.text._ZNSt3__16stoullERKNS_12basic_stringIwNS_11char_traitsIwEENS_9allocatorIwEEEEPji) refers (Special) to printf1.o(x$fpl$printf1) for _printf_fp_dec
    string.cpp.o(.text._ZNSt3__16stoullERKNS_12basic_stringIwNS_11char_traitsIwEENS_9allocatorIwEEEEPji) refers (Special) to _printf_dec.o(.text) for _printf_int_dec
    string.cpp.o(.text._ZNSt3__16stoullERKNS_12basic_stringIwNS_11char_traitsIwEENS_9allocatorIwEEEEPji) refers (Special) to _printf_lld.o(.ARM.Collect$$_printf_percent$$0000000E) for _printf_lld
    string.cpp.o(.text._ZNSt3__16stoullERKNS_12basic_stringIwNS_11char_traitsIwEENS_9allocatorIwEEEEPji) refers (Special) to _printf_llu.o(.ARM.Collect$$_printf_percent$$0000000F) for _printf_llu
    string.cpp.o(.text._ZNSt3__16stoullERKNS_12basic_stringIwNS_11char_traitsIwEENS_9allocatorIwEEEEPji) refers (Special) to _printf_longlong_dec.o(.text) for _printf_longlong_dec
    string.cpp.o(.text._ZNSt3__16stoullERKNS_12basic_stringIwNS_11char_traitsIwEENS_9allocatorIwEEEEPji) refers (Special) to _printf_percent.o(.ARM.Collect$$_printf_percent$$00000000) for _printf_percent
    string.cpp.o(.text._ZNSt3__16stoullERKNS_12basic_stringIwNS_11char_traitsIwEENS_9allocatorIwEEEEPji) refers (Special) to _printf_u.o(.ARM.Collect$$_printf_percent$$0000000A) for _printf_u
    string.cpp.o(.text._ZNSt3__16stoullERKNS_12basic_stringIwNS_11char_traitsIwEENS_9allocatorIwEEEEPji) refers to string.cpp.o(.rodata.str1.1) for .L.str.5
    string.cpp.o(.text._ZNSt3__16stoullERKNS_12basic_stringIwNS_11char_traitsIwEENS_9allocatorIwEEEEPji) refers to rt_memcpy_v6.o(.text) for __aeabi_memcpy
    string.cpp.o(.text._ZNSt3__16stoullERKNS_12basic_stringIwNS_11char_traitsIwEENS_9allocatorIwEEEEPji) refers to rt_errno_addr_intlibspace.o(.text) for __aeabi_errno_addr
    string.cpp.o(.text._ZNSt3__16stoullERKNS_12basic_stringIwNS_11char_traitsIwEENS_9allocatorIwEEEEPji) refers to wcstoull.o(.text) for wcstoull
    string.cpp.o(.text._ZNSt3__16stoullERKNS_12basic_stringIwNS_11char_traitsIwEENS_9allocatorIwEEEEPji) refers to new.cpp.o(.text._ZdlPv) for operator delete (void*)
    string.cpp.o(.text._ZNSt3__16stoullERKNS_12basic_stringIwNS_11char_traitsIwEENS_9allocatorIwEEEEPji) refers to string.cpp.o(.text._ZNSt3__1plIcNS_11char_traitsIcEENS_9allocatorIcEEEENS_12basic_stringIT_T0_T1_EERKS9_PKS6_) for std::__1::basic_string<T1, T2, T3> std::__1::operator +<char, std::__1::char_traits<char>, std::__1::allocator<char>>(const std::__1::basic_string<T1, T2, T3>&, const T1*)
    string.cpp.o(.text._ZNSt3__16stoullERKNS_12basic_stringIwNS_11char_traitsIwEENS_9allocatorIwEEEEPji) refers to cxa_exception.cpp.o(.text.__cxa_allocate_exception) for __cxa_allocate_exception
    string.cpp.o(.text._ZNSt3__16stoullERKNS_12basic_stringIwNS_11char_traitsIwEENS_9allocatorIwEEEEPji) refers to stdexcept.cpp.o(.text._ZNSt11logic_errorC2ERKNSt3__112basic_stringIcNS0_11char_traitsIcEENS0_9allocatorIcEEEE) for std::logic_error::logic_error__sub_object(const std::__1::basic_string<char, std::__1::char_traits<char>, std::__1::allocator<char>>&)
    string.cpp.o(.text._ZNSt3__16stoullERKNS_12basic_stringIwNS_11char_traitsIwEENS_9allocatorIwEEEEPji) refers to stdlib_stdexcept.cpp.o(.rodata._ZTVSt12out_of_range) for vtable for std::out_of_range
    string.cpp.o(.text._ZNSt3__16stoullERKNS_12basic_stringIwNS_11char_traitsIwEENS_9allocatorIwEEEEPji) refers to stdlib_stdexcept.cpp.o(.rodata._ZTISt12out_of_range) for typeinfo for std::out_of_range
    string.cpp.o(.text._ZNSt3__16stoullERKNS_12basic_stringIwNS_11char_traitsIwEENS_9allocatorIwEEEEPji) refers to stdlib_stdexcept.cpp.o(.text._ZNSt11logic_errorD2Ev) for std::out_of_range::~out_of_range()
    string.cpp.o(.text._ZNSt3__16stoullERKNS_12basic_stringIwNS_11char_traitsIwEENS_9allocatorIwEEEEPji) refers to cxa_exception.cpp.o(.text.__cxa_throw) for __cxa_throw
    string.cpp.o(.text._ZNSt3__16stoullERKNS_12basic_stringIwNS_11char_traitsIwEENS_9allocatorIwEEEEPji) refers to stdlib_stdexcept.cpp.o(.rodata._ZTVSt16invalid_argument) for vtable for std::invalid_argument
    string.cpp.o(.text._ZNSt3__16stoullERKNS_12basic_stringIwNS_11char_traitsIwEENS_9allocatorIwEEEEPji) refers to stdlib_stdexcept.cpp.o(.rodata._ZTISt16invalid_argument) for typeinfo for std::invalid_argument
    string.cpp.o(.text._ZNSt3__16stoullERKNS_12basic_stringIwNS_11char_traitsIwEENS_9allocatorIwEEEEPji) refers to cxa_exception.cpp.o(.text.__cxa_free_exception) for __cxa_free_exception
    string.cpp.o(.text._ZNSt3__16stoullERKNS_12basic_stringIwNS_11char_traitsIwEENS_9allocatorIwEEEEPji) refers to Unwind-EHABI.cpp.o(.text._Unwind_Resume) for _Unwind_Resume
    string.cpp.o(.ARM.extab.text._ZNSt3__16stoullERKNS_12basic_stringIwNS_11char_traitsIwEENS_9allocatorIwEEEEPji) refers (Special) to _printf_d.o(.ARM.Collect$$_printf_percent$$00000009) for _printf_d
    string.cpp.o(.ARM.extab.text._ZNSt3__16stoullERKNS_12basic_stringIwNS_11char_traitsIwEENS_9allocatorIwEEEEPji) refers (Special) to _printf_f.o(.ARM.Collect$$_printf_percent$$00000003) for _printf_f
    string.cpp.o(.ARM.extab.text._ZNSt3__16stoullERKNS_12basic_stringIwNS_11char_traitsIwEENS_9allocatorIwEEEEPji) refers (Special) to printf1.o(x$fpl$printf1) for _printf_fp_dec
    string.cpp.o(.ARM.extab.text._ZNSt3__16stoullERKNS_12basic_stringIwNS_11char_traitsIwEENS_9allocatorIwEEEEPji) refers (Special) to _printf_dec.o(.text) for _printf_int_dec
    string.cpp.o(.ARM.extab.text._ZNSt3__16stoullERKNS_12basic_stringIwNS_11char_traitsIwEENS_9allocatorIwEEEEPji) refers (Special) to _printf_lld.o(.ARM.Collect$$_printf_percent$$0000000E) for _printf_lld
    string.cpp.o(.ARM.extab.text._ZNSt3__16stoullERKNS_12basic_stringIwNS_11char_traitsIwEENS_9allocatorIwEEEEPji) refers (Special) to _printf_llu.o(.ARM.Collect$$_printf_percent$$0000000F) for _printf_llu
    string.cpp.o(.ARM.extab.text._ZNSt3__16stoullERKNS_12basic_stringIwNS_11char_traitsIwEENS_9allocatorIwEEEEPji) refers (Special) to _printf_longlong_dec.o(.text) for _printf_longlong_dec
    string.cpp.o(.ARM.extab.text._ZNSt3__16stoullERKNS_12basic_stringIwNS_11char_traitsIwEENS_9allocatorIwEEEEPji) refers (Special) to _printf_percent.o(.ARM.Collect$$_printf_percent$$00000000) for _printf_percent
    string.cpp.o(.ARM.extab.text._ZNSt3__16stoullERKNS_12basic_stringIwNS_11char_traitsIwEENS_9allocatorIwEEEEPji) refers (Special) to _printf_u.o(.ARM.Collect$$_printf_percent$$0000000A) for _printf_u
    string.cpp.o(.ARM.extab.text._ZNSt3__16stoullERKNS_12basic_stringIwNS_11char_traitsIwEENS_9allocatorIwEEEEPji) refers to cxa_personality.cpp.o(.text.__gxx_personality_v0) for __gxx_personality_v0
    string.cpp.o(.ARM.exidx.text._ZNSt3__16stoullERKNS_12basic_stringIwNS_11char_traitsIwEENS_9allocatorIwEEEEPji) refers (Special) to _printf_d.o(.ARM.Collect$$_printf_percent$$00000009) for _printf_d
    string.cpp.o(.ARM.exidx.text._ZNSt3__16stoullERKNS_12basic_stringIwNS_11char_traitsIwEENS_9allocatorIwEEEEPji) refers (Special) to _printf_f.o(.ARM.Collect$$_printf_percent$$00000003) for _printf_f
    string.cpp.o(.ARM.exidx.text._ZNSt3__16stoullERKNS_12basic_stringIwNS_11char_traitsIwEENS_9allocatorIwEEEEPji) refers (Special) to printf1.o(x$fpl$printf1) for _printf_fp_dec
    string.cpp.o(.ARM.exidx.text._ZNSt3__16stoullERKNS_12basic_stringIwNS_11char_traitsIwEENS_9allocatorIwEEEEPji) refers (Special) to _printf_dec.o(.text) for _printf_int_dec
    string.cpp.o(.ARM.exidx.text._ZNSt3__16stoullERKNS_12basic_stringIwNS_11char_traitsIwEENS_9allocatorIwEEEEPji) refers (Special) to _printf_lld.o(.ARM.Collect$$_printf_percent$$0000000E) for _printf_lld
    string.cpp.o(.ARM.exidx.text._ZNSt3__16stoullERKNS_12basic_stringIwNS_11char_traitsIwEENS_9allocatorIwEEEEPji) refers (Special) to _printf_llu.o(.ARM.Collect$$_printf_percent$$0000000F) for _printf_llu
    string.cpp.o(.ARM.exidx.text._ZNSt3__16stoullERKNS_12basic_stringIwNS_11char_traitsIwEENS_9allocatorIwEEEEPji) refers (Special) to _printf_longlong_dec.o(.text) for _printf_longlong_dec
    string.cpp.o(.ARM.exidx.text._ZNSt3__16stoullERKNS_12basic_stringIwNS_11char_traitsIwEENS_9allocatorIwEEEEPji) refers (Special) to _printf_percent.o(.ARM.Collect$$_printf_percent$$00000000) for _printf_percent
    string.cpp.o(.ARM.exidx.text._ZNSt3__16stoullERKNS_12basic_stringIwNS_11char_traitsIwEENS_9allocatorIwEEEEPji) refers (Special) to _printf_u.o(.ARM.Collect$$_printf_percent$$0000000A) for _printf_u
    string.cpp.o(.ARM.exidx.text._ZNSt3__16stoullERKNS_12basic_stringIwNS_11char_traitsIwEENS_9allocatorIwEEEEPji) refers to string.cpp.o(.text._ZNSt3__16stoullERKNS_12basic_stringIwNS_11char_traitsIwEENS_9allocatorIwEEEEPji) for [Anonymous Symbol]
    string.cpp.o(.ARM.exidx.text._ZNSt3__16stoullERKNS_12basic_stringIwNS_11char_traitsIwEENS_9allocatorIwEEEEPji) refers to string.cpp.o(.ARM.extab.text._ZNSt3__16stoullERKNS_12basic_stringIwNS_11char_traitsIwEENS_9allocatorIwEEEEPji) for [Anonymous Symbol]
    string.cpp.o(.text._ZNSt3__14stofERKNS_12basic_stringIcNS_11char_traitsIcEENS_9allocatorIcEEEEPj) refers (Special) to _printf_d.o(.ARM.Collect$$_printf_percent$$00000009) for _printf_d
    string.cpp.o(.text._ZNSt3__14stofERKNS_12basic_stringIcNS_11char_traitsIcEENS_9allocatorIcEEEEPj) refers (Special) to _printf_f.o(.ARM.Collect$$_printf_percent$$00000003) for _printf_f
    string.cpp.o(.text._ZNSt3__14stofERKNS_12basic_stringIcNS_11char_traitsIcEENS_9allocatorIcEEEEPj) refers (Special) to printf1.o(x$fpl$printf1) for _printf_fp_dec
    string.cpp.o(.text._ZNSt3__14stofERKNS_12basic_stringIcNS_11char_traitsIcEENS_9allocatorIcEEEEPj) refers (Special) to _printf_dec.o(.text) for _printf_int_dec
    string.cpp.o(.text._ZNSt3__14stofERKNS_12basic_stringIcNS_11char_traitsIcEENS_9allocatorIcEEEEPj) refers (Special) to _printf_lld.o(.ARM.Collect$$_printf_percent$$0000000E) for _printf_lld
    string.cpp.o(.text._ZNSt3__14stofERKNS_12basic_stringIcNS_11char_traitsIcEENS_9allocatorIcEEEEPj) refers (Special) to _printf_llu.o(.ARM.Collect$$_printf_percent$$0000000F) for _printf_llu
    string.cpp.o(.text._ZNSt3__14stofERKNS_12basic_stringIcNS_11char_traitsIcEENS_9allocatorIcEEEEPj) refers (Special) to _printf_longlong_dec.o(.text) for _printf_longlong_dec
    string.cpp.o(.text._ZNSt3__14stofERKNS_12basic_stringIcNS_11char_traitsIcEENS_9allocatorIcEEEEPj) refers (Special) to _printf_percent.o(.ARM.Collect$$_printf_percent$$00000000) for _printf_percent
    string.cpp.o(.text._ZNSt3__14stofERKNS_12basic_stringIcNS_11char_traitsIcEENS_9allocatorIcEEEEPj) refers (Special) to _printf_u.o(.ARM.Collect$$_printf_percent$$0000000A) for _printf_u
    string.cpp.o(.text._ZNSt3__14stofERKNS_12basic_stringIcNS_11char_traitsIcEENS_9allocatorIcEEEEPj) refers to rt_errno_addr_intlibspace.o(.text) for __aeabi_errno_addr
    string.cpp.o(.text._ZNSt3__14stofERKNS_12basic_stringIcNS_11char_traitsIcEENS_9allocatorIcEEEEPj) refers to strtof.o(i.strtof) for strtof
    string.cpp.o(.text._ZNSt3__14stofERKNS_12basic_stringIcNS_11char_traitsIcEENS_9allocatorIcEEEEPj) refers to new.cpp.o(.text._ZdlPv) for operator delete (void*)
    string.cpp.o(.text._ZNSt3__14stofERKNS_12basic_stringIcNS_11char_traitsIcEENS_9allocatorIcEEEEPj) refers to string.cpp.o(.rodata.str1.1) for .L.str.26
    string.cpp.o(.text._ZNSt3__14stofERKNS_12basic_stringIcNS_11char_traitsIcEENS_9allocatorIcEEEEPj) refers to string.cpp.o(.text._ZNSt3__1plIcNS_11char_traitsIcEENS_9allocatorIcEEEENS_12basic_stringIT_T0_T1_EERKS9_PKS6_) for std::__1::basic_string<T1, T2, T3> std::__1::operator +<char, std::__1::char_traits<char>, std::__1::allocator<char>>(const std::__1::basic_string<T1, T2, T3>&, const T1*)
    string.cpp.o(.text._ZNSt3__14stofERKNS_12basic_stringIcNS_11char_traitsIcEENS_9allocatorIcEEEEPj) refers to cxa_exception.cpp.o(.text.__cxa_allocate_exception) for __cxa_allocate_exception
    string.cpp.o(.text._ZNSt3__14stofERKNS_12basic_stringIcNS_11char_traitsIcEENS_9allocatorIcEEEEPj) refers to stdexcept.cpp.o(.text._ZNSt11logic_errorC2ERKNSt3__112basic_stringIcNS0_11char_traitsIcEENS0_9allocatorIcEEEE) for std::logic_error::logic_error__sub_object(const std::__1::basic_string<char, std::__1::char_traits<char>, std::__1::allocator<char>>&)
    string.cpp.o(.text._ZNSt3__14stofERKNS_12basic_stringIcNS_11char_traitsIcEENS_9allocatorIcEEEEPj) refers to stdlib_stdexcept.cpp.o(.rodata._ZTVSt12out_of_range) for vtable for std::out_of_range
    string.cpp.o(.text._ZNSt3__14stofERKNS_12basic_stringIcNS_11char_traitsIcEENS_9allocatorIcEEEEPj) refers to stdlib_stdexcept.cpp.o(.rodata._ZTISt12out_of_range) for typeinfo for std::out_of_range
    string.cpp.o(.text._ZNSt3__14stofERKNS_12basic_stringIcNS_11char_traitsIcEENS_9allocatorIcEEEEPj) refers to stdlib_stdexcept.cpp.o(.text._ZNSt11logic_errorD2Ev) for std::out_of_range::~out_of_range()
    string.cpp.o(.text._ZNSt3__14stofERKNS_12basic_stringIcNS_11char_traitsIcEENS_9allocatorIcEEEEPj) refers to cxa_exception.cpp.o(.text.__cxa_throw) for __cxa_throw
    string.cpp.o(.text._ZNSt3__14stofERKNS_12basic_stringIcNS_11char_traitsIcEENS_9allocatorIcEEEEPj) refers to stdlib_stdexcept.cpp.o(.rodata._ZTVSt16invalid_argument) for vtable for std::invalid_argument
    string.cpp.o(.text._ZNSt3__14stofERKNS_12basic_stringIcNS_11char_traitsIcEENS_9allocatorIcEEEEPj) refers to stdlib_stdexcept.cpp.o(.rodata._ZTISt16invalid_argument) for typeinfo for std::invalid_argument
    string.cpp.o(.text._ZNSt3__14stofERKNS_12basic_stringIcNS_11char_traitsIcEENS_9allocatorIcEEEEPj) refers to cxa_exception.cpp.o(.text.__cxa_free_exception) for __cxa_free_exception
    string.cpp.o(.text._ZNSt3__14stofERKNS_12basic_stringIcNS_11char_traitsIcEENS_9allocatorIcEEEEPj) refers to Unwind-EHABI.cpp.o(.text._Unwind_Resume) for _Unwind_Resume
    string.cpp.o(.ARM.extab.text._ZNSt3__14stofERKNS_12basic_stringIcNS_11char_traitsIcEENS_9allocatorIcEEEEPj) refers (Special) to _printf_d.o(.ARM.Collect$$_printf_percent$$00000009) for _printf_d
    string.cpp.o(.ARM.extab.text._ZNSt3__14stofERKNS_12basic_stringIcNS_11char_traitsIcEENS_9allocatorIcEEEEPj) refers (Special) to _printf_f.o(.ARM.Collect$$_printf_percent$$00000003) for _printf_f
    string.cpp.o(.ARM.extab.text._ZNSt3__14stofERKNS_12basic_stringIcNS_11char_traitsIcEENS_9allocatorIcEEEEPj) refers (Special) to printf1.o(x$fpl$printf1) for _printf_fp_dec
    string.cpp.o(.ARM.extab.text._ZNSt3__14stofERKNS_12basic_stringIcNS_11char_traitsIcEENS_9allocatorIcEEEEPj) refers (Special) to _printf_dec.o(.text) for _printf_int_dec
    string.cpp.o(.ARM.extab.text._ZNSt3__14stofERKNS_12basic_stringIcNS_11char_traitsIcEENS_9allocatorIcEEEEPj) refers (Special) to _printf_lld.o(.ARM.Collect$$_printf_percent$$0000000E) for _printf_lld
    string.cpp.o(.ARM.extab.text._ZNSt3__14stofERKNS_12basic_stringIcNS_11char_traitsIcEENS_9allocatorIcEEEEPj) refers (Special) to _printf_llu.o(.ARM.Collect$$_printf_percent$$0000000F) for _printf_llu
    string.cpp.o(.ARM.extab.text._ZNSt3__14stofERKNS_12basic_stringIcNS_11char_traitsIcEENS_9allocatorIcEEEEPj) refers (Special) to _printf_longlong_dec.o(.text) for _printf_longlong_dec
    string.cpp.o(.ARM.extab.text._ZNSt3__14stofERKNS_12basic_stringIcNS_11char_traitsIcEENS_9allocatorIcEEEEPj) refers (Special) to _printf_percent.o(.ARM.Collect$$_printf_percent$$00000000) for _printf_percent
    string.cpp.o(.ARM.extab.text._ZNSt3__14stofERKNS_12basic_stringIcNS_11char_traitsIcEENS_9allocatorIcEEEEPj) refers (Special) to _printf_u.o(.ARM.Collect$$_printf_percent$$0000000A) for _printf_u
    string.cpp.o(.ARM.extab.text._ZNSt3__14stofERKNS_12basic_stringIcNS_11char_traitsIcEENS_9allocatorIcEEEEPj) refers to cxa_personality.cpp.o(.text.__gxx_personality_v0) for __gxx_personality_v0
    string.cpp.o(.ARM.exidx.text._ZNSt3__14stofERKNS_12basic_stringIcNS_11char_traitsIcEENS_9allocatorIcEEEEPj) refers (Special) to _printf_d.o(.ARM.Collect$$_printf_percent$$00000009) for _printf_d
    string.cpp.o(.ARM.exidx.text._ZNSt3__14stofERKNS_12basic_stringIcNS_11char_traitsIcEENS_9allocatorIcEEEEPj) refers (Special) to _printf_f.o(.ARM.Collect$$_printf_percent$$00000003) for _printf_f
    string.cpp.o(.ARM.exidx.text._ZNSt3__14stofERKNS_12basic_stringIcNS_11char_traitsIcEENS_9allocatorIcEEEEPj) refers (Special) to printf1.o(x$fpl$printf1) for _printf_fp_dec
    string.cpp.o(.ARM.exidx.text._ZNSt3__14stofERKNS_12basic_stringIcNS_11char_traitsIcEENS_9allocatorIcEEEEPj) refers (Special) to _printf_dec.o(.text) for _printf_int_dec
    string.cpp.o(.ARM.exidx.text._ZNSt3__14stofERKNS_12basic_stringIcNS_11char_traitsIcEENS_9allocatorIcEEEEPj) refers (Special) to _printf_lld.o(.ARM.Collect$$_printf_percent$$0000000E) for _printf_lld
    string.cpp.o(.ARM.exidx.text._ZNSt3__14stofERKNS_12basic_stringIcNS_11char_traitsIcEENS_9allocatorIcEEEEPj) refers (Special) to _printf_llu.o(.ARM.Collect$$_printf_percent$$0000000F) for _printf_llu
    string.cpp.o(.ARM.exidx.text._ZNSt3__14stofERKNS_12basic_stringIcNS_11char_traitsIcEENS_9allocatorIcEEEEPj) refers (Special) to _printf_longlong_dec.o(.text) for _printf_longlong_dec
    string.cpp.o(.ARM.exidx.text._ZNSt3__14stofERKNS_12basic_stringIcNS_11char_traitsIcEENS_9allocatorIcEEEEPj) refers (Special) to _printf_percent.o(.ARM.Collect$$_printf_percent$$00000000) for _printf_percent
    string.cpp.o(.ARM.exidx.text._ZNSt3__14stofERKNS_12basic_stringIcNS_11char_traitsIcEENS_9allocatorIcEEEEPj) refers (Special) to _printf_u.o(.ARM.Collect$$_printf_percent$$0000000A) for _printf_u
    string.cpp.o(.ARM.exidx.text._ZNSt3__14stofERKNS_12basic_stringIcNS_11char_traitsIcEENS_9allocatorIcEEEEPj) refers to string.cpp.o(.text._ZNSt3__14stofERKNS_12basic_stringIcNS_11char_traitsIcEENS_9allocatorIcEEEEPj) for [Anonymous Symbol]
    string.cpp.o(.ARM.exidx.text._ZNSt3__14stofERKNS_12basic_stringIcNS_11char_traitsIcEENS_9allocatorIcEEEEPj) refers to string.cpp.o(.ARM.extab.text._ZNSt3__14stofERKNS_12basic_stringIcNS_11char_traitsIcEENS_9allocatorIcEEEEPj) for [Anonymous Symbol]
    string.cpp.o(.text._ZNSt3__14stofERKNS_12basic_stringIwNS_11char_traitsIwEENS_9allocatorIwEEEEPj) refers (Special) to _printf_d.o(.ARM.Collect$$_printf_percent$$00000009) for _printf_d
    string.cpp.o(.text._ZNSt3__14stofERKNS_12basic_stringIwNS_11char_traitsIwEENS_9allocatorIwEEEEPj) refers (Special) to _printf_f.o(.ARM.Collect$$_printf_percent$$00000003) for _printf_f
    string.cpp.o(.text._ZNSt3__14stofERKNS_12basic_stringIwNS_11char_traitsIwEENS_9allocatorIwEEEEPj) refers (Special) to printf1.o(x$fpl$printf1) for _printf_fp_dec
    string.cpp.o(.text._ZNSt3__14stofERKNS_12basic_stringIwNS_11char_traitsIwEENS_9allocatorIwEEEEPj) refers (Special) to _printf_dec.o(.text) for _printf_int_dec
    string.cpp.o(.text._ZNSt3__14stofERKNS_12basic_stringIwNS_11char_traitsIwEENS_9allocatorIwEEEEPj) refers (Special) to _printf_lld.o(.ARM.Collect$$_printf_percent$$0000000E) for _printf_lld
    string.cpp.o(.text._ZNSt3__14stofERKNS_12basic_stringIwNS_11char_traitsIwEENS_9allocatorIwEEEEPj) refers (Special) to _printf_llu.o(.ARM.Collect$$_printf_percent$$0000000F) for _printf_llu
    string.cpp.o(.text._ZNSt3__14stofERKNS_12basic_stringIwNS_11char_traitsIwEENS_9allocatorIwEEEEPj) refers (Special) to _printf_longlong_dec.o(.text) for _printf_longlong_dec
    string.cpp.o(.text._ZNSt3__14stofERKNS_12basic_stringIwNS_11char_traitsIwEENS_9allocatorIwEEEEPj) refers (Special) to _printf_percent.o(.ARM.Collect$$_printf_percent$$00000000) for _printf_percent
    string.cpp.o(.text._ZNSt3__14stofERKNS_12basic_stringIwNS_11char_traitsIwEENS_9allocatorIwEEEEPj) refers (Special) to _printf_u.o(.ARM.Collect$$_printf_percent$$0000000A) for _printf_u
    string.cpp.o(.text._ZNSt3__14stofERKNS_12basic_stringIwNS_11char_traitsIwEENS_9allocatorIwEEEEPj) refers to rt_errno_addr_intlibspace.o(.text) for __aeabi_errno_addr
    string.cpp.o(.text._ZNSt3__14stofERKNS_12basic_stringIwNS_11char_traitsIwEENS_9allocatorIwEEEEPj) refers to wcstof.o(i.wcstof) for wcstof
    string.cpp.o(.text._ZNSt3__14stofERKNS_12basic_stringIwNS_11char_traitsIwEENS_9allocatorIwEEEEPj) refers to new.cpp.o(.text._ZdlPv) for operator delete (void*)
    string.cpp.o(.text._ZNSt3__14stofERKNS_12basic_stringIwNS_11char_traitsIwEENS_9allocatorIwEEEEPj) refers to string.cpp.o(.rodata.str1.1) for .L.str.26
    string.cpp.o(.text._ZNSt3__14stofERKNS_12basic_stringIwNS_11char_traitsIwEENS_9allocatorIwEEEEPj) refers to string.cpp.o(.text._ZNSt3__1plIcNS_11char_traitsIcEENS_9allocatorIcEEEENS_12basic_stringIT_T0_T1_EERKS9_PKS6_) for std::__1::basic_string<T1, T2, T3> std::__1::operator +<char, std::__1::char_traits<char>, std::__1::allocator<char>>(const std::__1::basic_string<T1, T2, T3>&, const T1*)
    string.cpp.o(.text._ZNSt3__14stofERKNS_12basic_stringIwNS_11char_traitsIwEENS_9allocatorIwEEEEPj) refers to cxa_exception.cpp.o(.text.__cxa_allocate_exception) for __cxa_allocate_exception
    string.cpp.o(.text._ZNSt3__14stofERKNS_12basic_stringIwNS_11char_traitsIwEENS_9allocatorIwEEEEPj) refers to stdexcept.cpp.o(.text._ZNSt11logic_errorC2ERKNSt3__112basic_stringIcNS0_11char_traitsIcEENS0_9allocatorIcEEEE) for std::logic_error::logic_error__sub_object(const std::__1::basic_string<char, std::__1::char_traits<char>, std::__1::allocator<char>>&)
    string.cpp.o(.text._ZNSt3__14stofERKNS_12basic_stringIwNS_11char_traitsIwEENS_9allocatorIwEEEEPj) refers to stdlib_stdexcept.cpp.o(.rodata._ZTVSt12out_of_range) for vtable for std::out_of_range
    string.cpp.o(.text._ZNSt3__14stofERKNS_12basic_stringIwNS_11char_traitsIwEENS_9allocatorIwEEEEPj) refers to stdlib_stdexcept.cpp.o(.rodata._ZTISt12out_of_range) for typeinfo for std::out_of_range
    string.cpp.o(.text._ZNSt3__14stofERKNS_12basic_stringIwNS_11char_traitsIwEENS_9allocatorIwEEEEPj) refers to stdlib_stdexcept.cpp.o(.text._ZNSt11logic_errorD2Ev) for std::out_of_range::~out_of_range()
    string.cpp.o(.text._ZNSt3__14stofERKNS_12basic_stringIwNS_11char_traitsIwEENS_9allocatorIwEEEEPj) refers to cxa_exception.cpp.o(.text.__cxa_throw) for __cxa_throw
    string.cpp.o(.text._ZNSt3__14stofERKNS_12basic_stringIwNS_11char_traitsIwEENS_9allocatorIwEEEEPj) refers to stdlib_stdexcept.cpp.o(.rodata._ZTVSt16invalid_argument) for vtable for std::invalid_argument
    string.cpp.o(.text._ZNSt3__14stofERKNS_12basic_stringIwNS_11char_traitsIwEENS_9allocatorIwEEEEPj) refers to stdlib_stdexcept.cpp.o(.rodata._ZTISt16invalid_argument) for typeinfo for std::invalid_argument
    string.cpp.o(.text._ZNSt3__14stofERKNS_12basic_stringIwNS_11char_traitsIwEENS_9allocatorIwEEEEPj) refers to cxa_exception.cpp.o(.text.__cxa_free_exception) for __cxa_free_exception
    string.cpp.o(.text._ZNSt3__14stofERKNS_12basic_stringIwNS_11char_traitsIwEENS_9allocatorIwEEEEPj) refers to Unwind-EHABI.cpp.o(.text._Unwind_Resume) for _Unwind_Resume
    string.cpp.o(.ARM.extab.text._ZNSt3__14stofERKNS_12basic_stringIwNS_11char_traitsIwEENS_9allocatorIwEEEEPj) refers (Special) to _printf_d.o(.ARM.Collect$$_printf_percent$$00000009) for _printf_d
    string.cpp.o(.ARM.extab.text._ZNSt3__14stofERKNS_12basic_stringIwNS_11char_traitsIwEENS_9allocatorIwEEEEPj) refers (Special) to _printf_f.o(.ARM.Collect$$_printf_percent$$00000003) for _printf_f
    string.cpp.o(.ARM.extab.text._ZNSt3__14stofERKNS_12basic_stringIwNS_11char_traitsIwEENS_9allocatorIwEEEEPj) refers (Special) to printf1.o(x$fpl$printf1) for _printf_fp_dec
    string.cpp.o(.ARM.extab.text._ZNSt3__14stofERKNS_12basic_stringIwNS_11char_traitsIwEENS_9allocatorIwEEEEPj) refers (Special) to _printf_dec.o(.text) for _printf_int_dec
    string.cpp.o(.ARM.extab.text._ZNSt3__14stofERKNS_12basic_stringIwNS_11char_traitsIwEENS_9allocatorIwEEEEPj) refers (Special) to _printf_lld.o(.ARM.Collect$$_printf_percent$$0000000E) for _printf_lld
    string.cpp.o(.ARM.extab.text._ZNSt3__14stofERKNS_12basic_stringIwNS_11char_traitsIwEENS_9allocatorIwEEEEPj) refers (Special) to _printf_llu.o(.ARM.Collect$$_printf_percent$$0000000F) for _printf_llu
    string.cpp.o(.ARM.extab.text._ZNSt3__14stofERKNS_12basic_stringIwNS_11char_traitsIwEENS_9allocatorIwEEEEPj) refers (Special) to _printf_longlong_dec.o(.text) for _printf_longlong_dec
    string.cpp.o(.ARM.extab.text._ZNSt3__14stofERKNS_12basic_stringIwNS_11char_traitsIwEENS_9allocatorIwEEEEPj) refers (Special) to _printf_percent.o(.ARM.Collect$$_printf_percent$$00000000) for _printf_percent
    string.cpp.o(.ARM.extab.text._ZNSt3__14stofERKNS_12basic_stringIwNS_11char_traitsIwEENS_9allocatorIwEEEEPj) refers (Special) to _printf_u.o(.ARM.Collect$$_printf_percent$$0000000A) for _printf_u
    string.cpp.o(.ARM.extab.text._ZNSt3__14stofERKNS_12basic_stringIwNS_11char_traitsIwEENS_9allocatorIwEEEEPj) refers to cxa_personality.cpp.o(.text.__gxx_personality_v0) for __gxx_personality_v0
    string.cpp.o(.ARM.exidx.text._ZNSt3__14stofERKNS_12basic_stringIwNS_11char_traitsIwEENS_9allocatorIwEEEEPj) refers (Special) to _printf_d.o(.ARM.Collect$$_printf_percent$$00000009) for _printf_d
    string.cpp.o(.ARM.exidx.text._ZNSt3__14stofERKNS_12basic_stringIwNS_11char_traitsIwEENS_9allocatorIwEEEEPj) refers (Special) to _printf_f.o(.ARM.Collect$$_printf_percent$$00000003) for _printf_f
    string.cpp.o(.ARM.exidx.text._ZNSt3__14stofERKNS_12basic_stringIwNS_11char_traitsIwEENS_9allocatorIwEEEEPj) refers (Special) to printf1.o(x$fpl$printf1) for _printf_fp_dec
    string.cpp.o(.ARM.exidx.text._ZNSt3__14stofERKNS_12basic_stringIwNS_11char_traitsIwEENS_9allocatorIwEEEEPj) refers (Special) to _printf_dec.o(.text) for _printf_int_dec
    string.cpp.o(.ARM.exidx.text._ZNSt3__14stofERKNS_12basic_stringIwNS_11char_traitsIwEENS_9allocatorIwEEEEPj) refers (Special) to _printf_lld.o(.ARM.Collect$$_printf_percent$$0000000E) for _printf_lld
    string.cpp.o(.ARM.exidx.text._ZNSt3__14stofERKNS_12basic_stringIwNS_11char_traitsIwEENS_9allocatorIwEEEEPj) refers (Special) to _printf_llu.o(.ARM.Collect$$_printf_percent$$0000000F) for _printf_llu
    string.cpp.o(.ARM.exidx.text._ZNSt3__14stofERKNS_12basic_stringIwNS_11char_traitsIwEENS_9allocatorIwEEEEPj) refers (Special) to _printf_longlong_dec.o(.text) for _printf_longlong_dec
    string.cpp.o(.ARM.exidx.text._ZNSt3__14stofERKNS_12basic_stringIwNS_11char_traitsIwEENS_9allocatorIwEEEEPj) refers (Special) to _printf_percent.o(.ARM.Collect$$_printf_percent$$00000000) for _printf_percent
    string.cpp.o(.ARM.exidx.text._ZNSt3__14stofERKNS_12basic_stringIwNS_11char_traitsIwEENS_9allocatorIwEEEEPj) refers (Special) to _printf_u.o(.ARM.Collect$$_printf_percent$$0000000A) for _printf_u
    string.cpp.o(.ARM.exidx.text._ZNSt3__14stofERKNS_12basic_stringIwNS_11char_traitsIwEENS_9allocatorIwEEEEPj) refers to string.cpp.o(.text._ZNSt3__14stofERKNS_12basic_stringIwNS_11char_traitsIwEENS_9allocatorIwEEEEPj) for [Anonymous Symbol]
    string.cpp.o(.ARM.exidx.text._ZNSt3__14stofERKNS_12basic_stringIwNS_11char_traitsIwEENS_9allocatorIwEEEEPj) refers to string.cpp.o(.ARM.extab.text._ZNSt3__14stofERKNS_12basic_stringIwNS_11char_traitsIwEENS_9allocatorIwEEEEPj) for [Anonymous Symbol]
    string.cpp.o(.text._ZNSt3__14stodERKNS_12basic_stringIcNS_11char_traitsIcEENS_9allocatorIcEEEEPj) refers (Special) to _printf_d.o(.ARM.Collect$$_printf_percent$$00000009) for _printf_d
    string.cpp.o(.text._ZNSt3__14stodERKNS_12basic_stringIcNS_11char_traitsIcEENS_9allocatorIcEEEEPj) refers (Special) to _printf_f.o(.ARM.Collect$$_printf_percent$$00000003) for _printf_f
    string.cpp.o(.text._ZNSt3__14stodERKNS_12basic_stringIcNS_11char_traitsIcEENS_9allocatorIcEEEEPj) refers (Special) to printf1.o(x$fpl$printf1) for _printf_fp_dec
    string.cpp.o(.text._ZNSt3__14stodERKNS_12basic_stringIcNS_11char_traitsIcEENS_9allocatorIcEEEEPj) refers (Special) to _printf_dec.o(.text) for _printf_int_dec
    string.cpp.o(.text._ZNSt3__14stodERKNS_12basic_stringIcNS_11char_traitsIcEENS_9allocatorIcEEEEPj) refers (Special) to _printf_lld.o(.ARM.Collect$$_printf_percent$$0000000E) for _printf_lld
    string.cpp.o(.text._ZNSt3__14stodERKNS_12basic_stringIcNS_11char_traitsIcEENS_9allocatorIcEEEEPj) refers (Special) to _printf_llu.o(.ARM.Collect$$_printf_percent$$0000000F) for _printf_llu
    string.cpp.o(.text._ZNSt3__14stodERKNS_12basic_stringIcNS_11char_traitsIcEENS_9allocatorIcEEEEPj) refers (Special) to _printf_longlong_dec.o(.text) for _printf_longlong_dec
    string.cpp.o(.text._ZNSt3__14stodERKNS_12basic_stringIcNS_11char_traitsIcEENS_9allocatorIcEEEEPj) refers (Special) to _printf_percent.o(.ARM.Collect$$_printf_percent$$00000000) for _printf_percent
    string.cpp.o(.text._ZNSt3__14stodERKNS_12basic_stringIcNS_11char_traitsIcEENS_9allocatorIcEEEEPj) refers (Special) to _printf_u.o(.ARM.Collect$$_printf_percent$$0000000A) for _printf_u
    string.cpp.o(.text._ZNSt3__14stodERKNS_12basic_stringIcNS_11char_traitsIcEENS_9allocatorIcEEEEPj) refers to rt_errno_addr_intlibspace.o(.text) for __aeabi_errno_addr
    string.cpp.o(.text._ZNSt3__14stodERKNS_12basic_stringIcNS_11char_traitsIcEENS_9allocatorIcEEEEPj) refers to strtod.o(i.strtod) for strtod
    string.cpp.o(.text._ZNSt3__14stodERKNS_12basic_stringIcNS_11char_traitsIcEENS_9allocatorIcEEEEPj) refers to new.cpp.o(.text._ZdlPv) for operator delete (void*)
    string.cpp.o(.text._ZNSt3__14stodERKNS_12basic_stringIcNS_11char_traitsIcEENS_9allocatorIcEEEEPj) refers to string.cpp.o(.rodata.str1.1) for .L.str.26
    string.cpp.o(.text._ZNSt3__14stodERKNS_12basic_stringIcNS_11char_traitsIcEENS_9allocatorIcEEEEPj) refers to string.cpp.o(.text._ZNSt3__1plIcNS_11char_traitsIcEENS_9allocatorIcEEEENS_12basic_stringIT_T0_T1_EERKS9_PKS6_) for std::__1::basic_string<T1, T2, T3> std::__1::operator +<char, std::__1::char_traits<char>, std::__1::allocator<char>>(const std::__1::basic_string<T1, T2, T3>&, const T1*)
    string.cpp.o(.text._ZNSt3__14stodERKNS_12basic_stringIcNS_11char_traitsIcEENS_9allocatorIcEEEEPj) refers to cxa_exception.cpp.o(.text.__cxa_allocate_exception) for __cxa_allocate_exception
    string.cpp.o(.text._ZNSt3__14stodERKNS_12basic_stringIcNS_11char_traitsIcEENS_9allocatorIcEEEEPj) refers to stdexcept.cpp.o(.text._ZNSt11logic_errorC2ERKNSt3__112basic_stringIcNS0_11char_traitsIcEENS0_9allocatorIcEEEE) for std::logic_error::logic_error__sub_object(const std::__1::basic_string<char, std::__1::char_traits<char>, std::__1::allocator<char>>&)
    string.cpp.o(.text._ZNSt3__14stodERKNS_12basic_stringIcNS_11char_traitsIcEENS_9allocatorIcEEEEPj) refers to stdlib_stdexcept.cpp.o(.rodata._ZTVSt12out_of_range) for vtable for std::out_of_range
    string.cpp.o(.text._ZNSt3__14stodERKNS_12basic_stringIcNS_11char_traitsIcEENS_9allocatorIcEEEEPj) refers to stdlib_stdexcept.cpp.o(.rodata._ZTISt12out_of_range) for typeinfo for std::out_of_range
    string.cpp.o(.text._ZNSt3__14stodERKNS_12basic_stringIcNS_11char_traitsIcEENS_9allocatorIcEEEEPj) refers to stdlib_stdexcept.cpp.o(.text._ZNSt11logic_errorD2Ev) for std::out_of_range::~out_of_range()
    string.cpp.o(.text._ZNSt3__14stodERKNS_12basic_stringIcNS_11char_traitsIcEENS_9allocatorIcEEEEPj) refers to cxa_exception.cpp.o(.text.__cxa_throw) for __cxa_throw
    string.cpp.o(.text._ZNSt3__14stodERKNS_12basic_stringIcNS_11char_traitsIcEENS_9allocatorIcEEEEPj) refers to stdlib_stdexcept.cpp.o(.rodata._ZTVSt16invalid_argument) for vtable for std::invalid_argument
    string.cpp.o(.text._ZNSt3__14stodERKNS_12basic_stringIcNS_11char_traitsIcEENS_9allocatorIcEEEEPj) refers to stdlib_stdexcept.cpp.o(.rodata._ZTISt16invalid_argument) for typeinfo for std::invalid_argument
    string.cpp.o(.text._ZNSt3__14stodERKNS_12basic_stringIcNS_11char_traitsIcEENS_9allocatorIcEEEEPj) refers to cxa_exception.cpp.o(.text.__cxa_free_exception) for __cxa_free_exception
    string.cpp.o(.text._ZNSt3__14stodERKNS_12basic_stringIcNS_11char_traitsIcEENS_9allocatorIcEEEEPj) refers to Unwind-EHABI.cpp.o(.text._Unwind_Resume) for _Unwind_Resume
    string.cpp.o(.ARM.extab.text._ZNSt3__14stodERKNS_12basic_stringIcNS_11char_traitsIcEENS_9allocatorIcEEEEPj) refers (Special) to _printf_d.o(.ARM.Collect$$_printf_percent$$00000009) for _printf_d
    string.cpp.o(.ARM.extab.text._ZNSt3__14stodERKNS_12basic_stringIcNS_11char_traitsIcEENS_9allocatorIcEEEEPj) refers (Special) to _printf_f.o(.ARM.Collect$$_printf_percent$$00000003) for _printf_f
    string.cpp.o(.ARM.extab.text._ZNSt3__14stodERKNS_12basic_stringIcNS_11char_traitsIcEENS_9allocatorIcEEEEPj) refers (Special) to printf1.o(x$fpl$printf1) for _printf_fp_dec
    string.cpp.o(.ARM.extab.text._ZNSt3__14stodERKNS_12basic_stringIcNS_11char_traitsIcEENS_9allocatorIcEEEEPj) refers (Special) to _printf_dec.o(.text) for _printf_int_dec
    string.cpp.o(.ARM.extab.text._ZNSt3__14stodERKNS_12basic_stringIcNS_11char_traitsIcEENS_9allocatorIcEEEEPj) refers (Special) to _printf_lld.o(.ARM.Collect$$_printf_percent$$0000000E) for _printf_lld
    string.cpp.o(.ARM.extab.text._ZNSt3__14stodERKNS_12basic_stringIcNS_11char_traitsIcEENS_9allocatorIcEEEEPj) refers (Special) to _printf_llu.o(.ARM.Collect$$_printf_percent$$0000000F) for _printf_llu
    string.cpp.o(.ARM.extab.text._ZNSt3__14stodERKNS_12basic_stringIcNS_11char_traitsIcEENS_9allocatorIcEEEEPj) refers (Special) to _printf_longlong_dec.o(.text) for _printf_longlong_dec
    string.cpp.o(.ARM.extab.text._ZNSt3__14stodERKNS_12basic_stringIcNS_11char_traitsIcEENS_9allocatorIcEEEEPj) refers (Special) to _printf_percent.o(.ARM.Collect$$_printf_percent$$00000000) for _printf_percent
    string.cpp.o(.ARM.extab.text._ZNSt3__14stodERKNS_12basic_stringIcNS_11char_traitsIcEENS_9allocatorIcEEEEPj) refers (Special) to _printf_u.o(.ARM.Collect$$_printf_percent$$0000000A) for _printf_u
    string.cpp.o(.ARM.extab.text._ZNSt3__14stodERKNS_12basic_stringIcNS_11char_traitsIcEENS_9allocatorIcEEEEPj) refers to cxa_personality.cpp.o(.text.__gxx_personality_v0) for __gxx_personality_v0
    string.cpp.o(.ARM.exidx.text._ZNSt3__14stodERKNS_12basic_stringIcNS_11char_traitsIcEENS_9allocatorIcEEEEPj) refers (Special) to _printf_d.o(.ARM.Collect$$_printf_percent$$00000009) for _printf_d
    string.cpp.o(.ARM.exidx.text._ZNSt3__14stodERKNS_12basic_stringIcNS_11char_traitsIcEENS_9allocatorIcEEEEPj) refers (Special) to _printf_f.o(.ARM.Collect$$_printf_percent$$00000003) for _printf_f
    string.cpp.o(.ARM.exidx.text._ZNSt3__14stodERKNS_12basic_stringIcNS_11char_traitsIcEENS_9allocatorIcEEEEPj) refers (Special) to printf1.o(x$fpl$printf1) for _printf_fp_dec
    string.cpp.o(.ARM.exidx.text._ZNSt3__14stodERKNS_12basic_stringIcNS_11char_traitsIcEENS_9allocatorIcEEEEPj) refers (Special) to _printf_dec.o(.text) for _printf_int_dec
    string.cpp.o(.ARM.exidx.text._ZNSt3__14stodERKNS_12basic_stringIcNS_11char_traitsIcEENS_9allocatorIcEEEEPj) refers (Special) to _printf_lld.o(.ARM.Collect$$_printf_percent$$0000000E) for _printf_lld
    string.cpp.o(.ARM.exidx.text._ZNSt3__14stodERKNS_12basic_stringIcNS_11char_traitsIcEENS_9allocatorIcEEEEPj) refers (Special) to _printf_llu.o(.ARM.Collect$$_printf_percent$$0000000F) for _printf_llu
    string.cpp.o(.ARM.exidx.text._ZNSt3__14stodERKNS_12basic_stringIcNS_11char_traitsIcEENS_9allocatorIcEEEEPj) refers (Special) to _printf_longlong_dec.o(.text) for _printf_longlong_dec
    string.cpp.o(.ARM.exidx.text._ZNSt3__14stodERKNS_12basic_stringIcNS_11char_traitsIcEENS_9allocatorIcEEEEPj) refers (Special) to _printf_percent.o(.ARM.Collect$$_printf_percent$$00000000) for _printf_percent
    string.cpp.o(.ARM.exidx.text._ZNSt3__14stodERKNS_12basic_stringIcNS_11char_traitsIcEENS_9allocatorIcEEEEPj) refers (Special) to _printf_u.o(.ARM.Collect$$_printf_percent$$0000000A) for _printf_u
    string.cpp.o(.ARM.exidx.text._ZNSt3__14stodERKNS_12basic_stringIcNS_11char_traitsIcEENS_9allocatorIcEEEEPj) refers to string.cpp.o(.text._ZNSt3__14stodERKNS_12basic_stringIcNS_11char_traitsIcEENS_9allocatorIcEEEEPj) for [Anonymous Symbol]
    string.cpp.o(.ARM.exidx.text._ZNSt3__14stodERKNS_12basic_stringIcNS_11char_traitsIcEENS_9allocatorIcEEEEPj) refers to string.cpp.o(.ARM.extab.text._ZNSt3__14stodERKNS_12basic_stringIcNS_11char_traitsIcEENS_9allocatorIcEEEEPj) for [Anonymous Symbol]
    string.cpp.o(.text._ZNSt3__14stodERKNS_12basic_stringIwNS_11char_traitsIwEENS_9allocatorIwEEEEPj) refers (Special) to _printf_d.o(.ARM.Collect$$_printf_percent$$00000009) for _printf_d
    string.cpp.o(.text._ZNSt3__14stodERKNS_12basic_stringIwNS_11char_traitsIwEENS_9allocatorIwEEEEPj) refers (Special) to _printf_f.o(.ARM.Collect$$_printf_percent$$00000003) for _printf_f
    string.cpp.o(.text._ZNSt3__14stodERKNS_12basic_stringIwNS_11char_traitsIwEENS_9allocatorIwEEEEPj) refers (Special) to printf1.o(x$fpl$printf1) for _printf_fp_dec
    string.cpp.o(.text._ZNSt3__14stodERKNS_12basic_stringIwNS_11char_traitsIwEENS_9allocatorIwEEEEPj) refers (Special) to _printf_dec.o(.text) for _printf_int_dec
    string.cpp.o(.text._ZNSt3__14stodERKNS_12basic_stringIwNS_11char_traitsIwEENS_9allocatorIwEEEEPj) refers (Special) to _printf_lld.o(.ARM.Collect$$_printf_percent$$0000000E) for _printf_lld
    string.cpp.o(.text._ZNSt3__14stodERKNS_12basic_stringIwNS_11char_traitsIwEENS_9allocatorIwEEEEPj) refers (Special) to _printf_llu.o(.ARM.Collect$$_printf_percent$$0000000F) for _printf_llu
    string.cpp.o(.text._ZNSt3__14stodERKNS_12basic_stringIwNS_11char_traitsIwEENS_9allocatorIwEEEEPj) refers (Special) to _printf_longlong_dec.o(.text) for _printf_longlong_dec
    string.cpp.o(.text._ZNSt3__14stodERKNS_12basic_stringIwNS_11char_traitsIwEENS_9allocatorIwEEEEPj) refers (Special) to _printf_percent.o(.ARM.Collect$$_printf_percent$$00000000) for _printf_percent
    string.cpp.o(.text._ZNSt3__14stodERKNS_12basic_stringIwNS_11char_traitsIwEENS_9allocatorIwEEEEPj) refers (Special) to _printf_u.o(.ARM.Collect$$_printf_percent$$0000000A) for _printf_u
    string.cpp.o(.text._ZNSt3__14stodERKNS_12basic_stringIwNS_11char_traitsIwEENS_9allocatorIwEEEEPj) refers to rt_errno_addr_intlibspace.o(.text) for __aeabi_errno_addr
    string.cpp.o(.text._ZNSt3__14stodERKNS_12basic_stringIwNS_11char_traitsIwEENS_9allocatorIwEEEEPj) refers to wcstod.o(i.wcstod) for wcstod
    string.cpp.o(.text._ZNSt3__14stodERKNS_12basic_stringIwNS_11char_traitsIwEENS_9allocatorIwEEEEPj) refers to new.cpp.o(.text._ZdlPv) for operator delete (void*)
    string.cpp.o(.text._ZNSt3__14stodERKNS_12basic_stringIwNS_11char_traitsIwEENS_9allocatorIwEEEEPj) refers to string.cpp.o(.rodata.str1.1) for .L.str.26
    string.cpp.o(.text._ZNSt3__14stodERKNS_12basic_stringIwNS_11char_traitsIwEENS_9allocatorIwEEEEPj) refers to string.cpp.o(.text._ZNSt3__1plIcNS_11char_traitsIcEENS_9allocatorIcEEEENS_12basic_stringIT_T0_T1_EERKS9_PKS6_) for std::__1::basic_string<T1, T2, T3> std::__1::operator +<char, std::__1::char_traits<char>, std::__1::allocator<char>>(const std::__1::basic_string<T1, T2, T3>&, const T1*)
    string.cpp.o(.text._ZNSt3__14stodERKNS_12basic_stringIwNS_11char_traitsIwEENS_9allocatorIwEEEEPj) refers to cxa_exception.cpp.o(.text.__cxa_allocate_exception) for __cxa_allocate_exception
    string.cpp.o(.text._ZNSt3__14stodERKNS_12basic_stringIwNS_11char_traitsIwEENS_9allocatorIwEEEEPj) refers to stdexcept.cpp.o(.text._ZNSt11logic_errorC2ERKNSt3__112basic_stringIcNS0_11char_traitsIcEENS0_9allocatorIcEEEE) for std::logic_error::logic_error__sub_object(const std::__1::basic_string<char, std::__1::char_traits<char>, std::__1::allocator<char>>&)
    string.cpp.o(.text._ZNSt3__14stodERKNS_12basic_stringIwNS_11char_traitsIwEENS_9allocatorIwEEEEPj) refers to stdlib_stdexcept.cpp.o(.rodata._ZTVSt12out_of_range) for vtable for std::out_of_range
    string.cpp.o(.text._ZNSt3__14stodERKNS_12basic_stringIwNS_11char_traitsIwEENS_9allocatorIwEEEEPj) refers to stdlib_stdexcept.cpp.o(.rodata._ZTISt12out_of_range) for typeinfo for std::out_of_range
    string.cpp.o(.text._ZNSt3__14stodERKNS_12basic_stringIwNS_11char_traitsIwEENS_9allocatorIwEEEEPj) refers to stdlib_stdexcept.cpp.o(.text._ZNSt11logic_errorD2Ev) for std::out_of_range::~out_of_range()
    string.cpp.o(.text._ZNSt3__14stodERKNS_12basic_stringIwNS_11char_traitsIwEENS_9allocatorIwEEEEPj) refers to cxa_exception.cpp.o(.text.__cxa_throw) for __cxa_throw
    string.cpp.o(.text._ZNSt3__14stodERKNS_12basic_stringIwNS_11char_traitsIwEENS_9allocatorIwEEEEPj) refers to stdlib_stdexcept.cpp.o(.rodata._ZTVSt16invalid_argument) for vtable for std::invalid_argument
    string.cpp.o(.text._ZNSt3__14stodERKNS_12basic_stringIwNS_11char_traitsIwEENS_9allocatorIwEEEEPj) refers to stdlib_stdexcept.cpp.o(.rodata._ZTISt16invalid_argument) for typeinfo for std::invalid_argument
    string.cpp.o(.text._ZNSt3__14stodERKNS_12basic_stringIwNS_11char_traitsIwEENS_9allocatorIwEEEEPj) refers to cxa_exception.cpp.o(.text.__cxa_free_exception) for __cxa_free_exception
    string.cpp.o(.text._ZNSt3__14stodERKNS_12basic_stringIwNS_11char_traitsIwEENS_9allocatorIwEEEEPj) refers to Unwind-EHABI.cpp.o(.text._Unwind_Resume) for _Unwind_Resume
    string.cpp.o(.ARM.extab.text._ZNSt3__14stodERKNS_12basic_stringIwNS_11char_traitsIwEENS_9allocatorIwEEEEPj) refers (Special) to _printf_d.o(.ARM.Collect$$_printf_percent$$00000009) for _printf_d
    string.cpp.o(.ARM.extab.text._ZNSt3__14stodERKNS_12basic_stringIwNS_11char_traitsIwEENS_9allocatorIwEEEEPj) refers (Special) to _printf_f.o(.ARM.Collect$$_printf_percent$$00000003) for _printf_f
    string.cpp.o(.ARM.extab.text._ZNSt3__14stodERKNS_12basic_stringIwNS_11char_traitsIwEENS_9allocatorIwEEEEPj) refers (Special) to printf1.o(x$fpl$printf1) for _printf_fp_dec
    string.cpp.o(.ARM.extab.text._ZNSt3__14stodERKNS_12basic_stringIwNS_11char_traitsIwEENS_9allocatorIwEEEEPj) refers (Special) to _printf_dec.o(.text) for _printf_int_dec
    string.cpp.o(.ARM.extab.text._ZNSt3__14stodERKNS_12basic_stringIwNS_11char_traitsIwEENS_9allocatorIwEEEEPj) refers (Special) to _printf_lld.o(.ARM.Collect$$_printf_percent$$0000000E) for _printf_lld
    string.cpp.o(.ARM.extab.text._ZNSt3__14stodERKNS_12basic_stringIwNS_11char_traitsIwEENS_9allocatorIwEEEEPj) refers (Special) to _printf_llu.o(.ARM.Collect$$_printf_percent$$0000000F) for _printf_llu
    string.cpp.o(.ARM.extab.text._ZNSt3__14stodERKNS_12basic_stringIwNS_11char_traitsIwEENS_9allocatorIwEEEEPj) refers (Special) to _printf_longlong_dec.o(.text) for _printf_longlong_dec
    string.cpp.o(.ARM.extab.text._ZNSt3__14stodERKNS_12basic_stringIwNS_11char_traitsIwEENS_9allocatorIwEEEEPj) refers (Special) to _printf_percent.o(.ARM.Collect$$_printf_percent$$00000000) for _printf_percent
    string.cpp.o(.ARM.extab.text._ZNSt3__14stodERKNS_12basic_stringIwNS_11char_traitsIwEENS_9allocatorIwEEEEPj) refers (Special) to _printf_u.o(.ARM.Collect$$_printf_percent$$0000000A) for _printf_u
    string.cpp.o(.ARM.extab.text._ZNSt3__14stodERKNS_12basic_stringIwNS_11char_traitsIwEENS_9allocatorIwEEEEPj) refers to cxa_personality.cpp.o(.text.__gxx_personality_v0) for __gxx_personality_v0
    string.cpp.o(.ARM.exidx.text._ZNSt3__14stodERKNS_12basic_stringIwNS_11char_traitsIwEENS_9allocatorIwEEEEPj) refers (Special) to _printf_d.o(.ARM.Collect$$_printf_percent$$00000009) for _printf_d
    string.cpp.o(.ARM.exidx.text._ZNSt3__14stodERKNS_12basic_stringIwNS_11char_traitsIwEENS_9allocatorIwEEEEPj) refers (Special) to _printf_f.o(.ARM.Collect$$_printf_percent$$00000003) for _printf_f
    string.cpp.o(.ARM.exidx.text._ZNSt3__14stodERKNS_12basic_stringIwNS_11char_traitsIwEENS_9allocatorIwEEEEPj) refers (Special) to printf1.o(x$fpl$printf1) for _printf_fp_dec
    string.cpp.o(.ARM.exidx.text._ZNSt3__14stodERKNS_12basic_stringIwNS_11char_traitsIwEENS_9allocatorIwEEEEPj) refers (Special) to _printf_dec.o(.text) for _printf_int_dec
    string.cpp.o(.ARM.exidx.text._ZNSt3__14stodERKNS_12basic_stringIwNS_11char_traitsIwEENS_9allocatorIwEEEEPj) refers (Special) to _printf_lld.o(.ARM.Collect$$_printf_percent$$0000000E) for _printf_lld
    string.cpp.o(.ARM.exidx.text._ZNSt3__14stodERKNS_12basic_stringIwNS_11char_traitsIwEENS_9allocatorIwEEEEPj) refers (Special) to _printf_llu.o(.ARM.Collect$$_printf_percent$$0000000F) for _printf_llu
    string.cpp.o(.ARM.exidx.text._ZNSt3__14stodERKNS_12basic_stringIwNS_11char_traitsIwEENS_9allocatorIwEEEEPj) refers (Special) to _printf_longlong_dec.o(.text) for _printf_longlong_dec
    string.cpp.o(.ARM.exidx.text._ZNSt3__14stodERKNS_12basic_stringIwNS_11char_traitsIwEENS_9allocatorIwEEEEPj) refers (Special) to _printf_percent.o(.ARM.Collect$$_printf_percent$$00000000) for _printf_percent
    string.cpp.o(.ARM.exidx.text._ZNSt3__14stodERKNS_12basic_stringIwNS_11char_traitsIwEENS_9allocatorIwEEEEPj) refers (Special) to _printf_u.o(.ARM.Collect$$_printf_percent$$0000000A) for _printf_u
    string.cpp.o(.ARM.exidx.text._ZNSt3__14stodERKNS_12basic_stringIwNS_11char_traitsIwEENS_9allocatorIwEEEEPj) refers to string.cpp.o(.text._ZNSt3__14stodERKNS_12basic_stringIwNS_11char_traitsIwEENS_9allocatorIwEEEEPj) for [Anonymous Symbol]
    string.cpp.o(.ARM.exidx.text._ZNSt3__14stodERKNS_12basic_stringIwNS_11char_traitsIwEENS_9allocatorIwEEEEPj) refers to string.cpp.o(.ARM.extab.text._ZNSt3__14stodERKNS_12basic_stringIwNS_11char_traitsIwEENS_9allocatorIwEEEEPj) for [Anonymous Symbol]
    string.cpp.o(.text._ZNSt3__15stoldERKNS_12basic_stringIcNS_11char_traitsIcEENS_9allocatorIcEEEEPj) refers (Special) to _printf_d.o(.ARM.Collect$$_printf_percent$$00000009) for _printf_d
    string.cpp.o(.text._ZNSt3__15stoldERKNS_12basic_stringIcNS_11char_traitsIcEENS_9allocatorIcEEEEPj) refers (Special) to _printf_f.o(.ARM.Collect$$_printf_percent$$00000003) for _printf_f
    string.cpp.o(.text._ZNSt3__15stoldERKNS_12basic_stringIcNS_11char_traitsIcEENS_9allocatorIcEEEEPj) refers (Special) to printf1.o(x$fpl$printf1) for _printf_fp_dec
    string.cpp.o(.text._ZNSt3__15stoldERKNS_12basic_stringIcNS_11char_traitsIcEENS_9allocatorIcEEEEPj) refers (Special) to _printf_dec.o(.text) for _printf_int_dec
    string.cpp.o(.text._ZNSt3__15stoldERKNS_12basic_stringIcNS_11char_traitsIcEENS_9allocatorIcEEEEPj) refers (Special) to _printf_lld.o(.ARM.Collect$$_printf_percent$$0000000E) for _printf_lld
    string.cpp.o(.text._ZNSt3__15stoldERKNS_12basic_stringIcNS_11char_traitsIcEENS_9allocatorIcEEEEPj) refers (Special) to _printf_llu.o(.ARM.Collect$$_printf_percent$$0000000F) for _printf_llu
    string.cpp.o(.text._ZNSt3__15stoldERKNS_12basic_stringIcNS_11char_traitsIcEENS_9allocatorIcEEEEPj) refers (Special) to _printf_longlong_dec.o(.text) for _printf_longlong_dec
    string.cpp.o(.text._ZNSt3__15stoldERKNS_12basic_stringIcNS_11char_traitsIcEENS_9allocatorIcEEEEPj) refers (Special) to _printf_percent.o(.ARM.Collect$$_printf_percent$$00000000) for _printf_percent
    string.cpp.o(.text._ZNSt3__15stoldERKNS_12basic_stringIcNS_11char_traitsIcEENS_9allocatorIcEEEEPj) refers (Special) to _printf_u.o(.ARM.Collect$$_printf_percent$$0000000A) for _printf_u
    string.cpp.o(.text._ZNSt3__15stoldERKNS_12basic_stringIcNS_11char_traitsIcEENS_9allocatorIcEEEEPj) refers to string.cpp.o(.rodata.str1.1) for .L.str.8
    string.cpp.o(.text._ZNSt3__15stoldERKNS_12basic_stringIcNS_11char_traitsIcEENS_9allocatorIcEEEEPj) refers to rt_memcpy_v6.o(.text) for __aeabi_memcpy
    string.cpp.o(.text._ZNSt3__15stoldERKNS_12basic_stringIcNS_11char_traitsIcEENS_9allocatorIcEEEEPj) refers to rt_errno_addr_intlibspace.o(.text) for __aeabi_errno_addr
    string.cpp.o(.text._ZNSt3__15stoldERKNS_12basic_stringIcNS_11char_traitsIcEENS_9allocatorIcEEEEPj) refers to strtold.o(i.strtold) for strtold
    string.cpp.o(.text._ZNSt3__15stoldERKNS_12basic_stringIcNS_11char_traitsIcEENS_9allocatorIcEEEEPj) refers to new.cpp.o(.text._ZdlPv) for operator delete (void*)
    string.cpp.o(.text._ZNSt3__15stoldERKNS_12basic_stringIcNS_11char_traitsIcEENS_9allocatorIcEEEEPj) refers to string.cpp.o(.text._ZNSt3__1plIcNS_11char_traitsIcEENS_9allocatorIcEEEENS_12basic_stringIT_T0_T1_EERKS9_PKS6_) for std::__1::basic_string<T1, T2, T3> std::__1::operator +<char, std::__1::char_traits<char>, std::__1::allocator<char>>(const std::__1::basic_string<T1, T2, T3>&, const T1*)
    string.cpp.o(.text._ZNSt3__15stoldERKNS_12basic_stringIcNS_11char_traitsIcEENS_9allocatorIcEEEEPj) refers to cxa_exception.cpp.o(.text.__cxa_allocate_exception) for __cxa_allocate_exception
    string.cpp.o(.text._ZNSt3__15stoldERKNS_12basic_stringIcNS_11char_traitsIcEENS_9allocatorIcEEEEPj) refers to stdexcept.cpp.o(.text._ZNSt11logic_errorC2ERKNSt3__112basic_stringIcNS0_11char_traitsIcEENS0_9allocatorIcEEEE) for std::logic_error::logic_error__sub_object(const std::__1::basic_string<char, std::__1::char_traits<char>, std::__1::allocator<char>>&)
    string.cpp.o(.text._ZNSt3__15stoldERKNS_12basic_stringIcNS_11char_traitsIcEENS_9allocatorIcEEEEPj) refers to stdlib_stdexcept.cpp.o(.rodata._ZTVSt12out_of_range) for vtable for std::out_of_range
    string.cpp.o(.text._ZNSt3__15stoldERKNS_12basic_stringIcNS_11char_traitsIcEENS_9allocatorIcEEEEPj) refers to stdlib_stdexcept.cpp.o(.rodata._ZTISt12out_of_range) for typeinfo for std::out_of_range
    string.cpp.o(.text._ZNSt3__15stoldERKNS_12basic_stringIcNS_11char_traitsIcEENS_9allocatorIcEEEEPj) refers to stdlib_stdexcept.cpp.o(.text._ZNSt11logic_errorD2Ev) for std::out_of_range::~out_of_range()
    string.cpp.o(.text._ZNSt3__15stoldERKNS_12basic_stringIcNS_11char_traitsIcEENS_9allocatorIcEEEEPj) refers to cxa_exception.cpp.o(.text.__cxa_throw) for __cxa_throw
    string.cpp.o(.text._ZNSt3__15stoldERKNS_12basic_stringIcNS_11char_traitsIcEENS_9allocatorIcEEEEPj) refers to stdlib_stdexcept.cpp.o(.rodata._ZTVSt16invalid_argument) for vtable for std::invalid_argument
    string.cpp.o(.text._ZNSt3__15stoldERKNS_12basic_stringIcNS_11char_traitsIcEENS_9allocatorIcEEEEPj) refers to stdlib_stdexcept.cpp.o(.rodata._ZTISt16invalid_argument) for typeinfo for std::invalid_argument
    string.cpp.o(.text._ZNSt3__15stoldERKNS_12basic_stringIcNS_11char_traitsIcEENS_9allocatorIcEEEEPj) refers to cxa_exception.cpp.o(.text.__cxa_free_exception) for __cxa_free_exception
    string.cpp.o(.text._ZNSt3__15stoldERKNS_12basic_stringIcNS_11char_traitsIcEENS_9allocatorIcEEEEPj) refers to Unwind-EHABI.cpp.o(.text._Unwind_Resume) for _Unwind_Resume
    string.cpp.o(.ARM.extab.text._ZNSt3__15stoldERKNS_12basic_stringIcNS_11char_traitsIcEENS_9allocatorIcEEEEPj) refers (Special) to _printf_d.o(.ARM.Collect$$_printf_percent$$00000009) for _printf_d
    string.cpp.o(.ARM.extab.text._ZNSt3__15stoldERKNS_12basic_stringIcNS_11char_traitsIcEENS_9allocatorIcEEEEPj) refers (Special) to _printf_f.o(.ARM.Collect$$_printf_percent$$00000003) for _printf_f
    string.cpp.o(.ARM.extab.text._ZNSt3__15stoldERKNS_12basic_stringIcNS_11char_traitsIcEENS_9allocatorIcEEEEPj) refers (Special) to printf1.o(x$fpl$printf1) for _printf_fp_dec
    string.cpp.o(.ARM.extab.text._ZNSt3__15stoldERKNS_12basic_stringIcNS_11char_traitsIcEENS_9allocatorIcEEEEPj) refers (Special) to _printf_dec.o(.text) for _printf_int_dec
    string.cpp.o(.ARM.extab.text._ZNSt3__15stoldERKNS_12basic_stringIcNS_11char_traitsIcEENS_9allocatorIcEEEEPj) refers (Special) to _printf_lld.o(.ARM.Collect$$_printf_percent$$0000000E) for _printf_lld
    string.cpp.o(.ARM.extab.text._ZNSt3__15stoldERKNS_12basic_stringIcNS_11char_traitsIcEENS_9allocatorIcEEEEPj) refers (Special) to _printf_llu.o(.ARM.Collect$$_printf_percent$$0000000F) for _printf_llu
    string.cpp.o(.ARM.extab.text._ZNSt3__15stoldERKNS_12basic_stringIcNS_11char_traitsIcEENS_9allocatorIcEEEEPj) refers (Special) to _printf_longlong_dec.o(.text) for _printf_longlong_dec
    string.cpp.o(.ARM.extab.text._ZNSt3__15stoldERKNS_12basic_stringIcNS_11char_traitsIcEENS_9allocatorIcEEEEPj) refers (Special) to _printf_percent.o(.ARM.Collect$$_printf_percent$$00000000) for _printf_percent
    string.cpp.o(.ARM.extab.text._ZNSt3__15stoldERKNS_12basic_stringIcNS_11char_traitsIcEENS_9allocatorIcEEEEPj) refers (Special) to _printf_u.o(.ARM.Collect$$_printf_percent$$0000000A) for _printf_u
    string.cpp.o(.ARM.extab.text._ZNSt3__15stoldERKNS_12basic_stringIcNS_11char_traitsIcEENS_9allocatorIcEEEEPj) refers to cxa_personality.cpp.o(.text.__gxx_personality_v0) for __gxx_personality_v0
    string.cpp.o(.ARM.exidx.text._ZNSt3__15stoldERKNS_12basic_stringIcNS_11char_traitsIcEENS_9allocatorIcEEEEPj) refers (Special) to _printf_d.o(.ARM.Collect$$_printf_percent$$00000009) for _printf_d
    string.cpp.o(.ARM.exidx.text._ZNSt3__15stoldERKNS_12basic_stringIcNS_11char_traitsIcEENS_9allocatorIcEEEEPj) refers (Special) to _printf_f.o(.ARM.Collect$$_printf_percent$$00000003) for _printf_f
    string.cpp.o(.ARM.exidx.text._ZNSt3__15stoldERKNS_12basic_stringIcNS_11char_traitsIcEENS_9allocatorIcEEEEPj) refers (Special) to printf1.o(x$fpl$printf1) for _printf_fp_dec
    string.cpp.o(.ARM.exidx.text._ZNSt3__15stoldERKNS_12basic_stringIcNS_11char_traitsIcEENS_9allocatorIcEEEEPj) refers (Special) to _printf_dec.o(.text) for _printf_int_dec
    string.cpp.o(.ARM.exidx.text._ZNSt3__15stoldERKNS_12basic_stringIcNS_11char_traitsIcEENS_9allocatorIcEEEEPj) refers (Special) to _printf_lld.o(.ARM.Collect$$_printf_percent$$0000000E) for _printf_lld
    string.cpp.o(.ARM.exidx.text._ZNSt3__15stoldERKNS_12basic_stringIcNS_11char_traitsIcEENS_9allocatorIcEEEEPj) refers (Special) to _printf_llu.o(.ARM.Collect$$_printf_percent$$0000000F) for _printf_llu
    string.cpp.o(.ARM.exidx.text._ZNSt3__15stoldERKNS_12basic_stringIcNS_11char_traitsIcEENS_9allocatorIcEEEEPj) refers (Special) to _printf_longlong_dec.o(.text) for _printf_longlong_dec
    string.cpp.o(.ARM.exidx.text._ZNSt3__15stoldERKNS_12basic_stringIcNS_11char_traitsIcEENS_9allocatorIcEEEEPj) refers (Special) to _printf_percent.o(.ARM.Collect$$_printf_percent$$00000000) for _printf_percent
    string.cpp.o(.ARM.exidx.text._ZNSt3__15stoldERKNS_12basic_stringIcNS_11char_traitsIcEENS_9allocatorIcEEEEPj) refers (Special) to _printf_u.o(.ARM.Collect$$_printf_percent$$0000000A) for _printf_u
    string.cpp.o(.ARM.exidx.text._ZNSt3__15stoldERKNS_12basic_stringIcNS_11char_traitsIcEENS_9allocatorIcEEEEPj) refers to string.cpp.o(.text._ZNSt3__15stoldERKNS_12basic_stringIcNS_11char_traitsIcEENS_9allocatorIcEEEEPj) for [Anonymous Symbol]
    string.cpp.o(.ARM.exidx.text._ZNSt3__15stoldERKNS_12basic_stringIcNS_11char_traitsIcEENS_9allocatorIcEEEEPj) refers to string.cpp.o(.ARM.extab.text._ZNSt3__15stoldERKNS_12basic_stringIcNS_11char_traitsIcEENS_9allocatorIcEEEEPj) for [Anonymous Symbol]
    string.cpp.o(.text._ZNSt3__15stoldERKNS_12basic_stringIwNS_11char_traitsIwEENS_9allocatorIwEEEEPj) refers (Special) to _printf_d.o(.ARM.Collect$$_printf_percent$$00000009) for _printf_d
    string.cpp.o(.text._ZNSt3__15stoldERKNS_12basic_stringIwNS_11char_traitsIwEENS_9allocatorIwEEEEPj) refers (Special) to _printf_f.o(.ARM.Collect$$_printf_percent$$00000003) for _printf_f
    string.cpp.o(.text._ZNSt3__15stoldERKNS_12basic_stringIwNS_11char_traitsIwEENS_9allocatorIwEEEEPj) refers (Special) to printf1.o(x$fpl$printf1) for _printf_fp_dec
    string.cpp.o(.text._ZNSt3__15stoldERKNS_12basic_stringIwNS_11char_traitsIwEENS_9allocatorIwEEEEPj) refers (Special) to _printf_dec.o(.text) for _printf_int_dec
    string.cpp.o(.text._ZNSt3__15stoldERKNS_12basic_stringIwNS_11char_traitsIwEENS_9allocatorIwEEEEPj) refers (Special) to _printf_lld.o(.ARM.Collect$$_printf_percent$$0000000E) for _printf_lld
    string.cpp.o(.text._ZNSt3__15stoldERKNS_12basic_stringIwNS_11char_traitsIwEENS_9allocatorIwEEEEPj) refers (Special) to _printf_llu.o(.ARM.Collect$$_printf_percent$$0000000F) for _printf_llu
    string.cpp.o(.text._ZNSt3__15stoldERKNS_12basic_stringIwNS_11char_traitsIwEENS_9allocatorIwEEEEPj) refers (Special) to _printf_longlong_dec.o(.text) for _printf_longlong_dec
    string.cpp.o(.text._ZNSt3__15stoldERKNS_12basic_stringIwNS_11char_traitsIwEENS_9allocatorIwEEEEPj) refers (Special) to _printf_percent.o(.ARM.Collect$$_printf_percent$$00000000) for _printf_percent
    string.cpp.o(.text._ZNSt3__15stoldERKNS_12basic_stringIwNS_11char_traitsIwEENS_9allocatorIwEEEEPj) refers (Special) to _printf_u.o(.ARM.Collect$$_printf_percent$$0000000A) for _printf_u
    string.cpp.o(.text._ZNSt3__15stoldERKNS_12basic_stringIwNS_11char_traitsIwEENS_9allocatorIwEEEEPj) refers to string.cpp.o(.rodata.str1.1) for .L.str.8
    string.cpp.o(.text._ZNSt3__15stoldERKNS_12basic_stringIwNS_11char_traitsIwEENS_9allocatorIwEEEEPj) refers to rt_memcpy_v6.o(.text) for __aeabi_memcpy
    string.cpp.o(.text._ZNSt3__15stoldERKNS_12basic_stringIwNS_11char_traitsIwEENS_9allocatorIwEEEEPj) refers to rt_errno_addr_intlibspace.o(.text) for __aeabi_errno_addr
    string.cpp.o(.text._ZNSt3__15stoldERKNS_12basic_stringIwNS_11char_traitsIwEENS_9allocatorIwEEEEPj) refers to wcstold.o(i.wcstold) for wcstold
    string.cpp.o(.text._ZNSt3__15stoldERKNS_12basic_stringIwNS_11char_traitsIwEENS_9allocatorIwEEEEPj) refers to new.cpp.o(.text._ZdlPv) for operator delete (void*)
    string.cpp.o(.text._ZNSt3__15stoldERKNS_12basic_stringIwNS_11char_traitsIwEENS_9allocatorIwEEEEPj) refers to string.cpp.o(.text._ZNSt3__1plIcNS_11char_traitsIcEENS_9allocatorIcEEEENS_12basic_stringIT_T0_T1_EERKS9_PKS6_) for std::__1::basic_string<T1, T2, T3> std::__1::operator +<char, std::__1::char_traits<char>, std::__1::allocator<char>>(const std::__1::basic_string<T1, T2, T3>&, const T1*)
    string.cpp.o(.text._ZNSt3__15stoldERKNS_12basic_stringIwNS_11char_traitsIwEENS_9allocatorIwEEEEPj) refers to cxa_exception.cpp.o(.text.__cxa_allocate_exception) for __cxa_allocate_exception
    string.cpp.o(.text._ZNSt3__15stoldERKNS_12basic_stringIwNS_11char_traitsIwEENS_9allocatorIwEEEEPj) refers to stdexcept.cpp.o(.text._ZNSt11logic_errorC2ERKNSt3__112basic_stringIcNS0_11char_traitsIcEENS0_9allocatorIcEEEE) for std::logic_error::logic_error__sub_object(const std::__1::basic_string<char, std::__1::char_traits<char>, std::__1::allocator<char>>&)
    string.cpp.o(.text._ZNSt3__15stoldERKNS_12basic_stringIwNS_11char_traitsIwEENS_9allocatorIwEEEEPj) refers to stdlib_stdexcept.cpp.o(.rodata._ZTVSt12out_of_range) for vtable for std::out_of_range
    string.cpp.o(.text._ZNSt3__15stoldERKNS_12basic_stringIwNS_11char_traitsIwEENS_9allocatorIwEEEEPj) refers to stdlib_stdexcept.cpp.o(.rodata._ZTISt12out_of_range) for typeinfo for std::out_of_range
    string.cpp.o(.text._ZNSt3__15stoldERKNS_12basic_stringIwNS_11char_traitsIwEENS_9allocatorIwEEEEPj) refers to stdlib_stdexcept.cpp.o(.text._ZNSt11logic_errorD2Ev) for std::out_of_range::~out_of_range()
    string.cpp.o(.text._ZNSt3__15stoldERKNS_12basic_stringIwNS_11char_traitsIwEENS_9allocatorIwEEEEPj) refers to cxa_exception.cpp.o(.text.__cxa_throw) for __cxa_throw
    string.cpp.o(.text._ZNSt3__15stoldERKNS_12basic_stringIwNS_11char_traitsIwEENS_9allocatorIwEEEEPj) refers to stdlib_stdexcept.cpp.o(.rodata._ZTVSt16invalid_argument) for vtable for std::invalid_argument
    string.cpp.o(.text._ZNSt3__15stoldERKNS_12basic_stringIwNS_11char_traitsIwEENS_9allocatorIwEEEEPj) refers to stdlib_stdexcept.cpp.o(.rodata._ZTISt16invalid_argument) for typeinfo for std::invalid_argument
    string.cpp.o(.text._ZNSt3__15stoldERKNS_12basic_stringIwNS_11char_traitsIwEENS_9allocatorIwEEEEPj) refers to cxa_exception.cpp.o(.text.__cxa_free_exception) for __cxa_free_exception
    string.cpp.o(.text._ZNSt3__15stoldERKNS_12basic_stringIwNS_11char_traitsIwEENS_9allocatorIwEEEEPj) refers to Unwind-EHABI.cpp.o(.text._Unwind_Resume) for _Unwind_Resume
    string.cpp.o(.ARM.extab.text._ZNSt3__15stoldERKNS_12basic_stringIwNS_11char_traitsIwEENS_9allocatorIwEEEEPj) refers (Special) to _printf_d.o(.ARM.Collect$$_printf_percent$$00000009) for _printf_d
    string.cpp.o(.ARM.extab.text._ZNSt3__15stoldERKNS_12basic_stringIwNS_11char_traitsIwEENS_9allocatorIwEEEEPj) refers (Special) to _printf_f.o(.ARM.Collect$$_printf_percent$$00000003) for _printf_f
    string.cpp.o(.ARM.extab.text._ZNSt3__15stoldERKNS_12basic_stringIwNS_11char_traitsIwEENS_9allocatorIwEEEEPj) refers (Special) to printf1.o(x$fpl$printf1) for _printf_fp_dec
    string.cpp.o(.ARM.extab.text._ZNSt3__15stoldERKNS_12basic_stringIwNS_11char_traitsIwEENS_9allocatorIwEEEEPj) refers (Special) to _printf_dec.o(.text) for _printf_int_dec
    string.cpp.o(.ARM.extab.text._ZNSt3__15stoldERKNS_12basic_stringIwNS_11char_traitsIwEENS_9allocatorIwEEEEPj) refers (Special) to _printf_lld.o(.ARM.Collect$$_printf_percent$$0000000E) for _printf_lld
    string.cpp.o(.ARM.extab.text._ZNSt3__15stoldERKNS_12basic_stringIwNS_11char_traitsIwEENS_9allocatorIwEEEEPj) refers (Special) to _printf_llu.o(.ARM.Collect$$_printf_percent$$0000000F) for _printf_llu
    string.cpp.o(.ARM.extab.text._ZNSt3__15stoldERKNS_12basic_stringIwNS_11char_traitsIwEENS_9allocatorIwEEEEPj) refers (Special) to _printf_longlong_dec.o(.text) for _printf_longlong_dec
    string.cpp.o(.ARM.extab.text._ZNSt3__15stoldERKNS_12basic_stringIwNS_11char_traitsIwEENS_9allocatorIwEEEEPj) refers (Special) to _printf_percent.o(.ARM.Collect$$_printf_percent$$00000000) for _printf_percent
    string.cpp.o(.ARM.extab.text._ZNSt3__15stoldERKNS_12basic_stringIwNS_11char_traitsIwEENS_9allocatorIwEEEEPj) refers (Special) to _printf_u.o(.ARM.Collect$$_printf_percent$$0000000A) for _printf_u
    string.cpp.o(.ARM.extab.text._ZNSt3__15stoldERKNS_12basic_stringIwNS_11char_traitsIwEENS_9allocatorIwEEEEPj) refers to cxa_personality.cpp.o(.text.__gxx_personality_v0) for __gxx_personality_v0
    string.cpp.o(.ARM.exidx.text._ZNSt3__15stoldERKNS_12basic_stringIwNS_11char_traitsIwEENS_9allocatorIwEEEEPj) refers (Special) to _printf_d.o(.ARM.Collect$$_printf_percent$$00000009) for _printf_d
    string.cpp.o(.ARM.exidx.text._ZNSt3__15stoldERKNS_12basic_stringIwNS_11char_traitsIwEENS_9allocatorIwEEEEPj) refers (Special) to _printf_f.o(.ARM.Collect$$_printf_percent$$00000003) for _printf_f
    string.cpp.o(.ARM.exidx.text._ZNSt3__15stoldERKNS_12basic_stringIwNS_11char_traitsIwEENS_9allocatorIwEEEEPj) refers (Special) to printf1.o(x$fpl$printf1) for _printf_fp_dec
    string.cpp.o(.ARM.exidx.text._ZNSt3__15stoldERKNS_12basic_stringIwNS_11char_traitsIwEENS_9allocatorIwEEEEPj) refers (Special) to _printf_dec.o(.text) for _printf_int_dec
    string.cpp.o(.ARM.exidx.text._ZNSt3__15stoldERKNS_12basic_stringIwNS_11char_traitsIwEENS_9allocatorIwEEEEPj) refers (Special) to _printf_lld.o(.ARM.Collect$$_printf_percent$$0000000E) for _printf_lld
    string.cpp.o(.ARM.exidx.text._ZNSt3__15stoldERKNS_12basic_stringIwNS_11char_traitsIwEENS_9allocatorIwEEEEPj) refers (Special) to _printf_llu.o(.ARM.Collect$$_printf_percent$$0000000F) for _printf_llu
    string.cpp.o(.ARM.exidx.text._ZNSt3__15stoldERKNS_12basic_stringIwNS_11char_traitsIwEENS_9allocatorIwEEEEPj) refers (Special) to _printf_longlong_dec.o(.text) for _printf_longlong_dec
    string.cpp.o(.ARM.exidx.text._ZNSt3__15stoldERKNS_12basic_stringIwNS_11char_traitsIwEENS_9allocatorIwEEEEPj) refers (Special) to _printf_percent.o(.ARM.Collect$$_printf_percent$$00000000) for _printf_percent
    string.cpp.o(.ARM.exidx.text._ZNSt3__15stoldERKNS_12basic_stringIwNS_11char_traitsIwEENS_9allocatorIwEEEEPj) refers (Special) to _printf_u.o(.ARM.Collect$$_printf_percent$$0000000A) for _printf_u
    string.cpp.o(.ARM.exidx.text._ZNSt3__15stoldERKNS_12basic_stringIwNS_11char_traitsIwEENS_9allocatorIwEEEEPj) refers to string.cpp.o(.text._ZNSt3__15stoldERKNS_12basic_stringIwNS_11char_traitsIwEENS_9allocatorIwEEEEPj) for [Anonymous Symbol]
    string.cpp.o(.ARM.exidx.text._ZNSt3__15stoldERKNS_12basic_stringIwNS_11char_traitsIwEENS_9allocatorIwEEEEPj) refers to string.cpp.o(.ARM.extab.text._ZNSt3__15stoldERKNS_12basic_stringIwNS_11char_traitsIwEENS_9allocatorIwEEEEPj) for [Anonymous Symbol]
    string.cpp.o(.text._ZNSt3__19to_stringEi) refers (Special) to _printf_d.o(.ARM.Collect$$_printf_percent$$00000009) for _printf_d
    string.cpp.o(.text._ZNSt3__19to_stringEi) refers (Special) to _printf_f.o(.ARM.Collect$$_printf_percent$$00000003) for _printf_f
    string.cpp.o(.text._ZNSt3__19to_stringEi) refers (Special) to printf1.o(x$fpl$printf1) for _printf_fp_dec
    string.cpp.o(.text._ZNSt3__19to_stringEi) refers (Special) to _printf_dec.o(.text) for _printf_int_dec
    string.cpp.o(.text._ZNSt3__19to_stringEi) refers (Special) to _printf_lld.o(.ARM.Collect$$_printf_percent$$0000000E) for _printf_lld
    string.cpp.o(.text._ZNSt3__19to_stringEi) refers (Special) to _printf_llu.o(.ARM.Collect$$_printf_percent$$0000000F) for _printf_llu
    string.cpp.o(.text._ZNSt3__19to_stringEi) refers (Special) to _printf_longlong_dec.o(.text) for _printf_longlong_dec
    string.cpp.o(.text._ZNSt3__19to_stringEi) refers (Special) to _printf_percent.o(.ARM.Collect$$_printf_percent$$00000000) for _printf_percent
    string.cpp.o(.text._ZNSt3__19to_stringEi) refers (Special) to _printf_u.o(.ARM.Collect$$_printf_percent$$0000000A) for _printf_u
    string.cpp.o(.text._ZNSt3__19to_stringEi) refers to string.cpp.o(.text._ZNSt3__112basic_stringIcNS_11char_traitsIcEENS_9allocatorIcEEE6resizeEjc) for std::__1::basic_string<char, std::__1::char_traits<char>, std::__1::allocator<char>>::resize(unsigned, char)
    string.cpp.o(.text._ZNSt3__19to_stringEi) refers to __2snprintf.o(.text) for __2snprintf
    string.cpp.o(.text._ZNSt3__19to_stringEi) refers to new.cpp.o(.text._ZdlPv) for operator delete (void*)
    string.cpp.o(.text._ZNSt3__19to_stringEi) refers to Unwind-EHABI.cpp.o(.text._Unwind_Resume) for _Unwind_Resume
    string.cpp.o(.ARM.extab.text._ZNSt3__19to_stringEi) refers (Special) to _printf_d.o(.ARM.Collect$$_printf_percent$$00000009) for _printf_d
    string.cpp.o(.ARM.extab.text._ZNSt3__19to_stringEi) refers (Special) to _printf_f.o(.ARM.Collect$$_printf_percent$$00000003) for _printf_f
    string.cpp.o(.ARM.extab.text._ZNSt3__19to_stringEi) refers (Special) to printf1.o(x$fpl$printf1) for _printf_fp_dec
    string.cpp.o(.ARM.extab.text._ZNSt3__19to_stringEi) refers (Special) to _printf_dec.o(.text) for _printf_int_dec
    string.cpp.o(.ARM.extab.text._ZNSt3__19to_stringEi) refers (Special) to _printf_lld.o(.ARM.Collect$$_printf_percent$$0000000E) for _printf_lld
    string.cpp.o(.ARM.extab.text._ZNSt3__19to_stringEi) refers (Special) to _printf_llu.o(.ARM.Collect$$_printf_percent$$0000000F) for _printf_llu
    string.cpp.o(.ARM.extab.text._ZNSt3__19to_stringEi) refers (Special) to _printf_longlong_dec.o(.text) for _printf_longlong_dec
    string.cpp.o(.ARM.extab.text._ZNSt3__19to_stringEi) refers (Special) to _printf_percent.o(.ARM.Collect$$_printf_percent$$00000000) for _printf_percent
    string.cpp.o(.ARM.extab.text._ZNSt3__19to_stringEi) refers (Special) to _printf_u.o(.ARM.Collect$$_printf_percent$$0000000A) for _printf_u
    string.cpp.o(.ARM.extab.text._ZNSt3__19to_stringEi) refers to cxa_personality.cpp.o(.text.__gxx_personality_v0) for __gxx_personality_v0
    string.cpp.o(.ARM.exidx.text._ZNSt3__19to_stringEi) refers (Special) to _printf_d.o(.ARM.Collect$$_printf_percent$$00000009) for _printf_d
    string.cpp.o(.ARM.exidx.text._ZNSt3__19to_stringEi) refers (Special) to _printf_f.o(.ARM.Collect$$_printf_percent$$00000003) for _printf_f
    string.cpp.o(.ARM.exidx.text._ZNSt3__19to_stringEi) refers (Special) to printf1.o(x$fpl$printf1) for _printf_fp_dec
    string.cpp.o(.ARM.exidx.text._ZNSt3__19to_stringEi) refers (Special) to _printf_dec.o(.text) for _printf_int_dec
    string.cpp.o(.ARM.exidx.text._ZNSt3__19to_stringEi) refers (Special) to _printf_lld.o(.ARM.Collect$$_printf_percent$$0000000E) for _printf_lld
    string.cpp.o(.ARM.exidx.text._ZNSt3__19to_stringEi) refers (Special) to _printf_llu.o(.ARM.Collect$$_printf_percent$$0000000F) for _printf_llu
    string.cpp.o(.ARM.exidx.text._ZNSt3__19to_stringEi) refers (Special) to _printf_longlong_dec.o(.text) for _printf_longlong_dec
    string.cpp.o(.ARM.exidx.text._ZNSt3__19to_stringEi) refers (Special) to _printf_percent.o(.ARM.Collect$$_printf_percent$$00000000) for _printf_percent
    string.cpp.o(.ARM.exidx.text._ZNSt3__19to_stringEi) refers (Special) to _printf_u.o(.ARM.Collect$$_printf_percent$$0000000A) for _printf_u
    string.cpp.o(.ARM.exidx.text._ZNSt3__19to_stringEi) refers to string.cpp.o(.text._ZNSt3__19to_stringEi) for [Anonymous Symbol]
    string.cpp.o(.ARM.exidx.text._ZNSt3__19to_stringEi) refers to string.cpp.o(.ARM.extab.text._ZNSt3__19to_stringEi) for [Anonymous Symbol]
    string.cpp.o(.text._ZNSt3__19to_stringEj) refers (Special) to _printf_d.o(.ARM.Collect$$_printf_percent$$00000009) for _printf_d
    string.cpp.o(.text._ZNSt3__19to_stringEj) refers (Special) to _printf_f.o(.ARM.Collect$$_printf_percent$$00000003) for _printf_f
    string.cpp.o(.text._ZNSt3__19to_stringEj) refers (Special) to printf1.o(x$fpl$printf1) for _printf_fp_dec
    string.cpp.o(.text._ZNSt3__19to_stringEj) refers (Special) to _printf_dec.o(.text) for _printf_int_dec
    string.cpp.o(.text._ZNSt3__19to_stringEj) refers (Special) to _printf_lld.o(.ARM.Collect$$_printf_percent$$0000000E) for _printf_lld
    string.cpp.o(.text._ZNSt3__19to_stringEj) refers (Special) to _printf_llu.o(.ARM.Collect$$_printf_percent$$0000000F) for _printf_llu
    string.cpp.o(.text._ZNSt3__19to_stringEj) refers (Special) to _printf_longlong_dec.o(.text) for _printf_longlong_dec
    string.cpp.o(.text._ZNSt3__19to_stringEj) refers (Special) to _printf_percent.o(.ARM.Collect$$_printf_percent$$00000000) for _printf_percent
    string.cpp.o(.text._ZNSt3__19to_stringEj) refers (Special) to _printf_u.o(.ARM.Collect$$_printf_percent$$0000000A) for _printf_u
    string.cpp.o(.text._ZNSt3__19to_stringEj) refers to string.cpp.o(.text._ZNSt3__112basic_stringIcNS_11char_traitsIcEENS_9allocatorIcEEE6resizeEjc) for std::__1::basic_string<char, std::__1::char_traits<char>, std::__1::allocator<char>>::resize(unsigned, char)
    string.cpp.o(.text._ZNSt3__19to_stringEj) refers to __2snprintf.o(.text) for __2snprintf
    string.cpp.o(.text._ZNSt3__19to_stringEj) refers to new.cpp.o(.text._ZdlPv) for operator delete (void*)
    string.cpp.o(.text._ZNSt3__19to_stringEj) refers to Unwind-EHABI.cpp.o(.text._Unwind_Resume) for _Unwind_Resume
    string.cpp.o(.ARM.extab.text._ZNSt3__19to_stringEj) refers (Special) to _printf_d.o(.ARM.Collect$$_printf_percent$$00000009) for _printf_d
    string.cpp.o(.ARM.extab.text._ZNSt3__19to_stringEj) refers (Special) to _printf_f.o(.ARM.Collect$$_printf_percent$$00000003) for _printf_f
    string.cpp.o(.ARM.extab.text._ZNSt3__19to_stringEj) refers (Special) to printf1.o(x$fpl$printf1) for _printf_fp_dec
    string.cpp.o(.ARM.extab.text._ZNSt3__19to_stringEj) refers (Special) to _printf_dec.o(.text) for _printf_int_dec
    string.cpp.o(.ARM.extab.text._ZNSt3__19to_stringEj) refers (Special) to _printf_lld.o(.ARM.Collect$$_printf_percent$$0000000E) for _printf_lld
    string.cpp.o(.ARM.extab.text._ZNSt3__19to_stringEj) refers (Special) to _printf_llu.o(.ARM.Collect$$_printf_percent$$0000000F) for _printf_llu
    string.cpp.o(.ARM.extab.text._ZNSt3__19to_stringEj) refers (Special) to _printf_longlong_dec.o(.text) for _printf_longlong_dec
    string.cpp.o(.ARM.extab.text._ZNSt3__19to_stringEj) refers (Special) to _printf_percent.o(.ARM.Collect$$_printf_percent$$00000000) for _printf_percent
    string.cpp.o(.ARM.extab.text._ZNSt3__19to_stringEj) refers (Special) to _printf_u.o(.ARM.Collect$$_printf_percent$$0000000A) for _printf_u
    string.cpp.o(.ARM.extab.text._ZNSt3__19to_stringEj) refers to cxa_personality.cpp.o(.text.__gxx_personality_v0) for __gxx_personality_v0
    string.cpp.o(.ARM.exidx.text._ZNSt3__19to_stringEj) refers (Special) to _printf_d.o(.ARM.Collect$$_printf_percent$$00000009) for _printf_d
    string.cpp.o(.ARM.exidx.text._ZNSt3__19to_stringEj) refers (Special) to _printf_f.o(.ARM.Collect$$_printf_percent$$00000003) for _printf_f
    string.cpp.o(.ARM.exidx.text._ZNSt3__19to_stringEj) refers (Special) to printf1.o(x$fpl$printf1) for _printf_fp_dec
    string.cpp.o(.ARM.exidx.text._ZNSt3__19to_stringEj) refers (Special) to _printf_dec.o(.text) for _printf_int_dec
    string.cpp.o(.ARM.exidx.text._ZNSt3__19to_stringEj) refers (Special) to _printf_lld.o(.ARM.Collect$$_printf_percent$$0000000E) for _printf_lld
    string.cpp.o(.ARM.exidx.text._ZNSt3__19to_stringEj) refers (Special) to _printf_llu.o(.ARM.Collect$$_printf_percent$$0000000F) for _printf_llu
    string.cpp.o(.ARM.exidx.text._ZNSt3__19to_stringEj) refers (Special) to _printf_longlong_dec.o(.text) for _printf_longlong_dec
    string.cpp.o(.ARM.exidx.text._ZNSt3__19to_stringEj) refers (Special) to _printf_percent.o(.ARM.Collect$$_printf_percent$$00000000) for _printf_percent
    string.cpp.o(.ARM.exidx.text._ZNSt3__19to_stringEj) refers (Special) to _printf_u.o(.ARM.Collect$$_printf_percent$$0000000A) for _printf_u
    string.cpp.o(.ARM.exidx.text._ZNSt3__19to_stringEj) refers to string.cpp.o(.text._ZNSt3__19to_stringEj) for [Anonymous Symbol]
    string.cpp.o(.ARM.exidx.text._ZNSt3__19to_stringEj) refers to string.cpp.o(.ARM.extab.text._ZNSt3__19to_stringEj) for [Anonymous Symbol]
    string.cpp.o(.text._ZNSt3__19to_stringEl) refers (Special) to _printf_d.o(.ARM.Collect$$_printf_percent$$00000009) for _printf_d
    string.cpp.o(.text._ZNSt3__19to_stringEl) refers (Special) to _printf_f.o(.ARM.Collect$$_printf_percent$$00000003) for _printf_f
    string.cpp.o(.text._ZNSt3__19to_stringEl) refers (Special) to printf1.o(x$fpl$printf1) for _printf_fp_dec
    string.cpp.o(.text._ZNSt3__19to_stringEl) refers (Special) to _printf_dec.o(.text) for _printf_int_dec
    string.cpp.o(.text._ZNSt3__19to_stringEl) refers (Special) to _printf_lld.o(.ARM.Collect$$_printf_percent$$0000000E) for _printf_lld
    string.cpp.o(.text._ZNSt3__19to_stringEl) refers (Special) to _printf_llu.o(.ARM.Collect$$_printf_percent$$0000000F) for _printf_llu
    string.cpp.o(.text._ZNSt3__19to_stringEl) refers (Special) to _printf_longlong_dec.o(.text) for _printf_longlong_dec
    string.cpp.o(.text._ZNSt3__19to_stringEl) refers (Special) to _printf_percent.o(.ARM.Collect$$_printf_percent$$00000000) for _printf_percent
    string.cpp.o(.text._ZNSt3__19to_stringEl) refers (Special) to _printf_u.o(.ARM.Collect$$_printf_percent$$0000000A) for _printf_u
    string.cpp.o(.text._ZNSt3__19to_stringEl) refers to string.cpp.o(.text._ZNSt3__112basic_stringIcNS_11char_traitsIcEENS_9allocatorIcEEE6resizeEjc) for std::__1::basic_string<char, std::__1::char_traits<char>, std::__1::allocator<char>>::resize(unsigned, char)
    string.cpp.o(.text._ZNSt3__19to_stringEl) refers to __2snprintf.o(.text) for __2snprintf
    string.cpp.o(.text._ZNSt3__19to_stringEl) refers to new.cpp.o(.text._ZdlPv) for operator delete (void*)
    string.cpp.o(.text._ZNSt3__19to_stringEl) refers to Unwind-EHABI.cpp.o(.text._Unwind_Resume) for _Unwind_Resume
    string.cpp.o(.ARM.extab.text._ZNSt3__19to_stringEl) refers (Special) to _printf_d.o(.ARM.Collect$$_printf_percent$$00000009) for _printf_d
    string.cpp.o(.ARM.extab.text._ZNSt3__19to_stringEl) refers (Special) to _printf_f.o(.ARM.Collect$$_printf_percent$$00000003) for _printf_f
    string.cpp.o(.ARM.extab.text._ZNSt3__19to_stringEl) refers (Special) to printf1.o(x$fpl$printf1) for _printf_fp_dec
    string.cpp.o(.ARM.extab.text._ZNSt3__19to_stringEl) refers (Special) to _printf_dec.o(.text) for _printf_int_dec
    string.cpp.o(.ARM.extab.text._ZNSt3__19to_stringEl) refers (Special) to _printf_lld.o(.ARM.Collect$$_printf_percent$$0000000E) for _printf_lld
    string.cpp.o(.ARM.extab.text._ZNSt3__19to_stringEl) refers (Special) to _printf_llu.o(.ARM.Collect$$_printf_percent$$0000000F) for _printf_llu
    string.cpp.o(.ARM.extab.text._ZNSt3__19to_stringEl) refers (Special) to _printf_longlong_dec.o(.text) for _printf_longlong_dec
    string.cpp.o(.ARM.extab.text._ZNSt3__19to_stringEl) refers (Special) to _printf_percent.o(.ARM.Collect$$_printf_percent$$00000000) for _printf_percent
    string.cpp.o(.ARM.extab.text._ZNSt3__19to_stringEl) refers (Special) to _printf_u.o(.ARM.Collect$$_printf_percent$$0000000A) for _printf_u
    string.cpp.o(.ARM.extab.text._ZNSt3__19to_stringEl) refers to cxa_personality.cpp.o(.text.__gxx_personality_v0) for __gxx_personality_v0
    string.cpp.o(.ARM.exidx.text._ZNSt3__19to_stringEl) refers (Special) to _printf_d.o(.ARM.Collect$$_printf_percent$$00000009) for _printf_d
    string.cpp.o(.ARM.exidx.text._ZNSt3__19to_stringEl) refers (Special) to _printf_f.o(.ARM.Collect$$_printf_percent$$00000003) for _printf_f
    string.cpp.o(.ARM.exidx.text._ZNSt3__19to_stringEl) refers (Special) to printf1.o(x$fpl$printf1) for _printf_fp_dec
    string.cpp.o(.ARM.exidx.text._ZNSt3__19to_stringEl) refers (Special) to _printf_dec.o(.text) for _printf_int_dec
    string.cpp.o(.ARM.exidx.text._ZNSt3__19to_stringEl) refers (Special) to _printf_lld.o(.ARM.Collect$$_printf_percent$$0000000E) for _printf_lld
    string.cpp.o(.ARM.exidx.text._ZNSt3__19to_stringEl) refers (Special) to _printf_llu.o(.ARM.Collect$$_printf_percent$$0000000F) for _printf_llu
    string.cpp.o(.ARM.exidx.text._ZNSt3__19to_stringEl) refers (Special) to _printf_longlong_dec.o(.text) for _printf_longlong_dec
    string.cpp.o(.ARM.exidx.text._ZNSt3__19to_stringEl) refers (Special) to _printf_percent.o(.ARM.Collect$$_printf_percent$$00000000) for _printf_percent
    string.cpp.o(.ARM.exidx.text._ZNSt3__19to_stringEl) refers (Special) to _printf_u.o(.ARM.Collect$$_printf_percent$$0000000A) for _printf_u
    string.cpp.o(.ARM.exidx.text._ZNSt3__19to_stringEl) refers to string.cpp.o(.text._ZNSt3__19to_stringEl) for [Anonymous Symbol]
    string.cpp.o(.ARM.exidx.text._ZNSt3__19to_stringEl) refers to string.cpp.o(.ARM.extab.text._ZNSt3__19to_stringEl) for [Anonymous Symbol]
    string.cpp.o(.text._ZNSt3__19to_stringEm) refers (Special) to _printf_d.o(.ARM.Collect$$_printf_percent$$00000009) for _printf_d
    string.cpp.o(.text._ZNSt3__19to_stringEm) refers (Special) to _printf_f.o(.ARM.Collect$$_printf_percent$$00000003) for _printf_f
    string.cpp.o(.text._ZNSt3__19to_stringEm) refers (Special) to printf1.o(x$fpl$printf1) for _printf_fp_dec
    string.cpp.o(.text._ZNSt3__19to_stringEm) refers (Special) to _printf_dec.o(.text) for _printf_int_dec
    string.cpp.o(.text._ZNSt3__19to_stringEm) refers (Special) to _printf_lld.o(.ARM.Collect$$_printf_percent$$0000000E) for _printf_lld
    string.cpp.o(.text._ZNSt3__19to_stringEm) refers (Special) to _printf_llu.o(.ARM.Collect$$_printf_percent$$0000000F) for _printf_llu
    string.cpp.o(.text._ZNSt3__19to_stringEm) refers (Special) to _printf_longlong_dec.o(.text) for _printf_longlong_dec
    string.cpp.o(.text._ZNSt3__19to_stringEm) refers (Special) to _printf_percent.o(.ARM.Collect$$_printf_percent$$00000000) for _printf_percent
    string.cpp.o(.text._ZNSt3__19to_stringEm) refers (Special) to _printf_u.o(.ARM.Collect$$_printf_percent$$0000000A) for _printf_u
    string.cpp.o(.text._ZNSt3__19to_stringEm) refers to string.cpp.o(.text._ZNSt3__112basic_stringIcNS_11char_traitsIcEENS_9allocatorIcEEE6resizeEjc) for std::__1::basic_string<char, std::__1::char_traits<char>, std::__1::allocator<char>>::resize(unsigned, char)
    string.cpp.o(.text._ZNSt3__19to_stringEm) refers to __2snprintf.o(.text) for __2snprintf
    string.cpp.o(.text._ZNSt3__19to_stringEm) refers to new.cpp.o(.text._ZdlPv) for operator delete (void*)
    string.cpp.o(.text._ZNSt3__19to_stringEm) refers to Unwind-EHABI.cpp.o(.text._Unwind_Resume) for _Unwind_Resume
    string.cpp.o(.ARM.extab.text._ZNSt3__19to_stringEm) refers (Special) to _printf_d.o(.ARM.Collect$$_printf_percent$$00000009) for _printf_d
    string.cpp.o(.ARM.extab.text._ZNSt3__19to_stringEm) refers (Special) to _printf_f.o(.ARM.Collect$$_printf_percent$$00000003) for _printf_f
    string.cpp.o(.ARM.extab.text._ZNSt3__19to_stringEm) refers (Special) to printf1.o(x$fpl$printf1) for _printf_fp_dec
    string.cpp.o(.ARM.extab.text._ZNSt3__19to_stringEm) refers (Special) to _printf_dec.o(.text) for _printf_int_dec
    string.cpp.o(.ARM.extab.text._ZNSt3__19to_stringEm) refers (Special) to _printf_lld.o(.ARM.Collect$$_printf_percent$$0000000E) for _printf_lld
    string.cpp.o(.ARM.extab.text._ZNSt3__19to_stringEm) refers (Special) to _printf_llu.o(.ARM.Collect$$_printf_percent$$0000000F) for _printf_llu
    string.cpp.o(.ARM.extab.text._ZNSt3__19to_stringEm) refers (Special) to _printf_longlong_dec.o(.text) for _printf_longlong_dec
    string.cpp.o(.ARM.extab.text._ZNSt3__19to_stringEm) refers (Special) to _printf_percent.o(.ARM.Collect$$_printf_percent$$00000000) for _printf_percent
    string.cpp.o(.ARM.extab.text._ZNSt3__19to_stringEm) refers (Special) to _printf_u.o(.ARM.Collect$$_printf_percent$$0000000A) for _printf_u
    string.cpp.o(.ARM.extab.text._ZNSt3__19to_stringEm) refers to cxa_personality.cpp.o(.text.__gxx_personality_v0) for __gxx_personality_v0
    string.cpp.o(.ARM.exidx.text._ZNSt3__19to_stringEm) refers (Special) to _printf_d.o(.ARM.Collect$$_printf_percent$$00000009) for _printf_d
    string.cpp.o(.ARM.exidx.text._ZNSt3__19to_stringEm) refers (Special) to _printf_f.o(.ARM.Collect$$_printf_percent$$00000003) for _printf_f
    string.cpp.o(.ARM.exidx.text._ZNSt3__19to_stringEm) refers (Special) to printf1.o(x$fpl$printf1) for _printf_fp_dec
    string.cpp.o(.ARM.exidx.text._ZNSt3__19to_stringEm) refers (Special) to _printf_dec.o(.text) for _printf_int_dec
    string.cpp.o(.ARM.exidx.text._ZNSt3__19to_stringEm) refers (Special) to _printf_lld.o(.ARM.Collect$$_printf_percent$$0000000E) for _printf_lld
    string.cpp.o(.ARM.exidx.text._ZNSt3__19to_stringEm) refers (Special) to _printf_llu.o(.ARM.Collect$$_printf_percent$$0000000F) for _printf_llu
    string.cpp.o(.ARM.exidx.text._ZNSt3__19to_stringEm) refers (Special) to _printf_longlong_dec.o(.text) for _printf_longlong_dec
    string.cpp.o(.ARM.exidx.text._ZNSt3__19to_stringEm) refers (Special) to _printf_percent.o(.ARM.Collect$$_printf_percent$$00000000) for _printf_percent
    string.cpp.o(.ARM.exidx.text._ZNSt3__19to_stringEm) refers (Special) to _printf_u.o(.ARM.Collect$$_printf_percent$$0000000A) for _printf_u
    string.cpp.o(.ARM.exidx.text._ZNSt3__19to_stringEm) refers to string.cpp.o(.text._ZNSt3__19to_stringEm) for [Anonymous Symbol]
    string.cpp.o(.ARM.exidx.text._ZNSt3__19to_stringEm) refers to string.cpp.o(.ARM.extab.text._ZNSt3__19to_stringEm) for [Anonymous Symbol]
    string.cpp.o(.text._ZNSt3__19to_stringEx) refers (Special) to _printf_d.o(.ARM.Collect$$_printf_percent$$00000009) for _printf_d
    string.cpp.o(.text._ZNSt3__19to_stringEx) refers (Special) to _printf_f.o(.ARM.Collect$$_printf_percent$$00000003) for _printf_f
    string.cpp.o(.text._ZNSt3__19to_stringEx) refers (Special) to printf1.o(x$fpl$printf1) for _printf_fp_dec
    string.cpp.o(.text._ZNSt3__19to_stringEx) refers (Special) to _printf_dec.o(.text) for _printf_int_dec
    string.cpp.o(.text._ZNSt3__19to_stringEx) refers (Special) to _printf_lld.o(.ARM.Collect$$_printf_percent$$0000000E) for _printf_lld
    string.cpp.o(.text._ZNSt3__19to_stringEx) refers (Special) to _printf_llu.o(.ARM.Collect$$_printf_percent$$0000000F) for _printf_llu
    string.cpp.o(.text._ZNSt3__19to_stringEx) refers (Special) to _printf_longlong_dec.o(.text) for _printf_longlong_dec
    string.cpp.o(.text._ZNSt3__19to_stringEx) refers (Special) to _printf_percent.o(.ARM.Collect$$_printf_percent$$00000000) for _printf_percent
    string.cpp.o(.text._ZNSt3__19to_stringEx) refers (Special) to _printf_u.o(.ARM.Collect$$_printf_percent$$0000000A) for _printf_u
    string.cpp.o(.text._ZNSt3__19to_stringEx) refers to string.cpp.o(.text._ZNSt3__112basic_stringIcNS_11char_traitsIcEENS_9allocatorIcEEE6resizeEjc) for std::__1::basic_string<char, std::__1::char_traits<char>, std::__1::allocator<char>>::resize(unsigned, char)
    string.cpp.o(.text._ZNSt3__19to_stringEx) refers to __2snprintf.o(.text) for __2snprintf
    string.cpp.o(.text._ZNSt3__19to_stringEx) refers to new.cpp.o(.text._ZdlPv) for operator delete (void*)
    string.cpp.o(.text._ZNSt3__19to_stringEx) refers to Unwind-EHABI.cpp.o(.text._Unwind_Resume) for _Unwind_Resume
    string.cpp.o(.ARM.extab.text._ZNSt3__19to_stringEx) refers (Special) to _printf_d.o(.ARM.Collect$$_printf_percent$$00000009) for _printf_d
    string.cpp.o(.ARM.extab.text._ZNSt3__19to_stringEx) refers (Special) to _printf_f.o(.ARM.Collect$$_printf_percent$$00000003) for _printf_f
    string.cpp.o(.ARM.extab.text._ZNSt3__19to_stringEx) refers (Special) to printf1.o(x$fpl$printf1) for _printf_fp_dec
    string.cpp.o(.ARM.extab.text._ZNSt3__19to_stringEx) refers (Special) to _printf_dec.o(.text) for _printf_int_dec
    string.cpp.o(.ARM.extab.text._ZNSt3__19to_stringEx) refers (Special) to _printf_lld.o(.ARM.Collect$$_printf_percent$$0000000E) for _printf_lld
    string.cpp.o(.ARM.extab.text._ZNSt3__19to_stringEx) refers (Special) to _printf_llu.o(.ARM.Collect$$_printf_percent$$0000000F) for _printf_llu
    string.cpp.o(.ARM.extab.text._ZNSt3__19to_stringEx) refers (Special) to _printf_longlong_dec.o(.text) for _printf_longlong_dec
    string.cpp.o(.ARM.extab.text._ZNSt3__19to_stringEx) refers (Special) to _printf_percent.o(.ARM.Collect$$_printf_percent$$00000000) for _printf_percent
    string.cpp.o(.ARM.extab.text._ZNSt3__19to_stringEx) refers (Special) to _printf_u.o(.ARM.Collect$$_printf_percent$$0000000A) for _printf_u
    string.cpp.o(.ARM.extab.text._ZNSt3__19to_stringEx) refers to cxa_personality.cpp.o(.text.__gxx_personality_v0) for __gxx_personality_v0
    string.cpp.o(.ARM.exidx.text._ZNSt3__19to_stringEx) refers (Special) to _printf_d.o(.ARM.Collect$$_printf_percent$$00000009) for _printf_d
    string.cpp.o(.ARM.exidx.text._ZNSt3__19to_stringEx) refers (Special) to _printf_f.o(.ARM.Collect$$_printf_percent$$00000003) for _printf_f
    string.cpp.o(.ARM.exidx.text._ZNSt3__19to_stringEx) refers (Special) to printf1.o(x$fpl$printf1) for _printf_fp_dec
    string.cpp.o(.ARM.exidx.text._ZNSt3__19to_stringEx) refers (Special) to _printf_dec.o(.text) for _printf_int_dec
    string.cpp.o(.ARM.exidx.text._ZNSt3__19to_stringEx) refers (Special) to _printf_lld.o(.ARM.Collect$$_printf_percent$$0000000E) for _printf_lld
    string.cpp.o(.ARM.exidx.text._ZNSt3__19to_stringEx) refers (Special) to _printf_llu.o(.ARM.Collect$$_printf_percent$$0000000F) for _printf_llu
    string.cpp.o(.ARM.exidx.text._ZNSt3__19to_stringEx) refers (Special) to _printf_longlong_dec.o(.text) for _printf_longlong_dec
    string.cpp.o(.ARM.exidx.text._ZNSt3__19to_stringEx) refers (Special) to _printf_percent.o(.ARM.Collect$$_printf_percent$$00000000) for _printf_percent
    string.cpp.o(.ARM.exidx.text._ZNSt3__19to_stringEx) refers (Special) to _printf_u.o(.ARM.Collect$$_printf_percent$$0000000A) for _printf_u
    string.cpp.o(.ARM.exidx.text._ZNSt3__19to_stringEx) refers to string.cpp.o(.text._ZNSt3__19to_stringEx) for [Anonymous Symbol]
    string.cpp.o(.ARM.exidx.text._ZNSt3__19to_stringEx) refers to string.cpp.o(.ARM.extab.text._ZNSt3__19to_stringEx) for [Anonymous Symbol]
    string.cpp.o(.text._ZNSt3__19to_stringEy) refers (Special) to _printf_d.o(.ARM.Collect$$_printf_percent$$00000009) for _printf_d
    string.cpp.o(.text._ZNSt3__19to_stringEy) refers (Special) to _printf_f.o(.ARM.Collect$$_printf_percent$$00000003) for _printf_f
    string.cpp.o(.text._ZNSt3__19to_stringEy) refers (Special) to printf1.o(x$fpl$printf1) for _printf_fp_dec
    string.cpp.o(.text._ZNSt3__19to_stringEy) refers (Special) to _printf_dec.o(.text) for _printf_int_dec
    string.cpp.o(.text._ZNSt3__19to_stringEy) refers (Special) to _printf_lld.o(.ARM.Collect$$_printf_percent$$0000000E) for _printf_lld
    string.cpp.o(.text._ZNSt3__19to_stringEy) refers (Special) to _printf_llu.o(.ARM.Collect$$_printf_percent$$0000000F) for _printf_llu
    string.cpp.o(.text._ZNSt3__19to_stringEy) refers (Special) to _printf_longlong_dec.o(.text) for _printf_longlong_dec
    string.cpp.o(.text._ZNSt3__19to_stringEy) refers (Special) to _printf_percent.o(.ARM.Collect$$_printf_percent$$00000000) for _printf_percent
    string.cpp.o(.text._ZNSt3__19to_stringEy) refers (Special) to _printf_u.o(.ARM.Collect$$_printf_percent$$0000000A) for _printf_u
    string.cpp.o(.text._ZNSt3__19to_stringEy) refers to string.cpp.o(.text._ZNSt3__112basic_stringIcNS_11char_traitsIcEENS_9allocatorIcEEE6resizeEjc) for std::__1::basic_string<char, std::__1::char_traits<char>, std::__1::allocator<char>>::resize(unsigned, char)
    string.cpp.o(.text._ZNSt3__19to_stringEy) refers to __2snprintf.o(.text) for __2snprintf
    string.cpp.o(.text._ZNSt3__19to_stringEy) refers to new.cpp.o(.text._ZdlPv) for operator delete (void*)
    string.cpp.o(.text._ZNSt3__19to_stringEy) refers to Unwind-EHABI.cpp.o(.text._Unwind_Resume) for _Unwind_Resume
    string.cpp.o(.ARM.extab.text._ZNSt3__19to_stringEy) refers (Special) to _printf_d.o(.ARM.Collect$$_printf_percent$$00000009) for _printf_d
    string.cpp.o(.ARM.extab.text._ZNSt3__19to_stringEy) refers (Special) to _printf_f.o(.ARM.Collect$$_printf_percent$$00000003) for _printf_f
    string.cpp.o(.ARM.extab.text._ZNSt3__19to_stringEy) refers (Special) to printf1.o(x$fpl$printf1) for _printf_fp_dec
    string.cpp.o(.ARM.extab.text._ZNSt3__19to_stringEy) refers (Special) to _printf_dec.o(.text) for _printf_int_dec
    string.cpp.o(.ARM.extab.text._ZNSt3__19to_stringEy) refers (Special) to _printf_lld.o(.ARM.Collect$$_printf_percent$$0000000E) for _printf_lld
    string.cpp.o(.ARM.extab.text._ZNSt3__19to_stringEy) refers (Special) to _printf_llu.o(.ARM.Collect$$_printf_percent$$0000000F) for _printf_llu
    string.cpp.o(.ARM.extab.text._ZNSt3__19to_stringEy) refers (Special) to _printf_longlong_dec.o(.text) for _printf_longlong_dec
    string.cpp.o(.ARM.extab.text._ZNSt3__19to_stringEy) refers (Special) to _printf_percent.o(.ARM.Collect$$_printf_percent$$00000000) for _printf_percent
    string.cpp.o(.ARM.extab.text._ZNSt3__19to_stringEy) refers (Special) to _printf_u.o(.ARM.Collect$$_printf_percent$$0000000A) for _printf_u
    string.cpp.o(.ARM.extab.text._ZNSt3__19to_stringEy) refers to cxa_personality.cpp.o(.text.__gxx_personality_v0) for __gxx_personality_v0
    string.cpp.o(.ARM.exidx.text._ZNSt3__19to_stringEy) refers (Special) to _printf_d.o(.ARM.Collect$$_printf_percent$$00000009) for _printf_d
    string.cpp.o(.ARM.exidx.text._ZNSt3__19to_stringEy) refers (Special) to _printf_f.o(.ARM.Collect$$_printf_percent$$00000003) for _printf_f
    string.cpp.o(.ARM.exidx.text._ZNSt3__19to_stringEy) refers (Special) to printf1.o(x$fpl$printf1) for _printf_fp_dec
    string.cpp.o(.ARM.exidx.text._ZNSt3__19to_stringEy) refers (Special) to _printf_dec.o(.text) for _printf_int_dec
    string.cpp.o(.ARM.exidx.text._ZNSt3__19to_stringEy) refers (Special) to _printf_lld.o(.ARM.Collect$$_printf_percent$$0000000E) for _printf_lld
    string.cpp.o(.ARM.exidx.text._ZNSt3__19to_stringEy) refers (Special) to _printf_llu.o(.ARM.Collect$$_printf_percent$$0000000F) for _printf_llu
    string.cpp.o(.ARM.exidx.text._ZNSt3__19to_stringEy) refers (Special) to _printf_longlong_dec.o(.text) for _printf_longlong_dec
    string.cpp.o(.ARM.exidx.text._ZNSt3__19to_stringEy) refers (Special) to _printf_percent.o(.ARM.Collect$$_printf_percent$$00000000) for _printf_percent
    string.cpp.o(.ARM.exidx.text._ZNSt3__19to_stringEy) refers (Special) to _printf_u.o(.ARM.Collect$$_printf_percent$$0000000A) for _printf_u
    string.cpp.o(.ARM.exidx.text._ZNSt3__19to_stringEy) refers to string.cpp.o(.text._ZNSt3__19to_stringEy) for [Anonymous Symbol]
    string.cpp.o(.ARM.exidx.text._ZNSt3__19to_stringEy) refers to string.cpp.o(.ARM.extab.text._ZNSt3__19to_stringEy) for [Anonymous Symbol]
    string.cpp.o(.text._ZNSt3__19to_stringEf) refers (Special) to _printf_d.o(.ARM.Collect$$_printf_percent$$00000009) for _printf_d
    string.cpp.o(.text._ZNSt3__19to_stringEf) refers (Special) to _printf_f.o(.ARM.Collect$$_printf_percent$$00000003) for _printf_f
    string.cpp.o(.text._ZNSt3__19to_stringEf) refers (Special) to printf1.o(x$fpl$printf1) for _printf_fp_dec
    string.cpp.o(.text._ZNSt3__19to_stringEf) refers (Special) to _printf_dec.o(.text) for _printf_int_dec
    string.cpp.o(.text._ZNSt3__19to_stringEf) refers (Special) to _printf_lld.o(.ARM.Collect$$_printf_percent$$0000000E) for _printf_lld
    string.cpp.o(.text._ZNSt3__19to_stringEf) refers (Special) to _printf_llu.o(.ARM.Collect$$_printf_percent$$0000000F) for _printf_llu
    string.cpp.o(.text._ZNSt3__19to_stringEf) refers (Special) to _printf_longlong_dec.o(.text) for _printf_longlong_dec
    string.cpp.o(.text._ZNSt3__19to_stringEf) refers (Special) to _printf_percent.o(.ARM.Collect$$_printf_percent$$00000000) for _printf_percent
    string.cpp.o(.text._ZNSt3__19to_stringEf) refers (Special) to _printf_u.o(.ARM.Collect$$_printf_percent$$0000000A) for _printf_u
    string.cpp.o(.text._ZNSt3__19to_stringEf) refers to string.cpp.o(.text._ZNSt3__112basic_stringIcNS_11char_traitsIcEENS_9allocatorIcEEE6resizeEjc) for std::__1::basic_string<char, std::__1::char_traits<char>, std::__1::allocator<char>>::resize(unsigned, char)
    string.cpp.o(.text._ZNSt3__19to_stringEf) refers to f2d.o(x$fpl$f2d) for __aeabi_f2d
    string.cpp.o(.text._ZNSt3__19to_stringEf) refers to string.cpp.o(.rodata.str1.1) for .L.str.15
    string.cpp.o(.text._ZNSt3__19to_stringEf) refers to __2snprintf.o(.text) for __2snprintf
    string.cpp.o(.text._ZNSt3__19to_stringEf) refers to new.cpp.o(.text._ZdlPv) for operator delete (void*)
    string.cpp.o(.text._ZNSt3__19to_stringEf) refers to Unwind-EHABI.cpp.o(.text._Unwind_Resume) for _Unwind_Resume
    string.cpp.o(.ARM.extab.text._ZNSt3__19to_stringEf) refers (Special) to _printf_d.o(.ARM.Collect$$_printf_percent$$00000009) for _printf_d
    string.cpp.o(.ARM.extab.text._ZNSt3__19to_stringEf) refers (Special) to _printf_f.o(.ARM.Collect$$_printf_percent$$00000003) for _printf_f
    string.cpp.o(.ARM.extab.text._ZNSt3__19to_stringEf) refers (Special) to printf1.o(x$fpl$printf1) for _printf_fp_dec
    string.cpp.o(.ARM.extab.text._ZNSt3__19to_stringEf) refers (Special) to _printf_dec.o(.text) for _printf_int_dec
    string.cpp.o(.ARM.extab.text._ZNSt3__19to_stringEf) refers (Special) to _printf_lld.o(.ARM.Collect$$_printf_percent$$0000000E) for _printf_lld
    string.cpp.o(.ARM.extab.text._ZNSt3__19to_stringEf) refers (Special) to _printf_llu.o(.ARM.Collect$$_printf_percent$$0000000F) for _printf_llu
    string.cpp.o(.ARM.extab.text._ZNSt3__19to_stringEf) refers (Special) to _printf_longlong_dec.o(.text) for _printf_longlong_dec
    string.cpp.o(.ARM.extab.text._ZNSt3__19to_stringEf) refers (Special) to _printf_percent.o(.ARM.Collect$$_printf_percent$$00000000) for _printf_percent
    string.cpp.o(.ARM.extab.text._ZNSt3__19to_stringEf) refers (Special) to _printf_u.o(.ARM.Collect$$_printf_percent$$0000000A) for _printf_u
    string.cpp.o(.ARM.extab.text._ZNSt3__19to_stringEf) refers to cxa_personality.cpp.o(.text.__gxx_personality_v0) for __gxx_personality_v0
    string.cpp.o(.ARM.exidx.text._ZNSt3__19to_stringEf) refers (Special) to _printf_d.o(.ARM.Collect$$_printf_percent$$00000009) for _printf_d
    string.cpp.o(.ARM.exidx.text._ZNSt3__19to_stringEf) refers (Special) to _printf_f.o(.ARM.Collect$$_printf_percent$$00000003) for _printf_f
    string.cpp.o(.ARM.exidx.text._ZNSt3__19to_stringEf) refers (Special) to printf1.o(x$fpl$printf1) for _printf_fp_dec
    string.cpp.o(.ARM.exidx.text._ZNSt3__19to_stringEf) refers (Special) to _printf_dec.o(.text) for _printf_int_dec
    string.cpp.o(.ARM.exidx.text._ZNSt3__19to_stringEf) refers (Special) to _printf_lld.o(.ARM.Collect$$_printf_percent$$0000000E) for _printf_lld
    string.cpp.o(.ARM.exidx.text._ZNSt3__19to_stringEf) refers (Special) to _printf_llu.o(.ARM.Collect$$_printf_percent$$0000000F) for _printf_llu
    string.cpp.o(.ARM.exidx.text._ZNSt3__19to_stringEf) refers (Special) to _printf_longlong_dec.o(.text) for _printf_longlong_dec
    string.cpp.o(.ARM.exidx.text._ZNSt3__19to_stringEf) refers (Special) to _printf_percent.o(.ARM.Collect$$_printf_percent$$00000000) for _printf_percent
    string.cpp.o(.ARM.exidx.text._ZNSt3__19to_stringEf) refers (Special) to _printf_u.o(.ARM.Collect$$_printf_percent$$0000000A) for _printf_u
    string.cpp.o(.ARM.exidx.text._ZNSt3__19to_stringEf) refers to string.cpp.o(.text._ZNSt3__19to_stringEf) for [Anonymous Symbol]
    string.cpp.o(.ARM.exidx.text._ZNSt3__19to_stringEf) refers to string.cpp.o(.ARM.extab.text._ZNSt3__19to_stringEf) for [Anonymous Symbol]
    string.cpp.o(.text._ZNSt3__19to_stringEd) refers (Special) to _printf_d.o(.ARM.Collect$$_printf_percent$$00000009) for _printf_d
    string.cpp.o(.text._ZNSt3__19to_stringEd) refers (Special) to _printf_f.o(.ARM.Collect$$_printf_percent$$00000003) for _printf_f
    string.cpp.o(.text._ZNSt3__19to_stringEd) refers (Special) to printf1.o(x$fpl$printf1) for _printf_fp_dec
    string.cpp.o(.text._ZNSt3__19to_stringEd) refers (Special) to _printf_dec.o(.text) for _printf_int_dec
    string.cpp.o(.text._ZNSt3__19to_stringEd) refers (Special) to _printf_lld.o(.ARM.Collect$$_printf_percent$$0000000E) for _printf_lld
    string.cpp.o(.text._ZNSt3__19to_stringEd) refers (Special) to _printf_llu.o(.ARM.Collect$$_printf_percent$$0000000F) for _printf_llu
    string.cpp.o(.text._ZNSt3__19to_stringEd) refers (Special) to _printf_longlong_dec.o(.text) for _printf_longlong_dec
    string.cpp.o(.text._ZNSt3__19to_stringEd) refers (Special) to _printf_percent.o(.ARM.Collect$$_printf_percent$$00000000) for _printf_percent
    string.cpp.o(.text._ZNSt3__19to_stringEd) refers (Special) to _printf_u.o(.ARM.Collect$$_printf_percent$$0000000A) for _printf_u
    string.cpp.o(.text._ZNSt3__19to_stringEd) refers to string.cpp.o(.text._ZNSt3__112basic_stringIcNS_11char_traitsIcEENS_9allocatorIcEEE6resizeEjc) for std::__1::basic_string<char, std::__1::char_traits<char>, std::__1::allocator<char>>::resize(unsigned, char)
    string.cpp.o(.text._ZNSt3__19to_stringEd) refers to string.cpp.o(.rodata.str1.1) for .L.str.15
    string.cpp.o(.text._ZNSt3__19to_stringEd) refers to __2snprintf.o(.text) for __2snprintf
    string.cpp.o(.text._ZNSt3__19to_stringEd) refers to new.cpp.o(.text._ZdlPv) for operator delete (void*)
    string.cpp.o(.text._ZNSt3__19to_stringEd) refers to Unwind-EHABI.cpp.o(.text._Unwind_Resume) for _Unwind_Resume
    string.cpp.o(.ARM.extab.text._ZNSt3__19to_stringEd) refers (Special) to _printf_d.o(.ARM.Collect$$_printf_percent$$00000009) for _printf_d
    string.cpp.o(.ARM.extab.text._ZNSt3__19to_stringEd) refers (Special) to _printf_f.o(.ARM.Collect$$_printf_percent$$00000003) for _printf_f
    string.cpp.o(.ARM.extab.text._ZNSt3__19to_stringEd) refers (Special) to printf1.o(x$fpl$printf1) for _printf_fp_dec
    string.cpp.o(.ARM.extab.text._ZNSt3__19to_stringEd) refers (Special) to _printf_dec.o(.text) for _printf_int_dec
    string.cpp.o(.ARM.extab.text._ZNSt3__19to_stringEd) refers (Special) to _printf_lld.o(.ARM.Collect$$_printf_percent$$0000000E) for _printf_lld
    string.cpp.o(.ARM.extab.text._ZNSt3__19to_stringEd) refers (Special) to _printf_llu.o(.ARM.Collect$$_printf_percent$$0000000F) for _printf_llu
    string.cpp.o(.ARM.extab.text._ZNSt3__19to_stringEd) refers (Special) to _printf_longlong_dec.o(.text) for _printf_longlong_dec
    string.cpp.o(.ARM.extab.text._ZNSt3__19to_stringEd) refers (Special) to _printf_percent.o(.ARM.Collect$$_printf_percent$$00000000) for _printf_percent
    string.cpp.o(.ARM.extab.text._ZNSt3__19to_stringEd) refers (Special) to _printf_u.o(.ARM.Collect$$_printf_percent$$0000000A) for _printf_u
    string.cpp.o(.ARM.extab.text._ZNSt3__19to_stringEd) refers to cxa_personality.cpp.o(.text.__gxx_personality_v0) for __gxx_personality_v0
    string.cpp.o(.ARM.exidx.text._ZNSt3__19to_stringEd) refers (Special) to _printf_d.o(.ARM.Collect$$_printf_percent$$00000009) for _printf_d
    string.cpp.o(.ARM.exidx.text._ZNSt3__19to_stringEd) refers (Special) to _printf_f.o(.ARM.Collect$$_printf_percent$$00000003) for _printf_f
    string.cpp.o(.ARM.exidx.text._ZNSt3__19to_stringEd) refers (Special) to printf1.o(x$fpl$printf1) for _printf_fp_dec
    string.cpp.o(.ARM.exidx.text._ZNSt3__19to_stringEd) refers (Special) to _printf_dec.o(.text) for _printf_int_dec
    string.cpp.o(.ARM.exidx.text._ZNSt3__19to_stringEd) refers (Special) to _printf_lld.o(.ARM.Collect$$_printf_percent$$0000000E) for _printf_lld
    string.cpp.o(.ARM.exidx.text._ZNSt3__19to_stringEd) refers (Special) to _printf_llu.o(.ARM.Collect$$_printf_percent$$0000000F) for _printf_llu
    string.cpp.o(.ARM.exidx.text._ZNSt3__19to_stringEd) refers (Special) to _printf_longlong_dec.o(.text) for _printf_longlong_dec
    string.cpp.o(.ARM.exidx.text._ZNSt3__19to_stringEd) refers (Special) to _printf_percent.o(.ARM.Collect$$_printf_percent$$00000000) for _printf_percent
    string.cpp.o(.ARM.exidx.text._ZNSt3__19to_stringEd) refers (Special) to _printf_u.o(.ARM.Collect$$_printf_percent$$0000000A) for _printf_u
    string.cpp.o(.ARM.exidx.text._ZNSt3__19to_stringEd) refers to string.cpp.o(.text._ZNSt3__19to_stringEd) for [Anonymous Symbol]
    string.cpp.o(.ARM.exidx.text._ZNSt3__19to_stringEd) refers to string.cpp.o(.ARM.extab.text._ZNSt3__19to_stringEd) for [Anonymous Symbol]
    string.cpp.o(.text._ZNSt3__19to_stringEe) refers (Special) to _printf_d.o(.ARM.Collect$$_printf_percent$$00000009) for _printf_d
    string.cpp.o(.text._ZNSt3__19to_stringEe) refers (Special) to _printf_f.o(.ARM.Collect$$_printf_percent$$00000003) for _printf_f
    string.cpp.o(.text._ZNSt3__19to_stringEe) refers (Special) to printf1.o(x$fpl$printf1) for _printf_fp_dec
    string.cpp.o(.text._ZNSt3__19to_stringEe) refers (Special) to _printf_dec.o(.text) for _printf_int_dec
    string.cpp.o(.text._ZNSt3__19to_stringEe) refers (Special) to _printf_lld.o(.ARM.Collect$$_printf_percent$$0000000E) for _printf_lld
    string.cpp.o(.text._ZNSt3__19to_stringEe) refers (Special) to _printf_llu.o(.ARM.Collect$$_printf_percent$$0000000F) for _printf_llu
    string.cpp.o(.text._ZNSt3__19to_stringEe) refers (Special) to _printf_longlong_dec.o(.text) for _printf_longlong_dec
    string.cpp.o(.text._ZNSt3__19to_stringEe) refers (Special) to _printf_percent.o(.ARM.Collect$$_printf_percent$$00000000) for _printf_percent
    string.cpp.o(.text._ZNSt3__19to_stringEe) refers (Special) to _printf_u.o(.ARM.Collect$$_printf_percent$$0000000A) for _printf_u
    string.cpp.o(.text._ZNSt3__19to_stringEe) refers to string.cpp.o(.text._ZNSt3__112basic_stringIcNS_11char_traitsIcEENS_9allocatorIcEEE6resizeEjc) for std::__1::basic_string<char, std::__1::char_traits<char>, std::__1::allocator<char>>::resize(unsigned, char)
    string.cpp.o(.text._ZNSt3__19to_stringEe) refers to __2snprintf.o(.text) for __2snprintf
    string.cpp.o(.text._ZNSt3__19to_stringEe) refers to new.cpp.o(.text._ZdlPv) for operator delete (void*)
    string.cpp.o(.text._ZNSt3__19to_stringEe) refers to Unwind-EHABI.cpp.o(.text._Unwind_Resume) for _Unwind_Resume
    string.cpp.o(.ARM.extab.text._ZNSt3__19to_stringEe) refers (Special) to _printf_d.o(.ARM.Collect$$_printf_percent$$00000009) for _printf_d
    string.cpp.o(.ARM.extab.text._ZNSt3__19to_stringEe) refers (Special) to _printf_f.o(.ARM.Collect$$_printf_percent$$00000003) for _printf_f
    string.cpp.o(.ARM.extab.text._ZNSt3__19to_stringEe) refers (Special) to printf1.o(x$fpl$printf1) for _printf_fp_dec
    string.cpp.o(.ARM.extab.text._ZNSt3__19to_stringEe) refers (Special) to _printf_dec.o(.text) for _printf_int_dec
    string.cpp.o(.ARM.extab.text._ZNSt3__19to_stringEe) refers (Special) to _printf_lld.o(.ARM.Collect$$_printf_percent$$0000000E) for _printf_lld
    string.cpp.o(.ARM.extab.text._ZNSt3__19to_stringEe) refers (Special) to _printf_llu.o(.ARM.Collect$$_printf_percent$$0000000F) for _printf_llu
    string.cpp.o(.ARM.extab.text._ZNSt3__19to_stringEe) refers (Special) to _printf_longlong_dec.o(.text) for _printf_longlong_dec
    string.cpp.o(.ARM.extab.text._ZNSt3__19to_stringEe) refers (Special) to _printf_percent.o(.ARM.Collect$$_printf_percent$$00000000) for _printf_percent
    string.cpp.o(.ARM.extab.text._ZNSt3__19to_stringEe) refers (Special) to _printf_u.o(.ARM.Collect$$_printf_percent$$0000000A) for _printf_u
    string.cpp.o(.ARM.extab.text._ZNSt3__19to_stringEe) refers to cxa_personality.cpp.o(.text.__gxx_personality_v0) for __gxx_personality_v0
    string.cpp.o(.ARM.exidx.text._ZNSt3__19to_stringEe) refers (Special) to _printf_d.o(.ARM.Collect$$_printf_percent$$00000009) for _printf_d
    string.cpp.o(.ARM.exidx.text._ZNSt3__19to_stringEe) refers (Special) to _printf_f.o(.ARM.Collect$$_printf_percent$$00000003) for _printf_f
    string.cpp.o(.ARM.exidx.text._ZNSt3__19to_stringEe) refers (Special) to printf1.o(x$fpl$printf1) for _printf_fp_dec
    string.cpp.o(.ARM.exidx.text._ZNSt3__19to_stringEe) refers (Special) to _printf_dec.o(.text) for _printf_int_dec
    string.cpp.o(.ARM.exidx.text._ZNSt3__19to_stringEe) refers (Special) to _printf_lld.o(.ARM.Collect$$_printf_percent$$0000000E) for _printf_lld
    string.cpp.o(.ARM.exidx.text._ZNSt3__19to_stringEe) refers (Special) to _printf_llu.o(.ARM.Collect$$_printf_percent$$0000000F) for _printf_llu
    string.cpp.o(.ARM.exidx.text._ZNSt3__19to_stringEe) refers (Special) to _printf_longlong_dec.o(.text) for _printf_longlong_dec
    string.cpp.o(.ARM.exidx.text._ZNSt3__19to_stringEe) refers (Special) to _printf_percent.o(.ARM.Collect$$_printf_percent$$00000000) for _printf_percent
    string.cpp.o(.ARM.exidx.text._ZNSt3__19to_stringEe) refers (Special) to _printf_u.o(.ARM.Collect$$_printf_percent$$0000000A) for _printf_u
    string.cpp.o(.ARM.exidx.text._ZNSt3__19to_stringEe) refers to string.cpp.o(.text._ZNSt3__19to_stringEe) for [Anonymous Symbol]
    string.cpp.o(.ARM.exidx.text._ZNSt3__19to_stringEe) refers to string.cpp.o(.ARM.extab.text._ZNSt3__19to_stringEe) for [Anonymous Symbol]
    string.cpp.o(.text._ZNSt3__110to_wstringEi) refers (Special) to _printf_d.o(.ARM.Collect$$_printf_percent$$00000009) for _printf_d
    string.cpp.o(.text._ZNSt3__110to_wstringEi) refers (Special) to _printf_f.o(.ARM.Collect$$_printf_percent$$00000003) for _printf_f
    string.cpp.o(.text._ZNSt3__110to_wstringEi) refers (Special) to printf1.o(x$fpl$printf1) for _printf_fp_dec
    string.cpp.o(.text._ZNSt3__110to_wstringEi) refers (Special) to _printf_dec.o(.text) for _printf_int_dec
    string.cpp.o(.text._ZNSt3__110to_wstringEi) refers (Special) to _printf_lld.o(.ARM.Collect$$_printf_percent$$0000000E) for _printf_lld
    string.cpp.o(.text._ZNSt3__110to_wstringEi) refers (Special) to _printf_llu.o(.ARM.Collect$$_printf_percent$$0000000F) for _printf_llu
    string.cpp.o(.text._ZNSt3__110to_wstringEi) refers (Special) to _printf_longlong_dec.o(.text) for _printf_longlong_dec
    string.cpp.o(.text._ZNSt3__110to_wstringEi) refers (Special) to _printf_percent.o(.ARM.Collect$$_printf_percent$$00000000) for _printf_percent
    string.cpp.o(.text._ZNSt3__110to_wstringEi) refers (Special) to _printf_u.o(.ARM.Collect$$_printf_percent$$0000000A) for _printf_u
    string.cpp.o(.text._ZNSt3__110to_wstringEi) refers to new.cpp.o(.text._Znwj) for operator new(unsigned)
    string.cpp.o(.text._ZNSt3__110to_wstringEi) refers to wmemset.o(.text) for wmemset
    string.cpp.o(.text._ZNSt3__110to_wstringEi) refers to string.cpp.o(.text._ZNSt3__112basic_stringIwNS_11char_traitsIwEENS_9allocatorIwEEE6resizeEjw) for std::__1::basic_string<wchar_t, std::__1::char_traits<wchar_t>, std::__1::allocator<wchar_t>>::resize(unsigned, wchar_t)
    string.cpp.o(.text._ZNSt3__110to_wstringEi) refers to string.cpp.o(.rodata.str2.2) for .L.str.17
    string.cpp.o(.text._ZNSt3__110to_wstringEi) refers to swprintf.o(.text) for swprintf
    string.cpp.o(.text._ZNSt3__110to_wstringEi) refers to string.cpp.o(.text.__clang_call_terminate) for __clang_call_terminate
    string.cpp.o(.text._ZNSt3__110to_wstringEi) refers to new.cpp.o(.text._ZdlPv) for operator delete (void*)
    string.cpp.o(.text._ZNSt3__110to_wstringEi) refers to Unwind-EHABI.cpp.o(.text._Unwind_Resume) for _Unwind_Resume
    string.cpp.o(.ARM.extab.text._ZNSt3__110to_wstringEi) refers (Special) to _printf_d.o(.ARM.Collect$$_printf_percent$$00000009) for _printf_d
    string.cpp.o(.ARM.extab.text._ZNSt3__110to_wstringEi) refers (Special) to _printf_f.o(.ARM.Collect$$_printf_percent$$00000003) for _printf_f
    string.cpp.o(.ARM.extab.text._ZNSt3__110to_wstringEi) refers (Special) to printf1.o(x$fpl$printf1) for _printf_fp_dec
    string.cpp.o(.ARM.extab.text._ZNSt3__110to_wstringEi) refers (Special) to _printf_dec.o(.text) for _printf_int_dec
    string.cpp.o(.ARM.extab.text._ZNSt3__110to_wstringEi) refers (Special) to _printf_lld.o(.ARM.Collect$$_printf_percent$$0000000E) for _printf_lld
    string.cpp.o(.ARM.extab.text._ZNSt3__110to_wstringEi) refers (Special) to _printf_llu.o(.ARM.Collect$$_printf_percent$$0000000F) for _printf_llu
    string.cpp.o(.ARM.extab.text._ZNSt3__110to_wstringEi) refers (Special) to _printf_longlong_dec.o(.text) for _printf_longlong_dec
    string.cpp.o(.ARM.extab.text._ZNSt3__110to_wstringEi) refers (Special) to _printf_percent.o(.ARM.Collect$$_printf_percent$$00000000) for _printf_percent
    string.cpp.o(.ARM.extab.text._ZNSt3__110to_wstringEi) refers (Special) to _printf_u.o(.ARM.Collect$$_printf_percent$$0000000A) for _printf_u
    string.cpp.o(.ARM.extab.text._ZNSt3__110to_wstringEi) refers to cxa_personality.cpp.o(.text.__gxx_personality_v0) for __gxx_personality_v0
    string.cpp.o(.ARM.exidx.text._ZNSt3__110to_wstringEi) refers (Special) to _printf_d.o(.ARM.Collect$$_printf_percent$$00000009) for _printf_d
    string.cpp.o(.ARM.exidx.text._ZNSt3__110to_wstringEi) refers (Special) to _printf_f.o(.ARM.Collect$$_printf_percent$$00000003) for _printf_f
    string.cpp.o(.ARM.exidx.text._ZNSt3__110to_wstringEi) refers (Special) to printf1.o(x$fpl$printf1) for _printf_fp_dec
    string.cpp.o(.ARM.exidx.text._ZNSt3__110to_wstringEi) refers (Special) to _printf_dec.o(.text) for _printf_int_dec
    string.cpp.o(.ARM.exidx.text._ZNSt3__110to_wstringEi) refers (Special) to _printf_lld.o(.ARM.Collect$$_printf_percent$$0000000E) for _printf_lld
    string.cpp.o(.ARM.exidx.text._ZNSt3__110to_wstringEi) refers (Special) to _printf_llu.o(.ARM.Collect$$_printf_percent$$0000000F) for _printf_llu
    string.cpp.o(.ARM.exidx.text._ZNSt3__110to_wstringEi) refers (Special) to _printf_longlong_dec.o(.text) for _printf_longlong_dec
    string.cpp.o(.ARM.exidx.text._ZNSt3__110to_wstringEi) refers (Special) to _printf_percent.o(.ARM.Collect$$_printf_percent$$00000000) for _printf_percent
    string.cpp.o(.ARM.exidx.text._ZNSt3__110to_wstringEi) refers (Special) to _printf_u.o(.ARM.Collect$$_printf_percent$$0000000A) for _printf_u
    string.cpp.o(.ARM.exidx.text._ZNSt3__110to_wstringEi) refers to string.cpp.o(.text._ZNSt3__110to_wstringEi) for [Anonymous Symbol]
    string.cpp.o(.ARM.exidx.text._ZNSt3__110to_wstringEi) refers to string.cpp.o(.ARM.extab.text._ZNSt3__110to_wstringEi) for [Anonymous Symbol]
    string.cpp.o(.text._ZNSt3__110to_wstringEj) refers (Special) to _printf_d.o(.ARM.Collect$$_printf_percent$$00000009) for _printf_d
    string.cpp.o(.text._ZNSt3__110to_wstringEj) refers (Special) to _printf_f.o(.ARM.Collect$$_printf_percent$$00000003) for _printf_f
    string.cpp.o(.text._ZNSt3__110to_wstringEj) refers (Special) to printf1.o(x$fpl$printf1) for _printf_fp_dec
    string.cpp.o(.text._ZNSt3__110to_wstringEj) refers (Special) to _printf_dec.o(.text) for _printf_int_dec
    string.cpp.o(.text._ZNSt3__110to_wstringEj) refers (Special) to _printf_lld.o(.ARM.Collect$$_printf_percent$$0000000E) for _printf_lld
    string.cpp.o(.text._ZNSt3__110to_wstringEj) refers (Special) to _printf_llu.o(.ARM.Collect$$_printf_percent$$0000000F) for _printf_llu
    string.cpp.o(.text._ZNSt3__110to_wstringEj) refers (Special) to _printf_longlong_dec.o(.text) for _printf_longlong_dec
    string.cpp.o(.text._ZNSt3__110to_wstringEj) refers (Special) to _printf_percent.o(.ARM.Collect$$_printf_percent$$00000000) for _printf_percent
    string.cpp.o(.text._ZNSt3__110to_wstringEj) refers (Special) to _printf_u.o(.ARM.Collect$$_printf_percent$$0000000A) for _printf_u
    string.cpp.o(.text._ZNSt3__110to_wstringEj) refers to new.cpp.o(.text._Znwj) for operator new(unsigned)
    string.cpp.o(.text._ZNSt3__110to_wstringEj) refers to wmemset.o(.text) for wmemset
    string.cpp.o(.text._ZNSt3__110to_wstringEj) refers to string.cpp.o(.text._ZNSt3__112basic_stringIwNS_11char_traitsIwEENS_9allocatorIwEEE6resizeEjw) for std::__1::basic_string<wchar_t, std::__1::char_traits<wchar_t>, std::__1::allocator<wchar_t>>::resize(unsigned, wchar_t)
    string.cpp.o(.text._ZNSt3__110to_wstringEj) refers to string.cpp.o(.rodata.str2.2) for .L.str.18
    string.cpp.o(.text._ZNSt3__110to_wstringEj) refers to swprintf.o(.text) for swprintf
    string.cpp.o(.text._ZNSt3__110to_wstringEj) refers to string.cpp.o(.text.__clang_call_terminate) for __clang_call_terminate
    string.cpp.o(.text._ZNSt3__110to_wstringEj) refers to new.cpp.o(.text._ZdlPv) for operator delete (void*)
    string.cpp.o(.text._ZNSt3__110to_wstringEj) refers to Unwind-EHABI.cpp.o(.text._Unwind_Resume) for _Unwind_Resume
    string.cpp.o(.ARM.extab.text._ZNSt3__110to_wstringEj) refers (Special) to _printf_d.o(.ARM.Collect$$_printf_percent$$00000009) for _printf_d
    string.cpp.o(.ARM.extab.text._ZNSt3__110to_wstringEj) refers (Special) to _printf_f.o(.ARM.Collect$$_printf_percent$$00000003) for _printf_f
    string.cpp.o(.ARM.extab.text._ZNSt3__110to_wstringEj) refers (Special) to printf1.o(x$fpl$printf1) for _printf_fp_dec
    string.cpp.o(.ARM.extab.text._ZNSt3__110to_wstringEj) refers (Special) to _printf_dec.o(.text) for _printf_int_dec
    string.cpp.o(.ARM.extab.text._ZNSt3__110to_wstringEj) refers (Special) to _printf_lld.o(.ARM.Collect$$_printf_percent$$0000000E) for _printf_lld
    string.cpp.o(.ARM.extab.text._ZNSt3__110to_wstringEj) refers (Special) to _printf_llu.o(.ARM.Collect$$_printf_percent$$0000000F) for _printf_llu
    string.cpp.o(.ARM.extab.text._ZNSt3__110to_wstringEj) refers (Special) to _printf_longlong_dec.o(.text) for _printf_longlong_dec
    string.cpp.o(.ARM.extab.text._ZNSt3__110to_wstringEj) refers (Special) to _printf_percent.o(.ARM.Collect$$_printf_percent$$00000000) for _printf_percent
    string.cpp.o(.ARM.extab.text._ZNSt3__110to_wstringEj) refers (Special) to _printf_u.o(.ARM.Collect$$_printf_percent$$0000000A) for _printf_u
    string.cpp.o(.ARM.extab.text._ZNSt3__110to_wstringEj) refers to cxa_personality.cpp.o(.text.__gxx_personality_v0) for __gxx_personality_v0
    string.cpp.o(.ARM.exidx.text._ZNSt3__110to_wstringEj) refers (Special) to _printf_d.o(.ARM.Collect$$_printf_percent$$00000009) for _printf_d
    string.cpp.o(.ARM.exidx.text._ZNSt3__110to_wstringEj) refers (Special) to _printf_f.o(.ARM.Collect$$_printf_percent$$00000003) for _printf_f
    string.cpp.o(.ARM.exidx.text._ZNSt3__110to_wstringEj) refers (Special) to printf1.o(x$fpl$printf1) for _printf_fp_dec
    string.cpp.o(.ARM.exidx.text._ZNSt3__110to_wstringEj) refers (Special) to _printf_dec.o(.text) for _printf_int_dec
    string.cpp.o(.ARM.exidx.text._ZNSt3__110to_wstringEj) refers (Special) to _printf_lld.o(.ARM.Collect$$_printf_percent$$0000000E) for _printf_lld
    string.cpp.o(.ARM.exidx.text._ZNSt3__110to_wstringEj) refers (Special) to _printf_llu.o(.ARM.Collect$$_printf_percent$$0000000F) for _printf_llu
    string.cpp.o(.ARM.exidx.text._ZNSt3__110to_wstringEj) refers (Special) to _printf_longlong_dec.o(.text) for _printf_longlong_dec
    string.cpp.o(.ARM.exidx.text._ZNSt3__110to_wstringEj) refers (Special) to _printf_percent.o(.ARM.Collect$$_printf_percent$$00000000) for _printf_percent
    string.cpp.o(.ARM.exidx.text._ZNSt3__110to_wstringEj) refers (Special) to _printf_u.o(.ARM.Collect$$_printf_percent$$0000000A) for _printf_u
    string.cpp.o(.ARM.exidx.text._ZNSt3__110to_wstringEj) refers to string.cpp.o(.text._ZNSt3__110to_wstringEj) for [Anonymous Symbol]
    string.cpp.o(.ARM.exidx.text._ZNSt3__110to_wstringEj) refers to string.cpp.o(.ARM.extab.text._ZNSt3__110to_wstringEj) for [Anonymous Symbol]
    string.cpp.o(.text._ZNSt3__110to_wstringEl) refers (Special) to _printf_d.o(.ARM.Collect$$_printf_percent$$00000009) for _printf_d
    string.cpp.o(.text._ZNSt3__110to_wstringEl) refers (Special) to _printf_f.o(.ARM.Collect$$_printf_percent$$00000003) for _printf_f
    string.cpp.o(.text._ZNSt3__110to_wstringEl) refers (Special) to printf1.o(x$fpl$printf1) for _printf_fp_dec
    string.cpp.o(.text._ZNSt3__110to_wstringEl) refers (Special) to _printf_dec.o(.text) for _printf_int_dec
    string.cpp.o(.text._ZNSt3__110to_wstringEl) refers (Special) to _printf_lld.o(.ARM.Collect$$_printf_percent$$0000000E) for _printf_lld
    string.cpp.o(.text._ZNSt3__110to_wstringEl) refers (Special) to _printf_llu.o(.ARM.Collect$$_printf_percent$$0000000F) for _printf_llu
    string.cpp.o(.text._ZNSt3__110to_wstringEl) refers (Special) to _printf_longlong_dec.o(.text) for _printf_longlong_dec
    string.cpp.o(.text._ZNSt3__110to_wstringEl) refers (Special) to _printf_percent.o(.ARM.Collect$$_printf_percent$$00000000) for _printf_percent
    string.cpp.o(.text._ZNSt3__110to_wstringEl) refers (Special) to _printf_u.o(.ARM.Collect$$_printf_percent$$0000000A) for _printf_u
    string.cpp.o(.text._ZNSt3__110to_wstringEl) refers to new.cpp.o(.text._Znwj) for operator new(unsigned)
    string.cpp.o(.text._ZNSt3__110to_wstringEl) refers to wmemset.o(.text) for wmemset
    string.cpp.o(.text._ZNSt3__110to_wstringEl) refers to string.cpp.o(.text._ZNSt3__112basic_stringIwNS_11char_traitsIwEENS_9allocatorIwEEE6resizeEjw) for std::__1::basic_string<wchar_t, std::__1::char_traits<wchar_t>, std::__1::allocator<wchar_t>>::resize(unsigned, wchar_t)
    string.cpp.o(.text._ZNSt3__110to_wstringEl) refers to swprintf.o(.text) for swprintf
    string.cpp.o(.text._ZNSt3__110to_wstringEl) refers to string.cpp.o(.text.__clang_call_terminate) for __clang_call_terminate
    string.cpp.o(.text._ZNSt3__110to_wstringEl) refers to new.cpp.o(.text._ZdlPv) for operator delete (void*)
    string.cpp.o(.text._ZNSt3__110to_wstringEl) refers to Unwind-EHABI.cpp.o(.text._Unwind_Resume) for _Unwind_Resume
    string.cpp.o(.ARM.extab.text._ZNSt3__110to_wstringEl) refers (Special) to _printf_d.o(.ARM.Collect$$_printf_percent$$00000009) for _printf_d
    string.cpp.o(.ARM.extab.text._ZNSt3__110to_wstringEl) refers (Special) to _printf_f.o(.ARM.Collect$$_printf_percent$$00000003) for _printf_f
    string.cpp.o(.ARM.extab.text._ZNSt3__110to_wstringEl) refers (Special) to printf1.o(x$fpl$printf1) for _printf_fp_dec
    string.cpp.o(.ARM.extab.text._ZNSt3__110to_wstringEl) refers (Special) to _printf_dec.o(.text) for _printf_int_dec
    string.cpp.o(.ARM.extab.text._ZNSt3__110to_wstringEl) refers (Special) to _printf_lld.o(.ARM.Collect$$_printf_percent$$0000000E) for _printf_lld
    string.cpp.o(.ARM.extab.text._ZNSt3__110to_wstringEl) refers (Special) to _printf_llu.o(.ARM.Collect$$_printf_percent$$0000000F) for _printf_llu
    string.cpp.o(.ARM.extab.text._ZNSt3__110to_wstringEl) refers (Special) to _printf_longlong_dec.o(.text) for _printf_longlong_dec
    string.cpp.o(.ARM.extab.text._ZNSt3__110to_wstringEl) refers (Special) to _printf_percent.o(.ARM.Collect$$_printf_percent$$00000000) for _printf_percent
    string.cpp.o(.ARM.extab.text._ZNSt3__110to_wstringEl) refers (Special) to _printf_u.o(.ARM.Collect$$_printf_percent$$0000000A) for _printf_u
    string.cpp.o(.ARM.extab.text._ZNSt3__110to_wstringEl) refers to cxa_personality.cpp.o(.text.__gxx_personality_v0) for __gxx_personality_v0
    string.cpp.o(.ARM.exidx.text._ZNSt3__110to_wstringEl) refers (Special) to _printf_d.o(.ARM.Collect$$_printf_percent$$00000009) for _printf_d
    string.cpp.o(.ARM.exidx.text._ZNSt3__110to_wstringEl) refers (Special) to _printf_f.o(.ARM.Collect$$_printf_percent$$00000003) for _printf_f
    string.cpp.o(.ARM.exidx.text._ZNSt3__110to_wstringEl) refers (Special) to printf1.o(x$fpl$printf1) for _printf_fp_dec
    string.cpp.o(.ARM.exidx.text._ZNSt3__110to_wstringEl) refers (Special) to _printf_dec.o(.text) for _printf_int_dec
    string.cpp.o(.ARM.exidx.text._ZNSt3__110to_wstringEl) refers (Special) to _printf_lld.o(.ARM.Collect$$_printf_percent$$0000000E) for _printf_lld
    string.cpp.o(.ARM.exidx.text._ZNSt3__110to_wstringEl) refers (Special) to _printf_llu.o(.ARM.Collect$$_printf_percent$$0000000F) for _printf_llu
    string.cpp.o(.ARM.exidx.text._ZNSt3__110to_wstringEl) refers (Special) to _printf_longlong_dec.o(.text) for _printf_longlong_dec
    string.cpp.o(.ARM.exidx.text._ZNSt3__110to_wstringEl) refers (Special) to _printf_percent.o(.ARM.Collect$$_printf_percent$$00000000) for _printf_percent
    string.cpp.o(.ARM.exidx.text._ZNSt3__110to_wstringEl) refers (Special) to _printf_u.o(.ARM.Collect$$_printf_percent$$0000000A) for _printf_u
    string.cpp.o(.ARM.exidx.text._ZNSt3__110to_wstringEl) refers to string.cpp.o(.text._ZNSt3__110to_wstringEl) for [Anonymous Symbol]
    string.cpp.o(.ARM.exidx.text._ZNSt3__110to_wstringEl) refers to string.cpp.o(.ARM.extab.text._ZNSt3__110to_wstringEl) for [Anonymous Symbol]
    string.cpp.o(.text._ZNSt3__110to_wstringEm) refers (Special) to _printf_d.o(.ARM.Collect$$_printf_percent$$00000009) for _printf_d
    string.cpp.o(.text._ZNSt3__110to_wstringEm) refers (Special) to _printf_f.o(.ARM.Collect$$_printf_percent$$00000003) for _printf_f
    string.cpp.o(.text._ZNSt3__110to_wstringEm) refers (Special) to printf1.o(x$fpl$printf1) for _printf_fp_dec
    string.cpp.o(.text._ZNSt3__110to_wstringEm) refers (Special) to _printf_dec.o(.text) for _printf_int_dec
    string.cpp.o(.text._ZNSt3__110to_wstringEm) refers (Special) to _printf_lld.o(.ARM.Collect$$_printf_percent$$0000000E) for _printf_lld
    string.cpp.o(.text._ZNSt3__110to_wstringEm) refers (Special) to _printf_llu.o(.ARM.Collect$$_printf_percent$$0000000F) for _printf_llu
    string.cpp.o(.text._ZNSt3__110to_wstringEm) refers (Special) to _printf_longlong_dec.o(.text) for _printf_longlong_dec
    string.cpp.o(.text._ZNSt3__110to_wstringEm) refers (Special) to _printf_percent.o(.ARM.Collect$$_printf_percent$$00000000) for _printf_percent
    string.cpp.o(.text._ZNSt3__110to_wstringEm) refers (Special) to _printf_u.o(.ARM.Collect$$_printf_percent$$0000000A) for _printf_u
    string.cpp.o(.text._ZNSt3__110to_wstringEm) refers to new.cpp.o(.text._Znwj) for operator new(unsigned)
    string.cpp.o(.text._ZNSt3__110to_wstringEm) refers to wmemset.o(.text) for wmemset
    string.cpp.o(.text._ZNSt3__110to_wstringEm) refers to string.cpp.o(.text._ZNSt3__112basic_stringIwNS_11char_traitsIwEENS_9allocatorIwEEE6resizeEjw) for std::__1::basic_string<wchar_t, std::__1::char_traits<wchar_t>, std::__1::allocator<wchar_t>>::resize(unsigned, wchar_t)
    string.cpp.o(.text._ZNSt3__110to_wstringEm) refers to swprintf.o(.text) for swprintf
    string.cpp.o(.text._ZNSt3__110to_wstringEm) refers to string.cpp.o(.text.__clang_call_terminate) for __clang_call_terminate
    string.cpp.o(.text._ZNSt3__110to_wstringEm) refers to new.cpp.o(.text._ZdlPv) for operator delete (void*)
    string.cpp.o(.text._ZNSt3__110to_wstringEm) refers to Unwind-EHABI.cpp.o(.text._Unwind_Resume) for _Unwind_Resume
    string.cpp.o(.ARM.extab.text._ZNSt3__110to_wstringEm) refers (Special) to _printf_d.o(.ARM.Collect$$_printf_percent$$00000009) for _printf_d
    string.cpp.o(.ARM.extab.text._ZNSt3__110to_wstringEm) refers (Special) to _printf_f.o(.ARM.Collect$$_printf_percent$$00000003) for _printf_f
    string.cpp.o(.ARM.extab.text._ZNSt3__110to_wstringEm) refers (Special) to printf1.o(x$fpl$printf1) for _printf_fp_dec
    string.cpp.o(.ARM.extab.text._ZNSt3__110to_wstringEm) refers (Special) to _printf_dec.o(.text) for _printf_int_dec
    string.cpp.o(.ARM.extab.text._ZNSt3__110to_wstringEm) refers (Special) to _printf_lld.o(.ARM.Collect$$_printf_percent$$0000000E) for _printf_lld
    string.cpp.o(.ARM.extab.text._ZNSt3__110to_wstringEm) refers (Special) to _printf_llu.o(.ARM.Collect$$_printf_percent$$0000000F) for _printf_llu
    string.cpp.o(.ARM.extab.text._ZNSt3__110to_wstringEm) refers (Special) to _printf_longlong_dec.o(.text) for _printf_longlong_dec
    string.cpp.o(.ARM.extab.text._ZNSt3__110to_wstringEm) refers (Special) to _printf_percent.o(.ARM.Collect$$_printf_percent$$00000000) for _printf_percent
    string.cpp.o(.ARM.extab.text._ZNSt3__110to_wstringEm) refers (Special) to _printf_u.o(.ARM.Collect$$_printf_percent$$0000000A) for _printf_u
    string.cpp.o(.ARM.extab.text._ZNSt3__110to_wstringEm) refers to cxa_personality.cpp.o(.text.__gxx_personality_v0) for __gxx_personality_v0
    string.cpp.o(.ARM.exidx.text._ZNSt3__110to_wstringEm) refers (Special) to _printf_d.o(.ARM.Collect$$_printf_percent$$00000009) for _printf_d
    string.cpp.o(.ARM.exidx.text._ZNSt3__110to_wstringEm) refers (Special) to _printf_f.o(.ARM.Collect$$_printf_percent$$00000003) for _printf_f
    string.cpp.o(.ARM.exidx.text._ZNSt3__110to_wstringEm) refers (Special) to printf1.o(x$fpl$printf1) for _printf_fp_dec
    string.cpp.o(.ARM.exidx.text._ZNSt3__110to_wstringEm) refers (Special) to _printf_dec.o(.text) for _printf_int_dec
    string.cpp.o(.ARM.exidx.text._ZNSt3__110to_wstringEm) refers (Special) to _printf_lld.o(.ARM.Collect$$_printf_percent$$0000000E) for _printf_lld
    string.cpp.o(.ARM.exidx.text._ZNSt3__110to_wstringEm) refers (Special) to _printf_llu.o(.ARM.Collect$$_printf_percent$$0000000F) for _printf_llu
    string.cpp.o(.ARM.exidx.text._ZNSt3__110to_wstringEm) refers (Special) to _printf_longlong_dec.o(.text) for _printf_longlong_dec
    string.cpp.o(.ARM.exidx.text._ZNSt3__110to_wstringEm) refers (Special) to _printf_percent.o(.ARM.Collect$$_printf_percent$$00000000) for _printf_percent
    string.cpp.o(.ARM.exidx.text._ZNSt3__110to_wstringEm) refers (Special) to _printf_u.o(.ARM.Collect$$_printf_percent$$0000000A) for _printf_u
    string.cpp.o(.ARM.exidx.text._ZNSt3__110to_wstringEm) refers to string.cpp.o(.text._ZNSt3__110to_wstringEm) for [Anonymous Symbol]
    string.cpp.o(.ARM.exidx.text._ZNSt3__110to_wstringEm) refers to string.cpp.o(.ARM.extab.text._ZNSt3__110to_wstringEm) for [Anonymous Symbol]
    string.cpp.o(.text._ZNSt3__110to_wstringEx) refers (Special) to _printf_d.o(.ARM.Collect$$_printf_percent$$00000009) for _printf_d
    string.cpp.o(.text._ZNSt3__110to_wstringEx) refers (Special) to _printf_f.o(.ARM.Collect$$_printf_percent$$00000003) for _printf_f
    string.cpp.o(.text._ZNSt3__110to_wstringEx) refers (Special) to printf1.o(x$fpl$printf1) for _printf_fp_dec
    string.cpp.o(.text._ZNSt3__110to_wstringEx) refers (Special) to _printf_dec.o(.text) for _printf_int_dec
    string.cpp.o(.text._ZNSt3__110to_wstringEx) refers (Special) to _printf_lld.o(.ARM.Collect$$_printf_percent$$0000000E) for _printf_lld
    string.cpp.o(.text._ZNSt3__110to_wstringEx) refers (Special) to _printf_llu.o(.ARM.Collect$$_printf_percent$$0000000F) for _printf_llu
    string.cpp.o(.text._ZNSt3__110to_wstringEx) refers (Special) to _printf_longlong_dec.o(.text) for _printf_longlong_dec
    string.cpp.o(.text._ZNSt3__110to_wstringEx) refers (Special) to _printf_percent.o(.ARM.Collect$$_printf_percent$$00000000) for _printf_percent
    string.cpp.o(.text._ZNSt3__110to_wstringEx) refers (Special) to _printf_u.o(.ARM.Collect$$_printf_percent$$0000000A) for _printf_u
    string.cpp.o(.text._ZNSt3__110to_wstringEx) refers to new.cpp.o(.text._Znwj) for operator new(unsigned)
    string.cpp.o(.text._ZNSt3__110to_wstringEx) refers to wmemset.o(.text) for wmemset
    string.cpp.o(.text._ZNSt3__110to_wstringEx) refers to string.cpp.o(.text._ZNSt3__112basic_stringIwNS_11char_traitsIwEENS_9allocatorIwEEE6resizeEjw) for std::__1::basic_string<wchar_t, std::__1::char_traits<wchar_t>, std::__1::allocator<wchar_t>>::resize(unsigned, wchar_t)
    string.cpp.o(.text._ZNSt3__110to_wstringEx) refers to string.cpp.o(.rodata.str2.2) for .L.str.21
    string.cpp.o(.text._ZNSt3__110to_wstringEx) refers to swprintf.o(.text) for swprintf
    string.cpp.o(.text._ZNSt3__110to_wstringEx) refers to string.cpp.o(.text.__clang_call_terminate) for __clang_call_terminate
    string.cpp.o(.text._ZNSt3__110to_wstringEx) refers to new.cpp.o(.text._ZdlPv) for operator delete (void*)
    string.cpp.o(.text._ZNSt3__110to_wstringEx) refers to Unwind-EHABI.cpp.o(.text._Unwind_Resume) for _Unwind_Resume
    string.cpp.o(.ARM.extab.text._ZNSt3__110to_wstringEx) refers (Special) to _printf_d.o(.ARM.Collect$$_printf_percent$$00000009) for _printf_d
    string.cpp.o(.ARM.extab.text._ZNSt3__110to_wstringEx) refers (Special) to _printf_f.o(.ARM.Collect$$_printf_percent$$00000003) for _printf_f
    string.cpp.o(.ARM.extab.text._ZNSt3__110to_wstringEx) refers (Special) to printf1.o(x$fpl$printf1) for _printf_fp_dec
    string.cpp.o(.ARM.extab.text._ZNSt3__110to_wstringEx) refers (Special) to _printf_dec.o(.text) for _printf_int_dec
    string.cpp.o(.ARM.extab.text._ZNSt3__110to_wstringEx) refers (Special) to _printf_lld.o(.ARM.Collect$$_printf_percent$$0000000E) for _printf_lld
    string.cpp.o(.ARM.extab.text._ZNSt3__110to_wstringEx) refers (Special) to _printf_llu.o(.ARM.Collect$$_printf_percent$$0000000F) for _printf_llu
    string.cpp.o(.ARM.extab.text._ZNSt3__110to_wstringEx) refers (Special) to _printf_longlong_dec.o(.text) for _printf_longlong_dec
    string.cpp.o(.ARM.extab.text._ZNSt3__110to_wstringEx) refers (Special) to _printf_percent.o(.ARM.Collect$$_printf_percent$$00000000) for _printf_percent
    string.cpp.o(.ARM.extab.text._ZNSt3__110to_wstringEx) refers (Special) to _printf_u.o(.ARM.Collect$$_printf_percent$$0000000A) for _printf_u
    string.cpp.o(.ARM.extab.text._ZNSt3__110to_wstringEx) refers to cxa_personality.cpp.o(.text.__gxx_personality_v0) for __gxx_personality_v0
    string.cpp.o(.ARM.exidx.text._ZNSt3__110to_wstringEx) refers (Special) to _printf_d.o(.ARM.Collect$$_printf_percent$$00000009) for _printf_d
    string.cpp.o(.ARM.exidx.text._ZNSt3__110to_wstringEx) refers (Special) to _printf_f.o(.ARM.Collect$$_printf_percent$$00000003) for _printf_f
    string.cpp.o(.ARM.exidx.text._ZNSt3__110to_wstringEx) refers (Special) to printf1.o(x$fpl$printf1) for _printf_fp_dec
    string.cpp.o(.ARM.exidx.text._ZNSt3__110to_wstringEx) refers (Special) to _printf_dec.o(.text) for _printf_int_dec
    string.cpp.o(.ARM.exidx.text._ZNSt3__110to_wstringEx) refers (Special) to _printf_lld.o(.ARM.Collect$$_printf_percent$$0000000E) for _printf_lld
    string.cpp.o(.ARM.exidx.text._ZNSt3__110to_wstringEx) refers (Special) to _printf_llu.o(.ARM.Collect$$_printf_percent$$0000000F) for _printf_llu
    string.cpp.o(.ARM.exidx.text._ZNSt3__110to_wstringEx) refers (Special) to _printf_longlong_dec.o(.text) for _printf_longlong_dec
    string.cpp.o(.ARM.exidx.text._ZNSt3__110to_wstringEx) refers (Special) to _printf_percent.o(.ARM.Collect$$_printf_percent$$00000000) for _printf_percent
    string.cpp.o(.ARM.exidx.text._ZNSt3__110to_wstringEx) refers (Special) to _printf_u.o(.ARM.Collect$$_printf_percent$$0000000A) for _printf_u
    string.cpp.o(.ARM.exidx.text._ZNSt3__110to_wstringEx) refers to string.cpp.o(.text._ZNSt3__110to_wstringEx) for [Anonymous Symbol]
    string.cpp.o(.ARM.exidx.text._ZNSt3__110to_wstringEx) refers to string.cpp.o(.ARM.extab.text._ZNSt3__110to_wstringEx) for [Anonymous Symbol]
    string.cpp.o(.text._ZNSt3__110to_wstringEy) refers (Special) to _printf_d.o(.ARM.Collect$$_printf_percent$$00000009) for _printf_d
    string.cpp.o(.text._ZNSt3__110to_wstringEy) refers (Special) to _printf_f.o(.ARM.Collect$$_printf_percent$$00000003) for _printf_f
    string.cpp.o(.text._ZNSt3__110to_wstringEy) refers (Special) to printf1.o(x$fpl$printf1) for _printf_fp_dec
    string.cpp.o(.text._ZNSt3__110to_wstringEy) refers (Special) to _printf_dec.o(.text) for _printf_int_dec
    string.cpp.o(.text._ZNSt3__110to_wstringEy) refers (Special) to _printf_lld.o(.ARM.Collect$$_printf_percent$$0000000E) for _printf_lld
    string.cpp.o(.text._ZNSt3__110to_wstringEy) refers (Special) to _printf_llu.o(.ARM.Collect$$_printf_percent$$0000000F) for _printf_llu
    string.cpp.o(.text._ZNSt3__110to_wstringEy) refers (Special) to _printf_longlong_dec.o(.text) for _printf_longlong_dec
    string.cpp.o(.text._ZNSt3__110to_wstringEy) refers (Special) to _printf_percent.o(.ARM.Collect$$_printf_percent$$00000000) for _printf_percent
    string.cpp.o(.text._ZNSt3__110to_wstringEy) refers (Special) to _printf_u.o(.ARM.Collect$$_printf_percent$$0000000A) for _printf_u
    string.cpp.o(.text._ZNSt3__110to_wstringEy) refers to new.cpp.o(.text._Znwj) for operator new(unsigned)
    string.cpp.o(.text._ZNSt3__110to_wstringEy) refers to wmemset.o(.text) for wmemset
    string.cpp.o(.text._ZNSt3__110to_wstringEy) refers to string.cpp.o(.text._ZNSt3__112basic_stringIwNS_11char_traitsIwEENS_9allocatorIwEEE6resizeEjw) for std::__1::basic_string<wchar_t, std::__1::char_traits<wchar_t>, std::__1::allocator<wchar_t>>::resize(unsigned, wchar_t)
    string.cpp.o(.text._ZNSt3__110to_wstringEy) refers to string.cpp.o(.rodata.str2.2) for .L.str.22
    string.cpp.o(.text._ZNSt3__110to_wstringEy) refers to swprintf.o(.text) for swprintf
    string.cpp.o(.text._ZNSt3__110to_wstringEy) refers to string.cpp.o(.text.__clang_call_terminate) for __clang_call_terminate
    string.cpp.o(.text._ZNSt3__110to_wstringEy) refers to new.cpp.o(.text._ZdlPv) for operator delete (void*)
    string.cpp.o(.text._ZNSt3__110to_wstringEy) refers to Unwind-EHABI.cpp.o(.text._Unwind_Resume) for _Unwind_Resume
    string.cpp.o(.ARM.extab.text._ZNSt3__110to_wstringEy) refers (Special) to _printf_d.o(.ARM.Collect$$_printf_percent$$00000009) for _printf_d
    string.cpp.o(.ARM.extab.text._ZNSt3__110to_wstringEy) refers (Special) to _printf_f.o(.ARM.Collect$$_printf_percent$$00000003) for _printf_f
    string.cpp.o(.ARM.extab.text._ZNSt3__110to_wstringEy) refers (Special) to printf1.o(x$fpl$printf1) for _printf_fp_dec
    string.cpp.o(.ARM.extab.text._ZNSt3__110to_wstringEy) refers (Special) to _printf_dec.o(.text) for _printf_int_dec
    string.cpp.o(.ARM.extab.text._ZNSt3__110to_wstringEy) refers (Special) to _printf_lld.o(.ARM.Collect$$_printf_percent$$0000000E) for _printf_lld
    string.cpp.o(.ARM.extab.text._ZNSt3__110to_wstringEy) refers (Special) to _printf_llu.o(.ARM.Collect$$_printf_percent$$0000000F) for _printf_llu
    string.cpp.o(.ARM.extab.text._ZNSt3__110to_wstringEy) refers (Special) to _printf_longlong_dec.o(.text) for _printf_longlong_dec
    string.cpp.o(.ARM.extab.text._ZNSt3__110to_wstringEy) refers (Special) to _printf_percent.o(.ARM.Collect$$_printf_percent$$00000000) for _printf_percent
    string.cpp.o(.ARM.extab.text._ZNSt3__110to_wstringEy) refers (Special) to _printf_u.o(.ARM.Collect$$_printf_percent$$0000000A) for _printf_u
    string.cpp.o(.ARM.extab.text._ZNSt3__110to_wstringEy) refers to cxa_personality.cpp.o(.text.__gxx_personality_v0) for __gxx_personality_v0
    string.cpp.o(.ARM.exidx.text._ZNSt3__110to_wstringEy) refers (Special) to _printf_d.o(.ARM.Collect$$_printf_percent$$00000009) for _printf_d
    string.cpp.o(.ARM.exidx.text._ZNSt3__110to_wstringEy) refers (Special) to _printf_f.o(.ARM.Collect$$_printf_percent$$00000003) for _printf_f
    string.cpp.o(.ARM.exidx.text._ZNSt3__110to_wstringEy) refers (Special) to printf1.o(x$fpl$printf1) for _printf_fp_dec
    string.cpp.o(.ARM.exidx.text._ZNSt3__110to_wstringEy) refers (Special) to _printf_dec.o(.text) for _printf_int_dec
    string.cpp.o(.ARM.exidx.text._ZNSt3__110to_wstringEy) refers (Special) to _printf_lld.o(.ARM.Collect$$_printf_percent$$0000000E) for _printf_lld
    string.cpp.o(.ARM.exidx.text._ZNSt3__110to_wstringEy) refers (Special) to _printf_llu.o(.ARM.Collect$$_printf_percent$$0000000F) for _printf_llu
    string.cpp.o(.ARM.exidx.text._ZNSt3__110to_wstringEy) refers (Special) to _printf_longlong_dec.o(.text) for _printf_longlong_dec
    string.cpp.o(.ARM.exidx.text._ZNSt3__110to_wstringEy) refers (Special) to _printf_percent.o(.ARM.Collect$$_printf_percent$$00000000) for _printf_percent
    string.cpp.o(.ARM.exidx.text._ZNSt3__110to_wstringEy) refers (Special) to _printf_u.o(.ARM.Collect$$_printf_percent$$0000000A) for _printf_u
    string.cpp.o(.ARM.exidx.text._ZNSt3__110to_wstringEy) refers to string.cpp.o(.text._ZNSt3__110to_wstringEy) for [Anonymous Symbol]
    string.cpp.o(.ARM.exidx.text._ZNSt3__110to_wstringEy) refers to string.cpp.o(.ARM.extab.text._ZNSt3__110to_wstringEy) for [Anonymous Symbol]
    string.cpp.o(.text._ZNSt3__110to_wstringEf) refers (Special) to _printf_d.o(.ARM.Collect$$_printf_percent$$00000009) for _printf_d
    string.cpp.o(.text._ZNSt3__110to_wstringEf) refers (Special) to _printf_f.o(.ARM.Collect$$_printf_percent$$00000003) for _printf_f
    string.cpp.o(.text._ZNSt3__110to_wstringEf) refers (Special) to printf1.o(x$fpl$printf1) for _printf_fp_dec
    string.cpp.o(.text._ZNSt3__110to_wstringEf) refers (Special) to _printf_dec.o(.text) for _printf_int_dec
    string.cpp.o(.text._ZNSt3__110to_wstringEf) refers (Special) to _printf_lld.o(.ARM.Collect$$_printf_percent$$0000000E) for _printf_lld
    string.cpp.o(.text._ZNSt3__110to_wstringEf) refers (Special) to _printf_llu.o(.ARM.Collect$$_printf_percent$$0000000F) for _printf_llu
    string.cpp.o(.text._ZNSt3__110to_wstringEf) refers (Special) to _printf_longlong_dec.o(.text) for _printf_longlong_dec
    string.cpp.o(.text._ZNSt3__110to_wstringEf) refers (Special) to _printf_percent.o(.ARM.Collect$$_printf_percent$$00000000) for _printf_percent
    string.cpp.o(.text._ZNSt3__110to_wstringEf) refers (Special) to _printf_u.o(.ARM.Collect$$_printf_percent$$0000000A) for _printf_u
    string.cpp.o(.text._ZNSt3__110to_wstringEf) refers to new.cpp.o(.text._Znwj) for operator new(unsigned)
    string.cpp.o(.text._ZNSt3__110to_wstringEf) refers to wmemset.o(.text) for wmemset
    string.cpp.o(.text._ZNSt3__110to_wstringEf) refers to string.cpp.o(.text._ZNSt3__112basic_stringIwNS_11char_traitsIwEENS_9allocatorIwEEE6resizeEjw) for std::__1::basic_string<wchar_t, std::__1::char_traits<wchar_t>, std::__1::allocator<wchar_t>>::resize(unsigned, wchar_t)
    string.cpp.o(.text._ZNSt3__110to_wstringEf) refers to f2d.o(x$fpl$f2d) for __aeabi_f2d
    string.cpp.o(.text._ZNSt3__110to_wstringEf) refers to string.cpp.o(.rodata.str2.2) for .L.str.23
    string.cpp.o(.text._ZNSt3__110to_wstringEf) refers to swprintf.o(.text) for swprintf
    string.cpp.o(.text._ZNSt3__110to_wstringEf) refers to string.cpp.o(.text.__clang_call_terminate) for __clang_call_terminate
    string.cpp.o(.text._ZNSt3__110to_wstringEf) refers to new.cpp.o(.text._ZdlPv) for operator delete (void*)
    string.cpp.o(.text._ZNSt3__110to_wstringEf) refers to Unwind-EHABI.cpp.o(.text._Unwind_Resume) for _Unwind_Resume
    string.cpp.o(.ARM.extab.text._ZNSt3__110to_wstringEf) refers (Special) to _printf_d.o(.ARM.Collect$$_printf_percent$$00000009) for _printf_d
    string.cpp.o(.ARM.extab.text._ZNSt3__110to_wstringEf) refers (Special) to _printf_f.o(.ARM.Collect$$_printf_percent$$00000003) for _printf_f
    string.cpp.o(.ARM.extab.text._ZNSt3__110to_wstringEf) refers (Special) to printf1.o(x$fpl$printf1) for _printf_fp_dec
    string.cpp.o(.ARM.extab.text._ZNSt3__110to_wstringEf) refers (Special) to _printf_dec.o(.text) for _printf_int_dec
    string.cpp.o(.ARM.extab.text._ZNSt3__110to_wstringEf) refers (Special) to _printf_lld.o(.ARM.Collect$$_printf_percent$$0000000E) for _printf_lld
    string.cpp.o(.ARM.extab.text._ZNSt3__110to_wstringEf) refers (Special) to _printf_llu.o(.ARM.Collect$$_printf_percent$$0000000F) for _printf_llu
    string.cpp.o(.ARM.extab.text._ZNSt3__110to_wstringEf) refers (Special) to _printf_longlong_dec.o(.text) for _printf_longlong_dec
    string.cpp.o(.ARM.extab.text._ZNSt3__110to_wstringEf) refers (Special) to _printf_percent.o(.ARM.Collect$$_printf_percent$$00000000) for _printf_percent
    string.cpp.o(.ARM.extab.text._ZNSt3__110to_wstringEf) refers (Special) to _printf_u.o(.ARM.Collect$$_printf_percent$$0000000A) for _printf_u
    string.cpp.o(.ARM.extab.text._ZNSt3__110to_wstringEf) refers to cxa_personality.cpp.o(.text.__gxx_personality_v0) for __gxx_personality_v0
    string.cpp.o(.ARM.exidx.text._ZNSt3__110to_wstringEf) refers (Special) to _printf_d.o(.ARM.Collect$$_printf_percent$$00000009) for _printf_d
    string.cpp.o(.ARM.exidx.text._ZNSt3__110to_wstringEf) refers (Special) to _printf_f.o(.ARM.Collect$$_printf_percent$$00000003) for _printf_f
    string.cpp.o(.ARM.exidx.text._ZNSt3__110to_wstringEf) refers (Special) to printf1.o(x$fpl$printf1) for _printf_fp_dec
    string.cpp.o(.ARM.exidx.text._ZNSt3__110to_wstringEf) refers (Special) to _printf_dec.o(.text) for _printf_int_dec
    string.cpp.o(.ARM.exidx.text._ZNSt3__110to_wstringEf) refers (Special) to _printf_lld.o(.ARM.Collect$$_printf_percent$$0000000E) for _printf_lld
    string.cpp.o(.ARM.exidx.text._ZNSt3__110to_wstringEf) refers (Special) to _printf_llu.o(.ARM.Collect$$_printf_percent$$0000000F) for _printf_llu
    string.cpp.o(.ARM.exidx.text._ZNSt3__110to_wstringEf) refers (Special) to _printf_longlong_dec.o(.text) for _printf_longlong_dec
    string.cpp.o(.ARM.exidx.text._ZNSt3__110to_wstringEf) refers (Special) to _printf_percent.o(.ARM.Collect$$_printf_percent$$00000000) for _printf_percent
    string.cpp.o(.ARM.exidx.text._ZNSt3__110to_wstringEf) refers (Special) to _printf_u.o(.ARM.Collect$$_printf_percent$$0000000A) for _printf_u
    string.cpp.o(.ARM.exidx.text._ZNSt3__110to_wstringEf) refers to string.cpp.o(.text._ZNSt3__110to_wstringEf) for [Anonymous Symbol]
    string.cpp.o(.ARM.exidx.text._ZNSt3__110to_wstringEf) refers to string.cpp.o(.ARM.extab.text._ZNSt3__110to_wstringEf) for [Anonymous Symbol]
    string.cpp.o(.text._ZNSt3__110to_wstringEd) refers (Special) to _printf_d.o(.ARM.Collect$$_printf_percent$$00000009) for _printf_d
    string.cpp.o(.text._ZNSt3__110to_wstringEd) refers (Special) to _printf_f.o(.ARM.Collect$$_printf_percent$$00000003) for _printf_f
    string.cpp.o(.text._ZNSt3__110to_wstringEd) refers (Special) to printf1.o(x$fpl$printf1) for _printf_fp_dec
    string.cpp.o(.text._ZNSt3__110to_wstringEd) refers (Special) to _printf_dec.o(.text) for _printf_int_dec
    string.cpp.o(.text._ZNSt3__110to_wstringEd) refers (Special) to _printf_lld.o(.ARM.Collect$$_printf_percent$$0000000E) for _printf_lld
    string.cpp.o(.text._ZNSt3__110to_wstringEd) refers (Special) to _printf_llu.o(.ARM.Collect$$_printf_percent$$0000000F) for _printf_llu
    string.cpp.o(.text._ZNSt3__110to_wstringEd) refers (Special) to _printf_longlong_dec.o(.text) for _printf_longlong_dec
    string.cpp.o(.text._ZNSt3__110to_wstringEd) refers (Special) to _printf_percent.o(.ARM.Collect$$_printf_percent$$00000000) for _printf_percent
    string.cpp.o(.text._ZNSt3__110to_wstringEd) refers (Special) to _printf_u.o(.ARM.Collect$$_printf_percent$$0000000A) for _printf_u
    string.cpp.o(.text._ZNSt3__110to_wstringEd) refers to new.cpp.o(.text._Znwj) for operator new(unsigned)
    string.cpp.o(.text._ZNSt3__110to_wstringEd) refers to wmemset.o(.text) for wmemset
    string.cpp.o(.text._ZNSt3__110to_wstringEd) refers to string.cpp.o(.text._ZNSt3__112basic_stringIwNS_11char_traitsIwEENS_9allocatorIwEEE6resizeEjw) for std::__1::basic_string<wchar_t, std::__1::char_traits<wchar_t>, std::__1::allocator<wchar_t>>::resize(unsigned, wchar_t)
    string.cpp.o(.text._ZNSt3__110to_wstringEd) refers to string.cpp.o(.rodata.str2.2) for .L.str.23
    string.cpp.o(.text._ZNSt3__110to_wstringEd) refers to swprintf.o(.text) for swprintf
    string.cpp.o(.text._ZNSt3__110to_wstringEd) refers to string.cpp.o(.text.__clang_call_terminate) for __clang_call_terminate
    string.cpp.o(.text._ZNSt3__110to_wstringEd) refers to new.cpp.o(.text._ZdlPv) for operator delete (void*)
    string.cpp.o(.text._ZNSt3__110to_wstringEd) refers to Unwind-EHABI.cpp.o(.text._Unwind_Resume) for _Unwind_Resume
    string.cpp.o(.ARM.extab.text._ZNSt3__110to_wstringEd) refers (Special) to _printf_d.o(.ARM.Collect$$_printf_percent$$00000009) for _printf_d
    string.cpp.o(.ARM.extab.text._ZNSt3__110to_wstringEd) refers (Special) to _printf_f.o(.ARM.Collect$$_printf_percent$$00000003) for _printf_f
    string.cpp.o(.ARM.extab.text._ZNSt3__110to_wstringEd) refers (Special) to printf1.o(x$fpl$printf1) for _printf_fp_dec
    string.cpp.o(.ARM.extab.text._ZNSt3__110to_wstringEd) refers (Special) to _printf_dec.o(.text) for _printf_int_dec
    string.cpp.o(.ARM.extab.text._ZNSt3__110to_wstringEd) refers (Special) to _printf_lld.o(.ARM.Collect$$_printf_percent$$0000000E) for _printf_lld
    string.cpp.o(.ARM.extab.text._ZNSt3__110to_wstringEd) refers (Special) to _printf_llu.o(.ARM.Collect$$_printf_percent$$0000000F) for _printf_llu
    string.cpp.o(.ARM.extab.text._ZNSt3__110to_wstringEd) refers (Special) to _printf_longlong_dec.o(.text) for _printf_longlong_dec
    string.cpp.o(.ARM.extab.text._ZNSt3__110to_wstringEd) refers (Special) to _printf_percent.o(.ARM.Collect$$_printf_percent$$00000000) for _printf_percent
    string.cpp.o(.ARM.extab.text._ZNSt3__110to_wstringEd) refers (Special) to _printf_u.o(.ARM.Collect$$_printf_percent$$0000000A) for _printf_u
    string.cpp.o(.ARM.extab.text._ZNSt3__110to_wstringEd) refers to cxa_personality.cpp.o(.text.__gxx_personality_v0) for __gxx_personality_v0
    string.cpp.o(.ARM.exidx.text._ZNSt3__110to_wstringEd) refers (Special) to _printf_d.o(.ARM.Collect$$_printf_percent$$00000009) for _printf_d
    string.cpp.o(.ARM.exidx.text._ZNSt3__110to_wstringEd) refers (Special) to _printf_f.o(.ARM.Collect$$_printf_percent$$00000003) for _printf_f
    string.cpp.o(.ARM.exidx.text._ZNSt3__110to_wstringEd) refers (Special) to printf1.o(x$fpl$printf1) for _printf_fp_dec
    string.cpp.o(.ARM.exidx.text._ZNSt3__110to_wstringEd) refers (Special) to _printf_dec.o(.text) for _printf_int_dec
    string.cpp.o(.ARM.exidx.text._ZNSt3__110to_wstringEd) refers (Special) to _printf_lld.o(.ARM.Collect$$_printf_percent$$0000000E) for _printf_lld
    string.cpp.o(.ARM.exidx.text._ZNSt3__110to_wstringEd) refers (Special) to _printf_llu.o(.ARM.Collect$$_printf_percent$$0000000F) for _printf_llu
    string.cpp.o(.ARM.exidx.text._ZNSt3__110to_wstringEd) refers (Special) to _printf_longlong_dec.o(.text) for _printf_longlong_dec
    string.cpp.o(.ARM.exidx.text._ZNSt3__110to_wstringEd) refers (Special) to _printf_percent.o(.ARM.Collect$$_printf_percent$$00000000) for _printf_percent
    string.cpp.o(.ARM.exidx.text._ZNSt3__110to_wstringEd) refers (Special) to _printf_u.o(.ARM.Collect$$_printf_percent$$0000000A) for _printf_u
    string.cpp.o(.ARM.exidx.text._ZNSt3__110to_wstringEd) refers to string.cpp.o(.text._ZNSt3__110to_wstringEd) for [Anonymous Symbol]
    string.cpp.o(.ARM.exidx.text._ZNSt3__110to_wstringEd) refers to string.cpp.o(.ARM.extab.text._ZNSt3__110to_wstringEd) for [Anonymous Symbol]
    string.cpp.o(.text._ZNSt3__110to_wstringEe) refers (Special) to _printf_d.o(.ARM.Collect$$_printf_percent$$00000009) for _printf_d
    string.cpp.o(.text._ZNSt3__110to_wstringEe) refers (Special) to _printf_f.o(.ARM.Collect$$_printf_percent$$00000003) for _printf_f
    string.cpp.o(.text._ZNSt3__110to_wstringEe) refers (Special) to printf1.o(x$fpl$printf1) for _printf_fp_dec
    string.cpp.o(.text._ZNSt3__110to_wstringEe) refers (Special) to _printf_dec.o(.text) for _printf_int_dec
    string.cpp.o(.text._ZNSt3__110to_wstringEe) refers (Special) to _printf_lld.o(.ARM.Collect$$_printf_percent$$0000000E) for _printf_lld
    string.cpp.o(.text._ZNSt3__110to_wstringEe) refers (Special) to _printf_llu.o(.ARM.Collect$$_printf_percent$$0000000F) for _printf_llu
    string.cpp.o(.text._ZNSt3__110to_wstringEe) refers (Special) to _printf_longlong_dec.o(.text) for _printf_longlong_dec
    string.cpp.o(.text._ZNSt3__110to_wstringEe) refers (Special) to _printf_percent.o(.ARM.Collect$$_printf_percent$$00000000) for _printf_percent
    string.cpp.o(.text._ZNSt3__110to_wstringEe) refers (Special) to _printf_u.o(.ARM.Collect$$_printf_percent$$0000000A) for _printf_u
    string.cpp.o(.text._ZNSt3__110to_wstringEe) refers to new.cpp.o(.text._Znwj) for operator new(unsigned)
    string.cpp.o(.text._ZNSt3__110to_wstringEe) refers to wmemset.o(.text) for wmemset
    string.cpp.o(.text._ZNSt3__110to_wstringEe) refers to string.cpp.o(.text._ZNSt3__112basic_stringIwNS_11char_traitsIwEENS_9allocatorIwEEE6resizeEjw) for std::__1::basic_string<wchar_t, std::__1::char_traits<wchar_t>, std::__1::allocator<wchar_t>>::resize(unsigned, wchar_t)
    string.cpp.o(.text._ZNSt3__110to_wstringEe) refers to swprintf.o(.text) for swprintf
    string.cpp.o(.text._ZNSt3__110to_wstringEe) refers to string.cpp.o(.text.__clang_call_terminate) for __clang_call_terminate
    string.cpp.o(.text._ZNSt3__110to_wstringEe) refers to new.cpp.o(.text._ZdlPv) for operator delete (void*)
    string.cpp.o(.text._ZNSt3__110to_wstringEe) refers to Unwind-EHABI.cpp.o(.text._Unwind_Resume) for _Unwind_Resume
    string.cpp.o(.ARM.extab.text._ZNSt3__110to_wstringEe) refers (Special) to _printf_d.o(.ARM.Collect$$_printf_percent$$00000009) for _printf_d
    string.cpp.o(.ARM.extab.text._ZNSt3__110to_wstringEe) refers (Special) to _printf_f.o(.ARM.Collect$$_printf_percent$$00000003) for _printf_f
    string.cpp.o(.ARM.extab.text._ZNSt3__110to_wstringEe) refers (Special) to printf1.o(x$fpl$printf1) for _printf_fp_dec
    string.cpp.o(.ARM.extab.text._ZNSt3__110to_wstringEe) refers (Special) to _printf_dec.o(.text) for _printf_int_dec
    string.cpp.o(.ARM.extab.text._ZNSt3__110to_wstringEe) refers (Special) to _printf_lld.o(.ARM.Collect$$_printf_percent$$0000000E) for _printf_lld
    string.cpp.o(.ARM.extab.text._ZNSt3__110to_wstringEe) refers (Special) to _printf_llu.o(.ARM.Collect$$_printf_percent$$0000000F) for _printf_llu
    string.cpp.o(.ARM.extab.text._ZNSt3__110to_wstringEe) refers (Special) to _printf_longlong_dec.o(.text) for _printf_longlong_dec
    string.cpp.o(.ARM.extab.text._ZNSt3__110to_wstringEe) refers (Special) to _printf_percent.o(.ARM.Collect$$_printf_percent$$00000000) for _printf_percent
    string.cpp.o(.ARM.extab.text._ZNSt3__110to_wstringEe) refers (Special) to _printf_u.o(.ARM.Collect$$_printf_percent$$0000000A) for _printf_u
    string.cpp.o(.ARM.extab.text._ZNSt3__110to_wstringEe) refers to cxa_personality.cpp.o(.text.__gxx_personality_v0) for __gxx_personality_v0
    string.cpp.o(.ARM.exidx.text._ZNSt3__110to_wstringEe) refers (Special) to _printf_d.o(.ARM.Collect$$_printf_percent$$00000009) for _printf_d
    string.cpp.o(.ARM.exidx.text._ZNSt3__110to_wstringEe) refers (Special) to _printf_f.o(.ARM.Collect$$_printf_percent$$00000003) for _printf_f
    string.cpp.o(.ARM.exidx.text._ZNSt3__110to_wstringEe) refers (Special) to printf1.o(x$fpl$printf1) for _printf_fp_dec
    string.cpp.o(.ARM.exidx.text._ZNSt3__110to_wstringEe) refers (Special) to _printf_dec.o(.text) for _printf_int_dec
    string.cpp.o(.ARM.exidx.text._ZNSt3__110to_wstringEe) refers (Special) to _printf_lld.o(.ARM.Collect$$_printf_percent$$0000000E) for _printf_lld
    string.cpp.o(.ARM.exidx.text._ZNSt3__110to_wstringEe) refers (Special) to _printf_llu.o(.ARM.Collect$$_printf_percent$$0000000F) for _printf_llu
    string.cpp.o(.ARM.exidx.text._ZNSt3__110to_wstringEe) refers (Special) to _printf_longlong_dec.o(.text) for _printf_longlong_dec
    string.cpp.o(.ARM.exidx.text._ZNSt3__110to_wstringEe) refers (Special) to _printf_percent.o(.ARM.Collect$$_printf_percent$$00000000) for _printf_percent
    string.cpp.o(.ARM.exidx.text._ZNSt3__110to_wstringEe) refers (Special) to _printf_u.o(.ARM.Collect$$_printf_percent$$0000000A) for _printf_u
    string.cpp.o(.ARM.exidx.text._ZNSt3__110to_wstringEe) refers to string.cpp.o(.text._ZNSt3__110to_wstringEe) for [Anonymous Symbol]
    string.cpp.o(.ARM.exidx.text._ZNSt3__110to_wstringEe) refers to string.cpp.o(.ARM.extab.text._ZNSt3__110to_wstringEe) for [Anonymous Symbol]
    string.cpp.o(.rodata.str1.1) refers (Special) to _printf_d.o(.ARM.Collect$$_printf_percent$$00000009) for _printf_d
    string.cpp.o(.rodata.str1.1) refers (Special) to _printf_f.o(.ARM.Collect$$_printf_percent$$00000003) for _printf_f
    string.cpp.o(.rodata.str1.1) refers (Special) to printf1.o(x$fpl$printf1) for _printf_fp_dec
    string.cpp.o(.rodata.str1.1) refers (Special) to _printf_dec.o(.text) for _printf_int_dec
    string.cpp.o(.rodata.str1.1) refers (Special) to _printf_lld.o(.ARM.Collect$$_printf_percent$$0000000E) for _printf_lld
    string.cpp.o(.rodata.str1.1) refers (Special) to _printf_llu.o(.ARM.Collect$$_printf_percent$$0000000F) for _printf_llu
    string.cpp.o(.rodata.str1.1) refers (Special) to _printf_longlong_dec.o(.text) for _printf_longlong_dec
    string.cpp.o(.rodata.str1.1) refers (Special) to _printf_percent.o(.ARM.Collect$$_printf_percent$$00000000) for _printf_percent
    string.cpp.o(.rodata.str1.1) refers (Special) to _printf_u.o(.ARM.Collect$$_printf_percent$$0000000A) for _printf_u
    string.cpp.o(.rodata.str2.2) refers (Special) to _printf_d.o(.ARM.Collect$$_printf_percent$$00000009) for _printf_d
    string.cpp.o(.rodata.str2.2) refers (Special) to _printf_f.o(.ARM.Collect$$_printf_percent$$00000003) for _printf_f
    string.cpp.o(.rodata.str2.2) refers (Special) to printf1.o(x$fpl$printf1) for _printf_fp_dec
    string.cpp.o(.rodata.str2.2) refers (Special) to _printf_dec.o(.text) for _printf_int_dec
    string.cpp.o(.rodata.str2.2) refers (Special) to _printf_lld.o(.ARM.Collect$$_printf_percent$$0000000E) for _printf_lld
    string.cpp.o(.rodata.str2.2) refers (Special) to _printf_llu.o(.ARM.Collect$$_printf_percent$$0000000F) for _printf_llu
    string.cpp.o(.rodata.str2.2) refers (Special) to _printf_longlong_dec.o(.text) for _printf_longlong_dec
    string.cpp.o(.rodata.str2.2) refers (Special) to _printf_percent.o(.ARM.Collect$$_printf_percent$$00000000) for _printf_percent
    string.cpp.o(.rodata.str2.2) refers (Special) to _printf_u.o(.ARM.Collect$$_printf_percent$$0000000A) for _printf_u
    new.cpp.o(.text._ZSt17__throw_bad_allocv) refers to cxa_exception.cpp.o(.text.__cxa_allocate_exception) for __cxa_allocate_exception
    new.cpp.o(.text._ZSt17__throw_bad_allocv) refers to stdlib_exception.cpp.o(.text._ZNSt9bad_allocC2Ev) for std::bad_alloc::bad_alloc()
    new.cpp.o(.text._ZSt17__throw_bad_allocv) refers to stdlib_exception.cpp.o(.rodata._ZTISt9bad_alloc) for typeinfo for std::bad_alloc
    new.cpp.o(.text._ZSt17__throw_bad_allocv) refers to stdlib_exception.cpp.o(.text._ZNSt9exceptionD2Ev) for std::bad_alloc::~bad_alloc()
    new.cpp.o(.text._ZSt17__throw_bad_allocv) refers to cxa_exception.cpp.o(.text.__cxa_throw) for __cxa_throw
    new.cpp.o(.ARM.exidx.text._ZSt17__throw_bad_allocv) refers to Unwind-EHABI.cpp.o(.text.__aeabi_unwind_cpp_pr0) for __aeabi_unwind_cpp_pr0
    new.cpp.o(.ARM.exidx.text._ZSt17__throw_bad_allocv) refers to new.cpp.o(.text._ZSt17__throw_bad_allocv) for [Anonymous Symbol]
    new.cpp.o(.text._Znwj) refers to cxa_handlers.cpp.o(.text._ZSt15get_new_handlerv) for std::get_new_handler()
    new.cpp.o(.text._Znwj) refers to h1_alloc.o(.text) for malloc
    new.cpp.o(.text._Znwj) refers to cxa_exception.cpp.o(.text.__cxa_allocate_exception) for __cxa_allocate_exception
    new.cpp.o(.text._Znwj) refers to stdlib_exception.cpp.o(.text._ZNSt9bad_allocC2Ev) for std::bad_alloc::bad_alloc()
    new.cpp.o(.text._Znwj) refers to stdlib_exception.cpp.o(.rodata._ZTISt9bad_alloc) for typeinfo for std::bad_alloc
    new.cpp.o(.text._Znwj) refers to stdlib_exception.cpp.o(.text._ZNSt9exceptionD2Ev) for std::bad_alloc::~bad_alloc()
    new.cpp.o(.text._Znwj) refers to cxa_exception.cpp.o(.text.__cxa_throw) for __cxa_throw
    new.cpp.o(.ARM.exidx.text._Znwj) refers to Unwind-EHABI.cpp.o(.text.__aeabi_unwind_cpp_pr0) for __aeabi_unwind_cpp_pr0
    new.cpp.o(.ARM.exidx.text._Znwj) refers to new.cpp.o(.text._Znwj) for [Anonymous Symbol]
    new.cpp.o(.text._ZnwjRKSt9nothrow_t) refers to new.cpp.o(.text._Znwj) for operator new(unsigned)
    new.cpp.o(.text._ZnwjRKSt9nothrow_t) refers to cxa_exception.cpp.o(.text.__cxa_begin_catch) for __cxa_begin_catch
    new.cpp.o(.text._ZnwjRKSt9nothrow_t) refers to cxa_exception.cpp.o(.text.__cxa_end_catch) for __cxa_end_catch
    new.cpp.o(.text._ZnwjRKSt9nothrow_t) refers to string.cpp.o(.text.__clang_call_terminate) for __clang_call_terminate
    new.cpp.o(.ARM.extab.text._ZnwjRKSt9nothrow_t) refers to cxa_personality.cpp.o(.text.__gxx_personality_v0) for __gxx_personality_v0
    new.cpp.o(.ARM.exidx.text._ZnwjRKSt9nothrow_t) refers to new.cpp.o(.text._ZnwjRKSt9nothrow_t) for [Anonymous Symbol]
    new.cpp.o(.ARM.exidx.text._ZnwjRKSt9nothrow_t) refers to new.cpp.o(.ARM.extab.text._ZnwjRKSt9nothrow_t) for [Anonymous Symbol]
    new.cpp.o(.text._Znaj) refers to new.cpp.o(.text._Znwj) for operator new(unsigned)
    new.cpp.o(.ARM.exidx.text._Znaj) refers to Unwind-EHABI.cpp.o(.text.__aeabi_unwind_cpp_pr0) for __aeabi_unwind_cpp_pr0
    new.cpp.o(.ARM.exidx.text._Znaj) refers to new.cpp.o(.text._Znaj) for [Anonymous Symbol]
    new.cpp.o(.text._ZnajRKSt9nothrow_t) refers to new.cpp.o(.text._Znaj) for operator new[] (unsigned)
    new.cpp.o(.text._ZnajRKSt9nothrow_t) refers to cxa_exception.cpp.o(.text.__cxa_begin_catch) for __cxa_begin_catch
    new.cpp.o(.text._ZnajRKSt9nothrow_t) refers to cxa_exception.cpp.o(.text.__cxa_end_catch) for __cxa_end_catch
    new.cpp.o(.text._ZnajRKSt9nothrow_t) refers to string.cpp.o(.text.__clang_call_terminate) for __clang_call_terminate
    new.cpp.o(.ARM.extab.text._ZnajRKSt9nothrow_t) refers to cxa_personality.cpp.o(.text.__gxx_personality_v0) for __gxx_personality_v0
    new.cpp.o(.ARM.exidx.text._ZnajRKSt9nothrow_t) refers to new.cpp.o(.text._ZnajRKSt9nothrow_t) for [Anonymous Symbol]
    new.cpp.o(.ARM.exidx.text._ZnajRKSt9nothrow_t) refers to new.cpp.o(.ARM.extab.text._ZnajRKSt9nothrow_t) for [Anonymous Symbol]
    new.cpp.o(.text._ZdlPv) refers to h1_free.o(.text) for free
    new.cpp.o(.ARM.exidx.text._ZdlPv) refers to Unwind-EHABI.cpp.o(.text.__aeabi_unwind_cpp_pr0) for __aeabi_unwind_cpp_pr0
    new.cpp.o(.ARM.exidx.text._ZdlPv) refers to new.cpp.o(.text._ZdlPv) for [Anonymous Symbol]
    new.cpp.o(.text._ZdlPvRKSt9nothrow_t) refers to new.cpp.o(.text._ZdlPv) for operator delete (void*)
    new.cpp.o(.ARM.exidx.text._ZdlPvRKSt9nothrow_t) refers to Unwind-EHABI.cpp.o(.text.__aeabi_unwind_cpp_pr0) for __aeabi_unwind_cpp_pr0
    new.cpp.o(.ARM.exidx.text._ZdlPvRKSt9nothrow_t) refers to new.cpp.o(.text._ZdlPvRKSt9nothrow_t) for [Anonymous Symbol]
    new.cpp.o(.text._ZdlPvj) refers to new.cpp.o(.text._ZdlPv) for operator delete (void*)
    new.cpp.o(.ARM.exidx.text._ZdlPvj) refers to Unwind-EHABI.cpp.o(.text.__aeabi_unwind_cpp_pr0) for __aeabi_unwind_cpp_pr0
    new.cpp.o(.ARM.exidx.text._ZdlPvj) refers to new.cpp.o(.text._ZdlPvj) for [Anonymous Symbol]
    new.cpp.o(.text._ZdaPv) refers to new.cpp.o(.text._ZdlPv) for operator delete (void*)
    new.cpp.o(.ARM.exidx.text._ZdaPv) refers to Unwind-EHABI.cpp.o(.text.__aeabi_unwind_cpp_pr0) for __aeabi_unwind_cpp_pr0
    new.cpp.o(.ARM.exidx.text._ZdaPv) refers to new.cpp.o(.text._ZdaPv) for [Anonymous Symbol]
    new.cpp.o(.text._ZdaPvRKSt9nothrow_t) refers to new.cpp.o(.text._ZdaPv) for operator delete[] (void*)
    new.cpp.o(.ARM.exidx.text._ZdaPvRKSt9nothrow_t) refers to Unwind-EHABI.cpp.o(.text.__aeabi_unwind_cpp_pr0) for __aeabi_unwind_cpp_pr0
    new.cpp.o(.ARM.exidx.text._ZdaPvRKSt9nothrow_t) refers to new.cpp.o(.text._ZdaPvRKSt9nothrow_t) for [Anonymous Symbol]
    new.cpp.o(.text._ZdaPvj) refers to new.cpp.o(.text._ZdaPv) for operator delete[] (void*)
    new.cpp.o(.ARM.exidx.text._ZdaPvj) refers to Unwind-EHABI.cpp.o(.text.__aeabi_unwind_cpp_pr0) for __aeabi_unwind_cpp_pr0
    new.cpp.o(.ARM.exidx.text._ZdaPvj) refers to new.cpp.o(.text._ZdaPvj) for [Anonymous Symbol]
    new.cpp.o(.text._ZnwjSt11align_val_t) refers to h1_memalign.o(.text) for posix_memalign
    new.cpp.o(.text._ZnwjSt11align_val_t) refers to cxa_handlers.cpp.o(.text._ZSt15get_new_handlerv) for std::get_new_handler()
    new.cpp.o(.text._ZnwjSt11align_val_t) refers to cxa_exception.cpp.o(.text.__cxa_allocate_exception) for __cxa_allocate_exception
    new.cpp.o(.text._ZnwjSt11align_val_t) refers to stdlib_exception.cpp.o(.text._ZNSt9bad_allocC2Ev) for std::bad_alloc::bad_alloc()
    new.cpp.o(.text._ZnwjSt11align_val_t) refers to stdlib_exception.cpp.o(.rodata._ZTISt9bad_alloc) for typeinfo for std::bad_alloc
    new.cpp.o(.text._ZnwjSt11align_val_t) refers to stdlib_exception.cpp.o(.text._ZNSt9exceptionD2Ev) for std::bad_alloc::~bad_alloc()
    new.cpp.o(.text._ZnwjSt11align_val_t) refers to cxa_exception.cpp.o(.text.__cxa_throw) for __cxa_throw
    new.cpp.o(.ARM.exidx.text._ZnwjSt11align_val_t) refers to Unwind-EHABI.cpp.o(.text.__aeabi_unwind_cpp_pr0) for __aeabi_unwind_cpp_pr0
    new.cpp.o(.ARM.exidx.text._ZnwjSt11align_val_t) refers to new.cpp.o(.text._ZnwjSt11align_val_t) for [Anonymous Symbol]
    new.cpp.o(.text._ZnwjSt11align_val_tRKSt9nothrow_t) refers to new.cpp.o(.text._ZnwjSt11align_val_t) for operator new(unsigned, std::align_val_t)
    new.cpp.o(.text._ZnwjSt11align_val_tRKSt9nothrow_t) refers to cxa_exception.cpp.o(.text.__cxa_begin_catch) for __cxa_begin_catch
    new.cpp.o(.text._ZnwjSt11align_val_tRKSt9nothrow_t) refers to cxa_exception.cpp.o(.text.__cxa_end_catch) for __cxa_end_catch
    new.cpp.o(.text._ZnwjSt11align_val_tRKSt9nothrow_t) refers to string.cpp.o(.text.__clang_call_terminate) for __clang_call_terminate
    new.cpp.o(.ARM.extab.text._ZnwjSt11align_val_tRKSt9nothrow_t) refers to cxa_personality.cpp.o(.text.__gxx_personality_v0) for __gxx_personality_v0
    new.cpp.o(.ARM.exidx.text._ZnwjSt11align_val_tRKSt9nothrow_t) refers to new.cpp.o(.text._ZnwjSt11align_val_tRKSt9nothrow_t) for [Anonymous Symbol]
    new.cpp.o(.ARM.exidx.text._ZnwjSt11align_val_tRKSt9nothrow_t) refers to new.cpp.o(.ARM.extab.text._ZnwjSt11align_val_tRKSt9nothrow_t) for [Anonymous Symbol]
    new.cpp.o(.text._ZnajSt11align_val_t) refers to new.cpp.o(.text._ZnwjSt11align_val_t) for operator new(unsigned, std::align_val_t)
    new.cpp.o(.ARM.exidx.text._ZnajSt11align_val_t) refers to Unwind-EHABI.cpp.o(.text.__aeabi_unwind_cpp_pr0) for __aeabi_unwind_cpp_pr0
    new.cpp.o(.ARM.exidx.text._ZnajSt11align_val_t) refers to new.cpp.o(.text._ZnajSt11align_val_t) for [Anonymous Symbol]
    new.cpp.o(.text._ZnajSt11align_val_tRKSt9nothrow_t) refers to new.cpp.o(.text._ZnajSt11align_val_t) for operator new[] (unsigned, std::align_val_t)
    new.cpp.o(.text._ZnajSt11align_val_tRKSt9nothrow_t) refers to cxa_exception.cpp.o(.text.__cxa_begin_catch) for __cxa_begin_catch
    new.cpp.o(.text._ZnajSt11align_val_tRKSt9nothrow_t) refers to cxa_exception.cpp.o(.text.__cxa_end_catch) for __cxa_end_catch
    new.cpp.o(.text._ZnajSt11align_val_tRKSt9nothrow_t) refers to string.cpp.o(.text.__clang_call_terminate) for __clang_call_terminate
    new.cpp.o(.ARM.extab.text._ZnajSt11align_val_tRKSt9nothrow_t) refers to cxa_personality.cpp.o(.text.__gxx_personality_v0) for __gxx_personality_v0
    new.cpp.o(.ARM.exidx.text._ZnajSt11align_val_tRKSt9nothrow_t) refers to new.cpp.o(.text._ZnajSt11align_val_tRKSt9nothrow_t) for [Anonymous Symbol]
    new.cpp.o(.ARM.exidx.text._ZnajSt11align_val_tRKSt9nothrow_t) refers to new.cpp.o(.ARM.extab.text._ZnajSt11align_val_tRKSt9nothrow_t) for [Anonymous Symbol]
    new.cpp.o(.text._ZdlPvSt11align_val_t) refers to h1_free.o(.text) for free
    new.cpp.o(.ARM.exidx.text._ZdlPvSt11align_val_t) refers to Unwind-EHABI.cpp.o(.text.__aeabi_unwind_cpp_pr0) for __aeabi_unwind_cpp_pr0
    new.cpp.o(.ARM.exidx.text._ZdlPvSt11align_val_t) refers to new.cpp.o(.text._ZdlPvSt11align_val_t) for [Anonymous Symbol]
    new.cpp.o(.text._ZdlPvSt11align_val_tRKSt9nothrow_t) refers to new.cpp.o(.text._ZdlPvSt11align_val_t) for operator delete (void*, std::align_val_t)
    new.cpp.o(.ARM.exidx.text._ZdlPvSt11align_val_tRKSt9nothrow_t) refers to Unwind-EHABI.cpp.o(.text.__aeabi_unwind_cpp_pr0) for __aeabi_unwind_cpp_pr0
    new.cpp.o(.ARM.exidx.text._ZdlPvSt11align_val_tRKSt9nothrow_t) refers to new.cpp.o(.text._ZdlPvSt11align_val_tRKSt9nothrow_t) for [Anonymous Symbol]
    new.cpp.o(.text._ZdlPvjSt11align_val_t) refers to new.cpp.o(.text._ZdlPvSt11align_val_t) for operator delete (void*, std::align_val_t)
    new.cpp.o(.ARM.exidx.text._ZdlPvjSt11align_val_t) refers to Unwind-EHABI.cpp.o(.text.__aeabi_unwind_cpp_pr0) for __aeabi_unwind_cpp_pr0
    new.cpp.o(.ARM.exidx.text._ZdlPvjSt11align_val_t) refers to new.cpp.o(.text._ZdlPvjSt11align_val_t) for [Anonymous Symbol]
    new.cpp.o(.text._ZdaPvSt11align_val_t) refers to new.cpp.o(.text._ZdlPvSt11align_val_t) for operator delete (void*, std::align_val_t)
    new.cpp.o(.ARM.exidx.text._ZdaPvSt11align_val_t) refers to Unwind-EHABI.cpp.o(.text.__aeabi_unwind_cpp_pr0) for __aeabi_unwind_cpp_pr0
    new.cpp.o(.ARM.exidx.text._ZdaPvSt11align_val_t) refers to new.cpp.o(.text._ZdaPvSt11align_val_t) for [Anonymous Symbol]
    new.cpp.o(.text._ZdaPvSt11align_val_tRKSt9nothrow_t) refers to new.cpp.o(.text._ZdaPvSt11align_val_t) for operator delete[] (void*, std::align_val_t)
    new.cpp.o(.ARM.exidx.text._ZdaPvSt11align_val_tRKSt9nothrow_t) refers to Unwind-EHABI.cpp.o(.text.__aeabi_unwind_cpp_pr0) for __aeabi_unwind_cpp_pr0
    new.cpp.o(.ARM.exidx.text._ZdaPvSt11align_val_tRKSt9nothrow_t) refers to new.cpp.o(.text._ZdaPvSt11align_val_tRKSt9nothrow_t) for [Anonymous Symbol]
    new.cpp.o(.text._ZdaPvjSt11align_val_t) refers to new.cpp.o(.text._ZdaPvSt11align_val_t) for operator delete[] (void*, std::align_val_t)
    new.cpp.o(.ARM.exidx.text._ZdaPvjSt11align_val_t) refers to Unwind-EHABI.cpp.o(.text.__aeabi_unwind_cpp_pr0) for __aeabi_unwind_cpp_pr0
    new.cpp.o(.ARM.exidx.text._ZdaPvjSt11align_val_t) refers to new.cpp.o(.text._ZdaPvjSt11align_val_t) for [Anonymous Symbol]
    cxa_guard.cpp.o(.ARM.exidx.text.__cxa_guard_acquire) refers to Unwind-EHABI.cpp.o(.text.__aeabi_unwind_cpp_pr0) for __aeabi_unwind_cpp_pr0
    cxa_guard.cpp.o(.ARM.exidx.text.__cxa_guard_acquire) refers to cxa_guard.cpp.o(.text.__cxa_guard_acquire) for [Anonymous Symbol]
    cxa_guard.cpp.o(.ARM.exidx.text.__cxa_guard_release) refers to Unwind-EHABI.cpp.o(.text.__aeabi_unwind_cpp_pr0) for __aeabi_unwind_cpp_pr0
    cxa_guard.cpp.o(.ARM.exidx.text.__cxa_guard_release) refers to cxa_guard.cpp.o(.text.__cxa_guard_release) for [Anonymous Symbol]
    cxa_guard.cpp.o(.ARM.exidx.text.__cxa_guard_abort) refers to Unwind-EHABI.cpp.o(.text.__aeabi_unwind_cpp_pr0) for __aeabi_unwind_cpp_pr0
    cxa_guard.cpp.o(.ARM.exidx.text.__cxa_guard_abort) refers to cxa_guard.cpp.o(.text.__cxa_guard_abort) for [Anonymous Symbol]
    cxa_personality.cpp.o(.text.__gxx_personality_v0) refers to cxa_personality.cpp.o(.text._ZN10__cxxabiv1L11scan_eh_tabERNS_12_GLOBAL__N_112scan_resultsE14_Unwind_ActionbP21_Unwind_Control_BlockP15_Unwind_Context) for _ZN10__cxxabiv1L11scan_eh_tabERNS_12_GLOBAL__N_112scan_resultsE14_Unwind_ActionbP21_Unwind_Control_BlockP15_Unwind_Context
    cxa_personality.cpp.o(.text.__gxx_personality_v0) refers to Unwind-EHABI.cpp.o(.text._Unwind_VRS_Get) for _Unwind_VRS_Get
    cxa_personality.cpp.o(.text.__gxx_personality_v0) refers to cxa_exception.cpp.o(.text.__cxa_begin_cleanup) for __cxa_begin_cleanup
    cxa_personality.cpp.o(.text.__gxx_personality_v0) refers to Unwind-EHABI.cpp.o(.text.__gnu_unwind_frame) for __gnu_unwind_frame
    cxa_personality.cpp.o(.text.__gxx_personality_v0) refers to cxa_personality.cpp.o(.text._ZN10__cxxabiv1L13set_registersEP21_Unwind_Control_BlockP15_Unwind_ContextRKNS_12_GLOBAL__N_112scan_resultsE) for _ZN10__cxxabiv1L13set_registersEP21_Unwind_Control_BlockP15_Unwind_ContextRKNS_12_GLOBAL__N_112scan_resultsE
    cxa_personality.cpp.o(.text.__gxx_personality_v0) refers to cxa_personality.cpp.o(.text._ZN10__cxxabiv1L14call_terminateEbP21_Unwind_Control_Block) for _ZN10__cxxabiv1L14call_terminateEbP21_Unwind_Control_Block
    cxa_personality.cpp.o(.ARM.exidx.text.__gxx_personality_v0) refers to Unwind-EHABI.cpp.o(.text.__aeabi_unwind_cpp_pr0) for __aeabi_unwind_cpp_pr0
    cxa_personality.cpp.o(.ARM.exidx.text.__gxx_personality_v0) refers to cxa_personality.cpp.o(.text.__gxx_personality_v0) for [Anonymous Symbol]
    cxa_personality.cpp.o(.text._ZN10__cxxabiv1L11scan_eh_tabERNS_12_GLOBAL__N_112scan_resultsE14_Unwind_ActionbP21_Unwind_Control_BlockP15_Unwind_Context) refers to rt_memclr_w.o(.text) for __aeabi_memclr8
    cxa_personality.cpp.o(.text._ZN10__cxxabiv1L11scan_eh_tabERNS_12_GLOBAL__N_112scan_resultsE14_Unwind_ActionbP21_Unwind_Control_BlockP15_Unwind_Context) refers to Unwind-EHABI.cpp.o(.text._Unwind_GetLanguageSpecificData) for _Unwind_GetLanguageSpecificData
    cxa_personality.cpp.o(.text._ZN10__cxxabiv1L11scan_eh_tabERNS_12_GLOBAL__N_112scan_resultsE14_Unwind_ActionbP21_Unwind_Control_BlockP15_Unwind_Context) refers to Unwind-EHABI.cpp.o(.text._Unwind_VRS_Get) for _Unwind_VRS_Get
    cxa_personality.cpp.o(.text._ZN10__cxxabiv1L11scan_eh_tabERNS_12_GLOBAL__N_112scan_resultsE14_Unwind_ActionbP21_Unwind_Control_BlockP15_Unwind_Context) refers to Unwind-EHABI.cpp.o(.text._Unwind_GetRegionStart) for _Unwind_GetRegionStart
    cxa_personality.cpp.o(.text._ZN10__cxxabiv1L11scan_eh_tabERNS_12_GLOBAL__N_112scan_resultsE14_Unwind_ActionbP21_Unwind_Control_BlockP15_Unwind_Context) refers to cxa_personality.cpp.o(.text._ZN10__cxxabiv1L18readEncodedPointerEPPKhh) for _ZN10__cxxabiv1L18readEncodedPointerEPPKhh
    cxa_personality.cpp.o(.text._ZN10__cxxabiv1L11scan_eh_tabERNS_12_GLOBAL__N_112scan_resultsE14_Unwind_ActionbP21_Unwind_Control_BlockP15_Unwind_Context) refers to cxa_personality.cpp.o(.text._ZN10__cxxabiv1L14call_terminateEbP21_Unwind_Control_Block) for _ZN10__cxxabiv1L14call_terminateEbP21_Unwind_Control_Block
    cxa_personality.cpp.o(.text._ZN10__cxxabiv1L11scan_eh_tabERNS_12_GLOBAL__N_112scan_resultsE14_Unwind_ActionbP21_Unwind_Control_BlockP15_Unwind_Context) refers to cxa_personality.cpp.o(.text._ZN10__cxxabiv1L24exception_spec_can_catchExPKhhPKNS_16__shim_type_infoEPvP21_Unwind_Control_Block) for _ZN10__cxxabiv1L24exception_spec_can_catchExPKhhPKNS_16__shim_type_infoEPvP21_Unwind_Control_Block
    cxa_personality.cpp.o(.ARM.exidx.text._ZN10__cxxabiv1L11scan_eh_tabERNS_12_GLOBAL__N_112scan_resultsE14_Unwind_ActionbP21_Unwind_Control_BlockP15_Unwind_Context) refers to Unwind-EHABI.cpp.o(.text.__aeabi_unwind_cpp_pr0) for __aeabi_unwind_cpp_pr0
    cxa_personality.cpp.o(.ARM.exidx.text._ZN10__cxxabiv1L11scan_eh_tabERNS_12_GLOBAL__N_112scan_resultsE14_Unwind_ActionbP21_Unwind_Control_BlockP15_Unwind_Context) refers to cxa_personality.cpp.o(.text._ZN10__cxxabiv1L11scan_eh_tabERNS_12_GLOBAL__N_112scan_resultsE14_Unwind_ActionbP21_Unwind_Control_BlockP15_Unwind_Context) for [Anonymous Symbol]
    cxa_personality.cpp.o(.text._ZN10__cxxabiv1L14call_terminateEbP21_Unwind_Control_Block) refers to cxa_exception.cpp.o(.text.__cxa_begin_catch) for __cxa_begin_catch
    cxa_personality.cpp.o(.text._ZN10__cxxabiv1L14call_terminateEbP21_Unwind_Control_Block) refers to cxa_handlers.cpp.o(.text._ZSt11__terminatePFvvE) for std::__terminate(void(*)())
    cxa_personality.cpp.o(.text._ZN10__cxxabiv1L14call_terminateEbP21_Unwind_Control_Block) refers to cxa_handlers.cpp.o(.text._ZSt9terminatev) for std::terminate()
    cxa_personality.cpp.o(.ARM.exidx.text._ZN10__cxxabiv1L14call_terminateEbP21_Unwind_Control_Block) refers to Unwind-EHABI.cpp.o(.text.__aeabi_unwind_cpp_pr0) for __aeabi_unwind_cpp_pr0
    cxa_personality.cpp.o(.ARM.exidx.text._ZN10__cxxabiv1L14call_terminateEbP21_Unwind_Control_Block) refers to cxa_personality.cpp.o(.text._ZN10__cxxabiv1L14call_terminateEbP21_Unwind_Control_Block) for [Anonymous Symbol]
    cxa_personality.cpp.o(.text._ZN10__cxxabiv1L13set_registersEP21_Unwind_Control_BlockP15_Unwind_ContextRKNS_12_GLOBAL__N_112scan_resultsE) refers to Unwind-EHABI.cpp.o(.text._Unwind_VRS_Set) for _Unwind_VRS_Set
    cxa_personality.cpp.o(.text._ZN10__cxxabiv1L13set_registersEP21_Unwind_Control_BlockP15_Unwind_ContextRKNS_12_GLOBAL__N_112scan_resultsE) refers to Unwind-EHABI.cpp.o(.text._Unwind_VRS_Get) for _Unwind_VRS_Get
    cxa_personality.cpp.o(.ARM.exidx.text._ZN10__cxxabiv1L13set_registersEP21_Unwind_Control_BlockP15_Unwind_ContextRKNS_12_GLOBAL__N_112scan_resultsE) refers to Unwind-EHABI.cpp.o(.text.__aeabi_unwind_cpp_pr0) for __aeabi_unwind_cpp_pr0
    cxa_personality.cpp.o(.ARM.exidx.text._ZN10__cxxabiv1L13set_registersEP21_Unwind_Control_BlockP15_Unwind_ContextRKNS_12_GLOBAL__N_112scan_resultsE) refers to cxa_personality.cpp.o(.text._ZN10__cxxabiv1L13set_registersEP21_Unwind_Control_BlockP15_Unwind_ContextRKNS_12_GLOBAL__N_112scan_resultsE) for [Anonymous Symbol]
    cxa_personality.cpp.o(.text.__cxa_call_unexpected) refers to cxa_personality.cpp.o(.text._ZN10__cxxabiv1L14call_terminateEbP21_Unwind_Control_Block) for _ZN10__cxxabiv1L14call_terminateEbP21_Unwind_Control_Block
    cxa_personality.cpp.o(.text.__cxa_call_unexpected) refers to cxa_exception.cpp.o(.text.__cxa_begin_catch) for __cxa_begin_catch
    cxa_personality.cpp.o(.text.__cxa_call_unexpected) refers to cxa_handlers.cpp.o(.text._ZSt13get_terminatev) for std::get_terminate()
    cxa_personality.cpp.o(.text.__cxa_call_unexpected) refers to cxa_handlers.cpp.o(.text._ZSt14get_unexpectedv) for std::get_unexpected()
    cxa_personality.cpp.o(.text.__cxa_call_unexpected) refers to cxa_handlers.cpp.o(.text._ZSt12__unexpectedPFvvE) for std::__unexpected(void(*)())
    cxa_personality.cpp.o(.text.__cxa_call_unexpected) refers to cxa_personality.cpp.o(.text._ZN10__cxxabiv1L18readEncodedPointerEPPKhh) for _ZN10__cxxabiv1L18readEncodedPointerEPPKhh
    cxa_personality.cpp.o(.text.__cxa_call_unexpected) refers to cxa_exception_storage.cpp.o(.text.__cxa_get_globals_fast) for __cxa_get_globals_fast
    cxa_personality.cpp.o(.text.__cxa_call_unexpected) refers to cxa_personality.cpp.o(.text._ZN10__cxxabiv1L24exception_spec_can_catchExPKhhPKNS_16__shim_type_infoEPvP21_Unwind_Control_Block) for _ZN10__cxxabiv1L24exception_spec_can_catchExPKhhPKNS_16__shim_type_infoEPvP21_Unwind_Control_Block
    cxa_personality.cpp.o(.text.__cxa_call_unexpected) refers to stdlib_exception.cpp.o(.rodata._ZTVSt13bad_exception) for vtable for std::bad_exception
    cxa_personality.cpp.o(.text.__cxa_call_unexpected) refers to stdlib_exception.cpp.o(.rodata._ZTISt13bad_exception) for typeinfo for std::bad_exception
    cxa_personality.cpp.o(.text.__cxa_call_unexpected) refers to cxa_exception.cpp.o(.text.__cxa_end_catch) for __cxa_end_catch
    cxa_personality.cpp.o(.text.__cxa_call_unexpected) refers to cxa_handlers.cpp.o(.text._ZSt11__terminatePFvvE) for std::__terminate(void(*)())
    cxa_personality.cpp.o(.text.__cxa_call_unexpected) refers to cxa_exception.cpp.o(.text.__cxa_allocate_exception) for __cxa_allocate_exception
    cxa_personality.cpp.o(.text.__cxa_call_unexpected) refers to stdlib_exception.cpp.o(.text._ZNSt9exceptionD2Ev) for std::bad_exception::~bad_exception()
    cxa_personality.cpp.o(.text.__cxa_call_unexpected) refers to cxa_exception.cpp.o(.text.__cxa_throw) for __cxa_throw
    cxa_personality.cpp.o(.text.__cxa_call_unexpected) refers to cxa_exception.cpp.o(.text.__cxa_rethrow) for __cxa_rethrow
    cxa_personality.cpp.o(.text.__cxa_call_unexpected) refers to Unwind-EHABI.cpp.o(.text._Unwind_Resume) for _Unwind_Resume
    cxa_personality.cpp.o(.text.__cxa_call_unexpected) refers to string.cpp.o(.text.__clang_call_terminate) for __clang_call_terminate
    cxa_personality.cpp.o(.ARM.extab.text.__cxa_call_unexpected) refers to cxa_personality.cpp.o(.text.__gxx_personality_v0) for __gxx_personality_v0
    cxa_personality.cpp.o(.ARM.exidx.text.__cxa_call_unexpected) refers to cxa_personality.cpp.o(.text.__cxa_call_unexpected) for [Anonymous Symbol]
    cxa_personality.cpp.o(.ARM.exidx.text.__cxa_call_unexpected) refers to cxa_personality.cpp.o(.ARM.extab.text.__cxa_call_unexpected) for [Anonymous Symbol]
    cxa_personality.cpp.o(.text._ZN10__cxxabiv1L18readEncodedPointerEPPKhh) refers to abort.o(.text) for abort
    cxa_personality.cpp.o(.ARM.exidx.text._ZN10__cxxabiv1L18readEncodedPointerEPPKhh) refers to Unwind-EHABI.cpp.o(.text.__aeabi_unwind_cpp_pr0) for __aeabi_unwind_cpp_pr0
    cxa_personality.cpp.o(.ARM.exidx.text._ZN10__cxxabiv1L18readEncodedPointerEPPKhh) refers to cxa_personality.cpp.o(.text._ZN10__cxxabiv1L18readEncodedPointerEPPKhh) for [Anonymous Symbol]
    cxa_personality.cpp.o(.text._ZN10__cxxabiv1L24exception_spec_can_catchExPKhhPKNS_16__shim_type_infoEPvP21_Unwind_Control_Block) refers to cxa_personality.cpp.o(.text._ZN10__cxxabiv1L14call_terminateEbP21_Unwind_Control_Block) for _ZN10__cxxabiv1L14call_terminateEbP21_Unwind_Control_Block
    cxa_personality.cpp.o(.ARM.exidx.text._ZN10__cxxabiv1L24exception_spec_can_catchExPKhhPKNS_16__shim_type_infoEPvP21_Unwind_Control_Block) refers to Unwind-EHABI.cpp.o(.text.__aeabi_unwind_cpp_pr0) for __aeabi_unwind_cpp_pr0
    cxa_personality.cpp.o(.ARM.exidx.text._ZN10__cxxabiv1L24exception_spec_can_catchExPKhhPKNS_16__shim_type_infoEPvP21_Unwind_Control_Block) refers to cxa_personality.cpp.o(.text._ZN10__cxxabiv1L24exception_spec_can_catchExPKhhPKNS_16__shim_type_infoEPvP21_Unwind_Control_Block) for [Anonymous Symbol]
    Unwind-EHABI.cpp.o(.ARM.exidx.text.decode_eht_entry) refers to Unwind-EHABI.cpp.o(.text.__aeabi_unwind_cpp_pr0) for __aeabi_unwind_cpp_pr0
    Unwind-EHABI.cpp.o(.ARM.exidx.text.decode_eht_entry) refers to Unwind-EHABI.cpp.o(.text.decode_eht_entry) for [Anonymous Symbol]
    Unwind-EHABI.cpp.o(.text._Unwind_VRS_Interpret) refers to Unwind-EHABI.cpp.o(.text._Unwind_VRS_Pop) for _Unwind_VRS_Pop
    Unwind-EHABI.cpp.o(.text._Unwind_VRS_Interpret) refers to libunwind.cpp.o(.text.unw_get_reg) for unw_get_reg
    Unwind-EHABI.cpp.o(.text._Unwind_VRS_Interpret) refers to libunwind.cpp.o(.text.unw_set_reg) for unw_set_reg
    Unwind-EHABI.cpp.o(.ARM.exidx.text._Unwind_VRS_Interpret) refers to Unwind-EHABI.cpp.o(.text.__aeabi_unwind_cpp_pr0) for __aeabi_unwind_cpp_pr0
    Unwind-EHABI.cpp.o(.ARM.exidx.text._Unwind_VRS_Interpret) refers to Unwind-EHABI.cpp.o(.text._Unwind_VRS_Interpret) for [Anonymous Symbol]
    Unwind-EHABI.cpp.o(.text._Unwind_VRS_Get) refers to libunwind.cpp.o(.text.unw_get_reg) for unw_get_reg
    Unwind-EHABI.cpp.o(.text._Unwind_VRS_Get) refers to libunwind.cpp.o(.text.unw_save_vfp_as_X) for unw_save_vfp_as_X
    Unwind-EHABI.cpp.o(.text._Unwind_VRS_Get) refers to libunwind.cpp.o(.text.unw_get_fpreg) for unw_get_fpreg
    Unwind-EHABI.cpp.o(.text._Unwind_VRS_Get) refers to abort.o(.text) for abort
    Unwind-EHABI.cpp.o(.ARM.exidx.text._Unwind_VRS_Get) refers to Unwind-EHABI.cpp.o(.text.__aeabi_unwind_cpp_pr0) for __aeabi_unwind_cpp_pr0
    Unwind-EHABI.cpp.o(.ARM.exidx.text._Unwind_VRS_Get) refers to Unwind-EHABI.cpp.o(.text._Unwind_VRS_Get) for [Anonymous Symbol]
    Unwind-EHABI.cpp.o(.text._Unwind_VRS_Set) refers to libunwind.cpp.o(.text.unw_set_reg) for unw_set_reg
    Unwind-EHABI.cpp.o(.text._Unwind_VRS_Set) refers to libunwind.cpp.o(.text.unw_save_vfp_as_X) for unw_save_vfp_as_X
    Unwind-EHABI.cpp.o(.text._Unwind_VRS_Set) refers to libunwind.cpp.o(.text.unw_set_fpreg) for unw_set_fpreg
    Unwind-EHABI.cpp.o(.text._Unwind_VRS_Set) refers to abort.o(.text) for abort
    Unwind-EHABI.cpp.o(.ARM.exidx.text._Unwind_VRS_Set) refers to Unwind-EHABI.cpp.o(.text.__aeabi_unwind_cpp_pr0) for __aeabi_unwind_cpp_pr0
    Unwind-EHABI.cpp.o(.ARM.exidx.text._Unwind_VRS_Set) refers to Unwind-EHABI.cpp.o(.text._Unwind_VRS_Set) for [Anonymous Symbol]
    Unwind-EHABI.cpp.o(.text._Unwind_VRS_Pop) refers to libunwind.cpp.o(.text.unw_get_reg) for unw_get_reg
    Unwind-EHABI.cpp.o(.text._Unwind_VRS_Pop) refers to Unwind-EHABI.cpp.o(.text._Unwind_VRS_Set) for _Unwind_VRS_Set
    Unwind-EHABI.cpp.o(.text._Unwind_VRS_Pop) refers to libunwind.cpp.o(.text.unw_set_reg) for unw_set_reg
    Unwind-EHABI.cpp.o(.text._Unwind_VRS_Pop) refers to abort.o(.text) for abort
    Unwind-EHABI.cpp.o(.ARM.exidx.text._Unwind_VRS_Pop) refers to Unwind-EHABI.cpp.o(.text.__aeabi_unwind_cpp_pr0) for __aeabi_unwind_cpp_pr0
    Unwind-EHABI.cpp.o(.ARM.exidx.text._Unwind_VRS_Pop) refers to Unwind-EHABI.cpp.o(.text._Unwind_VRS_Pop) for [Anonymous Symbol]
    Unwind-EHABI.cpp.o(.text.__aeabi_unwind_cpp_pr0) refers to Unwind-EHABI.cpp.o(.text._ZN12_GLOBAL__N_1L14unwindOneFrameEjP21_Unwind_Control_BlockP15_Unwind_Context) for _ZN12_GLOBAL__N_1L14unwindOneFrameEjP21_Unwind_Control_BlockP15_Unwind_Context
    Unwind-EHABI.cpp.o(.ARM.exidx.text.__aeabi_unwind_cpp_pr0) refers to Unwind-EHABI.cpp.o(.text.__aeabi_unwind_cpp_pr0) for __aeabi_unwind_cpp_pr0
    Unwind-EHABI.cpp.o(.text._ZN12_GLOBAL__N_1L14unwindOneFrameEjP21_Unwind_Control_BlockP15_Unwind_Context) refers to libunwind.cpp.o(.text.unw_get_proc_info) for unw_get_proc_info
    Unwind-EHABI.cpp.o(.text._ZN12_GLOBAL__N_1L14unwindOneFrameEjP21_Unwind_Control_BlockP15_Unwind_Context) refers to libunwind.cpp.o(.text.unw_step) for unw_step
    Unwind-EHABI.cpp.o(.ARM.exidx.text._ZN12_GLOBAL__N_1L14unwindOneFrameEjP21_Unwind_Control_BlockP15_Unwind_Context) refers to Unwind-EHABI.cpp.o(.text.__aeabi_unwind_cpp_pr0) for __aeabi_unwind_cpp_pr0
    Unwind-EHABI.cpp.o(.ARM.exidx.text._ZN12_GLOBAL__N_1L14unwindOneFrameEjP21_Unwind_Control_BlockP15_Unwind_Context) refers to Unwind-EHABI.cpp.o(.text._ZN12_GLOBAL__N_1L14unwindOneFrameEjP21_Unwind_Control_BlockP15_Unwind_Context) for [Anonymous Symbol]
    Unwind-EHABI.cpp.o(.text.__aeabi_unwind_cpp_pr1) refers to Unwind-EHABI.cpp.o(.text._ZN12_GLOBAL__N_1L14unwindOneFrameEjP21_Unwind_Control_BlockP15_Unwind_Context) for _ZN12_GLOBAL__N_1L14unwindOneFrameEjP21_Unwind_Control_BlockP15_Unwind_Context
    Unwind-EHABI.cpp.o(.ARM.exidx.text.__aeabi_unwind_cpp_pr1) refers to Unwind-EHABI.cpp.o(.text.__aeabi_unwind_cpp_pr0) for __aeabi_unwind_cpp_pr0
    Unwind-EHABI.cpp.o(.ARM.exidx.text.__aeabi_unwind_cpp_pr1) refers to Unwind-EHABI.cpp.o(.text.__aeabi_unwind_cpp_pr1) for [Anonymous Symbol]
    Unwind-EHABI.cpp.o(.text.__aeabi_unwind_cpp_pr2) refers to Unwind-EHABI.cpp.o(.text._ZN12_GLOBAL__N_1L14unwindOneFrameEjP21_Unwind_Control_BlockP15_Unwind_Context) for _ZN12_GLOBAL__N_1L14unwindOneFrameEjP21_Unwind_Control_BlockP15_Unwind_Context
    Unwind-EHABI.cpp.o(.ARM.exidx.text.__aeabi_unwind_cpp_pr2) refers to Unwind-EHABI.cpp.o(.text.__aeabi_unwind_cpp_pr0) for __aeabi_unwind_cpp_pr0
    Unwind-EHABI.cpp.o(.ARM.exidx.text.__aeabi_unwind_cpp_pr2) refers to Unwind-EHABI.cpp.o(.text.__aeabi_unwind_cpp_pr2) for [Anonymous Symbol]
    Unwind-EHABI.cpp.o(.text._Unwind_RaiseException) refers to UnwindRegistersSave.S.o(.text) for unw_getcontext
    Unwind-EHABI.cpp.o(.text._Unwind_RaiseException) refers to libunwind.cpp.o(.text.unw_init_local) for unw_init_local
    Unwind-EHABI.cpp.o(.text._Unwind_RaiseException) refers to libunwind.cpp.o(.text.unw_get_proc_info) for unw_get_proc_info
    Unwind-EHABI.cpp.o(.text._Unwind_RaiseException) refers to Unwind-EHABI.cpp.o(.text._ZL13unwind_phase2P13unw_context_tP12unw_cursor_tP21_Unwind_Control_Blockb) for _ZL13unwind_phase2P13unw_context_tP12unw_cursor_tP21_Unwind_Control_Blockb
    Unwind-EHABI.cpp.o(.ARM.exidx.text._Unwind_RaiseException) refers to Unwind-EHABI.cpp.o(.text.__aeabi_unwind_cpp_pr0) for __aeabi_unwind_cpp_pr0
    Unwind-EHABI.cpp.o(.ARM.exidx.text._Unwind_RaiseException) refers to Unwind-EHABI.cpp.o(.text._Unwind_RaiseException) for [Anonymous Symbol]
    Unwind-EHABI.cpp.o(.text._ZL13unwind_phase2P13unw_context_tP12unw_cursor_tP21_Unwind_Control_Blockb) refers to libunwind.cpp.o(.text.unw_init_local) for unw_init_local
    Unwind-EHABI.cpp.o(.text._ZL13unwind_phase2P13unw_context_tP12unw_cursor_tP21_Unwind_Control_Blockb) refers to libunwind.cpp.o(.text.unw_set_reg) for unw_set_reg
    Unwind-EHABI.cpp.o(.text._ZL13unwind_phase2P13unw_context_tP12unw_cursor_tP21_Unwind_Control_Blockb) refers to libunwind.cpp.o(.text.unw_get_reg) for unw_get_reg
    Unwind-EHABI.cpp.o(.text._ZL13unwind_phase2P13unw_context_tP12unw_cursor_tP21_Unwind_Control_Blockb) refers to libunwind.cpp.o(.text.unw_get_proc_info) for unw_get_proc_info
    Unwind-EHABI.cpp.o(.text._ZL13unwind_phase2P13unw_context_tP12unw_cursor_tP21_Unwind_Control_Blockb) refers to abort.o(.text) for abort
    Unwind-EHABI.cpp.o(.text._ZL13unwind_phase2P13unw_context_tP12unw_cursor_tP21_Unwind_Control_Blockb) refers to libunwind.cpp.o(.text.unw_resume) for unw_resume
    Unwind-EHABI.cpp.o(.ARM.exidx.text._ZL13unwind_phase2P13unw_context_tP12unw_cursor_tP21_Unwind_Control_Blockb) refers to Unwind-EHABI.cpp.o(.text.__aeabi_unwind_cpp_pr0) for __aeabi_unwind_cpp_pr0
    Unwind-EHABI.cpp.o(.ARM.exidx.text._ZL13unwind_phase2P13unw_context_tP12unw_cursor_tP21_Unwind_Control_Blockb) refers to Unwind-EHABI.cpp.o(.text._ZL13unwind_phase2P13unw_context_tP12unw_cursor_tP21_Unwind_Control_Blockb) for [Anonymous Symbol]
    Unwind-EHABI.cpp.o(.ARM.exidx.text._Unwind_Complete) refers to Unwind-EHABI.cpp.o(.text.__aeabi_unwind_cpp_pr0) for __aeabi_unwind_cpp_pr0
    Unwind-EHABI.cpp.o(.ARM.exidx.text._Unwind_Complete) refers to Unwind-EHABI.cpp.o(.text._Unwind_Complete) for [Anonymous Symbol]
    Unwind-EHABI.cpp.o(.text._Unwind_Resume) refers to UnwindRegistersSave.S.o(.text) for unw_getcontext
    Unwind-EHABI.cpp.o(.text._Unwind_Resume) refers to Unwind-EHABI.cpp.o(.text._ZL13unwind_phase2P13unw_context_tP12unw_cursor_tP21_Unwind_Control_Blockb) for _ZL13unwind_phase2P13unw_context_tP12unw_cursor_tP21_Unwind_Control_Blockb
    Unwind-EHABI.cpp.o(.text._Unwind_Resume) refers to abort.o(.text) for abort
    Unwind-EHABI.cpp.o(.ARM.exidx.text._Unwind_Resume) refers to Unwind-EHABI.cpp.o(.text.__aeabi_unwind_cpp_pr1) for __aeabi_unwind_cpp_pr1
    Unwind-EHABI.cpp.o(.ARM.exidx.text._Unwind_Resume) refers to Unwind-EHABI.cpp.o(.text._Unwind_Resume) for [Anonymous Symbol]
    Unwind-EHABI.cpp.o(.ARM.exidx.text._Unwind_Resume) refers to Unwind-EHABI.cpp.o(.ARM.extab.text._Unwind_Resume) for [Anonymous Symbol]
    Unwind-EHABI.cpp.o(.text._Unwind_GetLanguageSpecificData) refers to libunwind.cpp.o(.text.unw_get_proc_info) for unw_get_proc_info
    Unwind-EHABI.cpp.o(.ARM.exidx.text._Unwind_GetLanguageSpecificData) refers to Unwind-EHABI.cpp.o(.text.__aeabi_unwind_cpp_pr0) for __aeabi_unwind_cpp_pr0
    Unwind-EHABI.cpp.o(.ARM.exidx.text._Unwind_GetLanguageSpecificData) refers to Unwind-EHABI.cpp.o(.text._Unwind_GetLanguageSpecificData) for [Anonymous Symbol]
    Unwind-EHABI.cpp.o(.text._Unwind_GetRegionStart) refers to libunwind.cpp.o(.text.unw_get_proc_info) for unw_get_proc_info
    Unwind-EHABI.cpp.o(.ARM.exidx.text._Unwind_GetRegionStart) refers to Unwind-EHABI.cpp.o(.text.__aeabi_unwind_cpp_pr0) for __aeabi_unwind_cpp_pr0
    Unwind-EHABI.cpp.o(.ARM.exidx.text._Unwind_GetRegionStart) refers to Unwind-EHABI.cpp.o(.text._Unwind_GetRegionStart) for [Anonymous Symbol]
    Unwind-EHABI.cpp.o(.ARM.exidx.text._Unwind_DeleteException) refers to Unwind-EHABI.cpp.o(.text.__aeabi_unwind_cpp_pr0) for __aeabi_unwind_cpp_pr0
    Unwind-EHABI.cpp.o(.ARM.exidx.text._Unwind_DeleteException) refers to Unwind-EHABI.cpp.o(.text._Unwind_DeleteException) for [Anonymous Symbol]
    Unwind-EHABI.cpp.o(.text.__gnu_unwind_frame) refers to libunwind.cpp.o(.text.unw_step) for unw_step
    Unwind-EHABI.cpp.o(.ARM.exidx.text.__gnu_unwind_frame) refers to Unwind-EHABI.cpp.o(.text.__aeabi_unwind_cpp_pr0) for __aeabi_unwind_cpp_pr0
    Unwind-EHABI.cpp.o(.ARM.exidx.text.__gnu_unwind_frame) refers to Unwind-EHABI.cpp.o(.text.__gnu_unwind_frame) for [Anonymous Symbol]
    pow.o(i.__softfp_pow) refers (Special) to usenofp.o(x$fpl$usenofp) for __I$use$fp
    pow.o(i.__softfp_pow) refers to pow.o(i.pow) for pow
    pow.o(i.pow) refers (Special) to usenofp.o(x$fpl$usenofp) for __I$use$fp
    pow.o(i.pow) refers to dunder.o(i.__mathlib_dbl_infnan2) for __mathlib_dbl_infnan2
    pow.o(i.pow) refers to _rserrno.o(.text) for __set_errno
    pow.o(i.pow) refers to dunder.o(i.__mathlib_dbl_divzero) for __mathlib_dbl_divzero
    pow.o(i.pow) refers to ddiv.o(x$fpl$ddiv) for __aeabi_ddiv
    pow.o(i.pow) refers to sqrt.o(i.sqrt) for sqrt
    pow.o(i.pow) refers to dmul.o(x$fpl$dmul) for __aeabi_dmul
    pow.o(i.pow) refers to dflt_clz.o(x$fpl$dflt) for __aeabi_i2d
    pow.o(i.pow) refers to dunder.o(i.__mathlib_dbl_invalid) for __mathlib_dbl_invalid
    pow.o(i.pow) refers to dunder.o(i.__mathlib_dbl_overflow) for __mathlib_dbl_overflow
    pow.o(i.pow) refers to dunder.o(i.__mathlib_dbl_underflow) for __mathlib_dbl_underflow
    pow.o(i.pow) refers to daddsub_clz.o(x$fpl$dsub) for __aeabi_dsub
    pow.o(i.pow) refers to scalbn.o(x$fpl$scalbn) for __ARM_scalbn
    pow.o(i.pow) refers to daddsub_clz.o(x$fpl$drsb) for __aeabi_drsub
    pow.o(i.pow) refers to daddsub_clz.o(x$fpl$dadd) for __aeabi_dadd
    pow.o(i.pow) refers to qnan.o(.constdata) for __mathlib_zero
    pow.o(i.pow) refers to poly.o(i.__kernel_poly) for __kernel_poly
    pow.o(i.pow) refers to drleqf.o(x$fpl$drleqf) for __aeabi_cdrcmple
    pow.o(i.pow) refers to pow.o(.constdata) for .constdata
    pow.o(i.pow) refers to fpclassify.o(i.__ARM_fpclassify) for __ARM_fpclassify
    pow.o(.constdata) refers (Special) to usenofp.o(x$fpl$usenofp) for __I$use$fp
    pow_x.o(i.____softfp_pow$lsc) refers (Special) to usenofp.o(x$fpl$usenofp) for __I$use$fp
    pow_x.o(i.____softfp_pow$lsc) refers to pow_x.o(i.__pow$lsc) for __pow$lsc
    pow_x.o(i.__pow$lsc) refers (Special) to usenofp.o(x$fpl$usenofp) for __I$use$fp
    pow_x.o(i.__pow$lsc) refers to dunder.o(i.__mathlib_dbl_infnan2) for __mathlib_dbl_infnan2
    pow_x.o(i.__pow$lsc) refers to _rserrno.o(.text) for __set_errno
    pow_x.o(i.__pow$lsc) refers to ddiv.o(x$fpl$ddiv) for __aeabi_ddiv
    pow_x.o(i.__pow$lsc) refers to sqrt.o(i.sqrt) for sqrt
    pow_x.o(i.__pow$lsc) refers to dmul.o(x$fpl$dmul) for __aeabi_dmul
    pow_x.o(i.__pow$lsc) refers to dflt_clz.o(x$fpl$dflt) for __aeabi_i2d
    pow_x.o(i.__pow$lsc) refers to daddsub_clz.o(x$fpl$dsub) for __aeabi_dsub
    pow_x.o(i.__pow$lsc) refers to scalbn.o(x$fpl$scalbn) for __ARM_scalbn
    pow_x.o(i.__pow$lsc) refers to daddsub_clz.o(x$fpl$drsb) for __aeabi_drsub
    pow_x.o(i.__pow$lsc) refers to daddsub_clz.o(x$fpl$dadd) for __aeabi_dadd
    pow_x.o(i.__pow$lsc) refers to qnan.o(.constdata) for __mathlib_zero
    pow_x.o(i.__pow$lsc) refers to poly.o(i.__kernel_poly) for __kernel_poly
    pow_x.o(i.__pow$lsc) refers to drleqf.o(x$fpl$drleqf) for __aeabi_cdrcmple
    pow_x.o(i.__pow$lsc) refers to pow_x.o(.constdata) for .constdata
    pow_x.o(.constdata) refers (Special) to usenofp.o(x$fpl$usenofp) for __I$use$fp
    __rtentry.o(.ARM.Collect$$rtentry$$00000000) refers (Special) to __rtentry2.o(.ARM.Collect$$rtentry$$0000000A) for __rt_entry_li
    __rtentry.o(.ARM.Collect$$rtentry$$00000000) refers (Special) to __rtentry2.o(.ARM.Collect$$rtentry$$0000000D) for __rt_entry_main
    __rtentry.o(.ARM.Collect$$rtentry$$00000000) refers (Special) to __rtentry2.o(.ARM.Collect$$rtentry$$0000000C) for __rt_entry_postli_1
    __rtentry.o(.ARM.Collect$$rtentry$$00000000) refers (Special) to __rtentry2.o(.ARM.Collect$$rtentry$$00000009) for __rt_entry_postsh_1
    __rtentry.o(.ARM.Collect$$rtentry$$00000000) refers (Special) to __rtentry2.o(.ARM.Collect$$rtentry$$00000002) for __rt_entry_presh_1
    __rtentry.o(.ARM.Collect$$rtentry$$00000000) refers (Special) to __rtentry4.o(.ARM.Collect$$rtentry$$00000004) for __rt_entry_sh
    rt_errno_addr.o(.text) refers to rt_errno_addr.o(.bss) for __aeabi_errno_addr_data
    rt_errno_addr_intlibspace.o(.text) refers to libspace.o(.bss) for __libspace_start
    malloc.o(.text) refers (Special) to hguard.o(.text) for __heap$guard
    malloc.o(.text) refers (Special) to init_alloc.o(.text) for _init_alloc
    malloc.o(.text) refers to rt_heap_descriptor_intlibspace.o(.text) for __rt_heap_descriptor
    malloc.o(.text) refers to heapstubs.o(.text) for __Heap_Alloc
    free.o(.text) refers (Special) to hguard.o(.text) for __heap$guard
    free.o(.text) refers to rt_heap_descriptor_intlibspace.o(.text) for __rt_heap_descriptor
    free.o(.text) refers to heapstubs.o(.text) for __Heap_Free
    h1_alloc.o(.text) refers (Special) to h1_init.o(.text) for __Heap_Initialize
    h1_alloc.o(.text) refers to rt_heap_descriptor_intlibspace.o(.text) for __rt_heap_descriptor
    h1_alloc.o(.text) refers to init_alloc.o(.text) for __Heap_Full
    h1_free.o(.text) refers to rt_heap_descriptor_intlibspace.o(.text) for __rt_heap_descriptor
    h1_memalign.o(.text) refers (Special) to h1_init.o(.text) for __Heap_Initialize
    h1_memalign.o(.text) refers to rt_heap_descriptor_intlibspace.o(.text) for __rt_heap_descriptor
    h1_memalign.o(.text) refers to init_alloc.o(.text) for __Heap_Full
    h1_alloc_mt.o(.text) refers (Special) to h1_init.o(.text) for __Heap_Initialize
    h1_alloc_mt.o(.text) refers to init_alloc.o(.text) for __Heap_Full
    h1_alloc_mt.o(.text) refers to rt_heap_descriptor_intlibspace.o(.text) for __rt_heap_descriptor
    h1_free_mt.o(.text) refers to rt_heap_descriptor_intlibspace.o(.text) for __rt_heap_descriptor
    h1_memalign_mt.o(.text) refers (Special) to h1_init.o(.text) for __Heap_Initialize
    h1_memalign_mt.o(.text) refers to rt_heap_descriptor_intlibspace.o(.text) for __rt_heap_descriptor
    h1_memalign_mt.o(.text) refers to init_alloc.o(.text) for __Heap_Full
    heap2.o(i._FDIterate) refers to heap2.o(.conststring) for .conststring
    heap2.o(i.___Heap_ProvideMemory$realtime) refers to fdtree.o(i._FDTree_Delete) for _FDTree_Delete
    heap2.o(i.___Heap_ProvideMemory$realtime) refers to fdtree.o(i._FDTree_Insert) for _FDTree_Insert
    heap2.o(i.___Heap_Stats$realtime) refers to heap2.o(i._Heap2_StatsIterate) for _Heap2_StatsIterate
    heap2.o(i.___Heap_Valid$realtime) refers to heap2.o(i._FDIterate) for _FDIterate
    heap2.o(i.___Heap_Valid$realtime) refers to heap2.o(.conststring) for .conststring
    heap2.o(i._free$realtime) refers to rt_heap_descriptor_intlibspace.o(.text) for __rt_heap_descriptor
    heap2.o(i._free$realtime) refers to fdtree.o(i._FDTree_Delete) for _FDTree_Delete
    heap2.o(i._free$realtime) refers to fdtree.o(i._FDTree_Insert) for _FDTree_Insert
    heap2.o(i._malloc$realtime) refers to rt_heap_descriptor_intlibspace.o(.text) for __rt_heap_descriptor
    heap2.o(i._malloc$realtime) refers to fdtree.o(i._FDTree_FindFirst) for _FDTree_FindFirst
    heap2.o(i._malloc$realtime) refers to init_alloc.o(.text) for __Heap_Full
    heap2.o(i._malloc$realtime) refers to fdtree.o(i._FDTree_RemoveNode) for _FDTree_RemoveNode
    heap2.o(i._malloc$realtime) refers to fdtree.o(i._FDTree_Insert) for _FDTree_Insert
    heap2.o(i._posix_memalign$realtime) refers to rt_heap_descriptor_intlibspace.o(.text) for __rt_heap_descriptor
    heap2.o(i._posix_memalign$realtime) refers to fdtree.o(i._FDTree_FindFirst) for _FDTree_FindFirst
    heap2.o(i._posix_memalign$realtime) refers to init_alloc.o(.text) for __Heap_Full
    heap2.o(i._posix_memalign$realtime) refers to fdtree.o(i._FDTree_RemoveNode) for _FDTree_RemoveNode
    heap2.o(i._posix_memalign$realtime) refers to fdtree.o(i._FDTree_Insert) for _FDTree_Insert
    heap2.o(i._realloc$realtime) refers to rt_heap_descriptor_intlibspace.o(.text) for __rt_heap_descriptor
    heap2.o(i._realloc$realtime) refers to fdtree.o(i._FDTree_Insert) for _FDTree_Insert
    heap2.o(i._realloc$realtime) refers to h1_free.o(.text) for free
    heap2.o(i._realloc$realtime) refers to h1_alloc.o(.text) for malloc
    heap2.o(i._realloc$realtime) refers to fdtree.o(i._FDTree_Delete) for _FDTree_Delete
    heap2.o(i._realloc$realtime) refers to rt_memcpy_w.o(.text) for __aeabi_memcpy4
    heap2mt.o(i._FDIterate) refers to heap2mt.o(.conststring) for .conststring
    heap2mt.o(i.___Heap_Initialize$realtime$concurrent) refers to mutex_dummy.o(.text) for _mutex_initialize
    heap2mt.o(i.___Heap_ProvideMemory$realtime$concurrent) refers to fdtree.o(i._FDTree_Delete) for _FDTree_Delete
    heap2mt.o(i.___Heap_ProvideMemory$realtime$concurrent) refers to fdtree.o(i._FDTree_Insert) for _FDTree_Insert
    heap2mt.o(i.___Heap_Stats$realtime$concurrent) refers to heap2mt.o(i._Heap2_StatsIterate) for _Heap2_StatsIterate
    heap2mt.o(i.___Heap_Valid$realtime$concurrent) refers to heap2mt.o(i._FDIterate) for _FDIterate
    heap2mt.o(i.___Heap_Valid$realtime$concurrent) refers to heap2mt.o(.conststring) for .conststring
    heap2mt.o(i._free$realtime$concurrent) refers to rt_heap_descriptor_intlibspace.o(.text) for __rt_heap_descriptor
    heap2mt.o(i._free$realtime$concurrent) refers to fdtree.o(i._FDTree_Delete) for _FDTree_Delete
    heap2mt.o(i._free$realtime$concurrent) refers to fdtree.o(i._FDTree_Insert) for _FDTree_Insert
    heap2mt.o(i._malloc$realtime$concurrent) refers to rt_heap_descriptor_intlibspace.o(.text) for __rt_heap_descriptor
    heap2mt.o(i._malloc$realtime$concurrent) refers to fdtree.o(i._FDTree_FindFirst) for _FDTree_FindFirst
    heap2mt.o(i._malloc$realtime$concurrent) refers to init_alloc.o(.text) for __Heap_Full
    heap2mt.o(i._malloc$realtime$concurrent) refers to fdtree.o(i._FDTree_RemoveNode) for _FDTree_RemoveNode
    heap2mt.o(i._malloc$realtime$concurrent) refers to fdtree.o(i._FDTree_Insert) for _FDTree_Insert
    heap2mt.o(i._posix_memalign$realtime$concurrent) refers to rt_heap_descriptor_intlibspace.o(.text) for __rt_heap_descriptor
    heap2mt.o(i._posix_memalign$realtime$concurrent) refers to fdtree.o(i._FDTree_FindFirst) for _FDTree_FindFirst
    heap2mt.o(i._posix_memalign$realtime$concurrent) refers to init_alloc.o(.text) for __Heap_Full
    heap2mt.o(i._posix_memalign$realtime$concurrent) refers to fdtree.o(i._FDTree_RemoveNode) for _FDTree_RemoveNode
    heap2mt.o(i._posix_memalign$realtime$concurrent) refers to fdtree.o(i._FDTree_Insert) for _FDTree_Insert
    heap2mt.o(i._realloc$realtime$concurrent) refers to rt_heap_descriptor_intlibspace.o(.text) for __rt_heap_descriptor
    heap2mt.o(i._realloc$realtime$concurrent) refers to fdtree.o(i._FDTree_Insert) for _FDTree_Insert
    heap2mt.o(i._realloc$realtime$concurrent) refers to h1_free.o(.text) for free
    heap2mt.o(i._realloc$realtime$concurrent) refers to h1_alloc.o(.text) for malloc
    heap2mt.o(i._realloc$realtime$concurrent) refers to fdtree.o(i._FDTree_Delete) for _FDTree_Delete
    heap2mt.o(i._realloc$realtime$concurrent) refers to rt_memcpy_w.o(.text) for __aeabi_memcpy4
    _rserrno.o(.text) refers to rt_errno_addr_intlibspace.o(.text) for __aeabi_errno_addr
    swprintf.o(.text) refers (Special) to _printf_a.o(.ARM.Collect$$_printf_percent$$00000006) for _printf_a
    swprintf.o(.text) refers (Special) to _printf_c.o(.ARM.Collect$$_printf_percent$$00000013) for _printf_c
    swprintf.o(.text) refers (Special) to _printf_charcount.o(.text) for _printf_charcount
    swprintf.o(.text) refers (Special) to _printf_d.o(.ARM.Collect$$_printf_percent$$00000009) for _printf_d
    swprintf.o(.text) refers (Special) to _printf_e.o(.ARM.Collect$$_printf_percent$$00000004) for _printf_e
    swprintf.o(.text) refers (Special) to _printf_f.o(.ARM.Collect$$_printf_percent$$00000003) for _printf_f
    swprintf.o(.text) refers (Special) to printf1.o(x$fpl$printf1) for _printf_fp_dec
    swprintf.o(.text) refers (Special) to printf2.o(x$fpl$printf2) for _printf_fp_hex
    swprintf.o(.text) refers (Special) to _printf_g.o(.ARM.Collect$$_printf_percent$$00000005) for _printf_g
    swprintf.o(.text) refers (Special) to _printf_i.o(.ARM.Collect$$_printf_percent$$00000008) for _printf_i
    swprintf.o(.text) refers (Special) to _printf_dec.o(.text) for _printf_int_dec
    swprintf.o(.text) refers (Special) to _printf_l.o(.ARM.Collect$$_printf_percent$$00000012) for _printf_l
    swprintf.o(.text) refers (Special) to _printf_lc.o(.ARM.Collect$$_printf_percent$$00000015) for _printf_lc
    swprintf.o(.text) refers (Special) to _printf_ll.o(.ARM.Collect$$_printf_percent$$00000007) for _printf_ll
    swprintf.o(.text) refers (Special) to _printf_lld.o(.ARM.Collect$$_printf_percent$$0000000E) for _printf_lld
    swprintf.o(.text) refers (Special) to _printf_lli.o(.ARM.Collect$$_printf_percent$$0000000D) for _printf_lli
    swprintf.o(.text) refers (Special) to _printf_llo.o(.ARM.Collect$$_printf_percent$$00000010) for _printf_llo
    swprintf.o(.text) refers (Special) to _printf_llu.o(.ARM.Collect$$_printf_percent$$0000000F) for _printf_llu
    swprintf.o(.text) refers (Special) to _printf_llx.o(.ARM.Collect$$_printf_percent$$00000011) for _printf_llx
    swprintf.o(.text) refers (Special) to _printf_longlong_dec.o(.text) for _printf_longlong_dec
    swprintf.o(.text) refers (Special) to _printf_hex_int_ll_ptr.o(.text) for _printf_longlong_hex
    swprintf.o(.text) refers (Special) to _printf_oct_int_ll.o(.text) for _printf_longlong_oct
    swprintf.o(.text) refers (Special) to _printf_ls.o(.ARM.Collect$$_printf_percent$$00000016) for _printf_ls
    swprintf.o(.text) refers (Special) to _printf_mbtowc.o(.text) for _printf_mbtowc
    swprintf.o(.text) refers (Special) to _printf_n.o(.ARM.Collect$$_printf_percent$$00000001) for _printf_n
    swprintf.o(.text) refers (Special) to _printf_o.o(.ARM.Collect$$_printf_percent$$0000000B) for _printf_o
    swprintf.o(.text) refers (Special) to _printf_p.o(.ARM.Collect$$_printf_percent$$00000002) for _printf_p
    swprintf.o(.text) refers (Special) to _printf_percent.o(.ARM.Collect$$_printf_percent$$00000000) for _printf_percent
    swprintf.o(.text) refers (Special) to _printf_pad.o(.text) for _printf_post_padding
    swprintf.o(.text) refers (Special) to _printf_s.o(.ARM.Collect$$_printf_percent$$00000014) for _printf_s
    swprintf.o(.text) refers (Special) to _printf_truncate.o(.text) for _printf_truncate_signed
    swprintf.o(.text) refers (Special) to _printf_u.o(.ARM.Collect$$_printf_percent$$0000000A) for _printf_u
    swprintf.o(.text) refers (Special) to _printf_wc.o(.text) for _printf_wc
    swprintf.o(.text) refers (Special) to _printf_x.o(.ARM.Collect$$_printf_percent$$0000000C) for _printf_x
    swprintf.o(.text) refers to _printf_wchar_common.o(.text) for _printf_wchar_common
    swprintf.o(.text) refers to _snputwc.o(.text) for _snputwc
    __2snprintf.o(.text) refers to _printf_char_common.o(.text) for _printf_char_common
    __2snprintf.o(.text) refers to _sputc.o(.text) for _sputc
    __2snprintf.o(.text) refers to _snputc.o(.text) for _snputc
    noretval__2snprintf.o(.text) refers to _printf_char_common.o(.text) for _printf_char_common
    noretval__2snprintf.o(.text) refers to _sputc.o(.text) for _sputc
    noretval__2snprintf.o(.text) refers to _snputc.o(.text) for _snputc
    __printf.o(.text) refers to _printf_percent.o(.ARM.Collect$$_printf_percent$$00000000) for _printf_percent
    _printf_dec.o(.text) refers (Weak) to _printf_truncate.o(.text) for _printf_truncate_signed
    _printf_dec.o(.text) refers (Weak) to _printf_truncate.o(.text) for _printf_truncate_unsigned
    _printf_dec.o(.text) refers to _printf_intcommon.o(.text) for _printf_int_common
    _printf_longlong_dec.o(.text) refers to lludiv10.o(.text) for _ll_udiv10
    _printf_longlong_dec.o(.text) refers to _printf_intcommon.o(.text) for _printf_int_common
    __printf_flags.o(.text) refers to _printf_percent.o(.ARM.Collect$$_printf_percent$$00000000) for _printf_percent
    __printf_flags.o(.text) refers to __printf_flags.o(.constdata) for .constdata
    __printf_ss.o(.text) refers to _printf_percent.o(.ARM.Collect$$_printf_percent$$00000000) for _printf_percent
    __printf_flags_ss.o(.text) refers to _printf_percent.o(.ARM.Collect$$_printf_percent$$00000000) for _printf_percent
    __printf_flags_ss.o(.text) refers to __printf_flags_ss.o(.constdata) for .constdata
    __printf_wp.o(.text) refers to __printf_wp.o(i._is_digit) for _is_digit
    __printf_wp.o(.text) refers to _printf_percent.o(.ARM.Collect$$_printf_percent$$00000000) for _printf_percent
    __printf_flags_wp.o(.text) refers to __printf_wp.o(i._is_digit) for _is_digit
    __printf_flags_wp.o(.text) refers to _printf_percent.o(.ARM.Collect$$_printf_percent$$00000000) for _printf_percent
    __printf_flags_wp.o(.text) refers to __printf_flags_wp.o(.constdata) for .constdata
    __printf_ss_wp.o(.text) refers to __printf_wp.o(i._is_digit) for _is_digit
    __printf_ss_wp.o(.text) refers to _printf_percent.o(.ARM.Collect$$_printf_percent$$00000000) for _printf_percent
    __printf_flags_ss_wp.o(.text) refers to __printf_wp.o(i._is_digit) for _is_digit
    __printf_flags_ss_wp.o(.text) refers to _printf_percent.o(.ARM.Collect$$_printf_percent$$00000000) for _printf_percent
    __printf_flags_ss_wp.o(.text) refers to __printf_flags_ss_wp.o(.constdata) for .constdata
    _printf_d.o(.ARM.Collect$$_printf_percent$$00000009) refers (Weak) to _printf_dec.o(.text) for _printf_int_dec
    _printf_u.o(.ARM.Collect$$_printf_percent$$0000000A) refers (Weak) to _printf_dec.o(.text) for _printf_int_dec
    _printf_f.o(.ARM.Collect$$_printf_percent$$00000003) refers (Weak) to printf1.o(x$fpl$printf1) for _printf_fp_dec
    _printf_percent.o(.ARM.Collect$$_printf_percent$$00000000) refers (Special) to _printf_percent_end.o(.ARM.Collect$$_printf_percent$$00000017) for _printf_percent_end
    _printf_lld.o(.ARM.Collect$$_printf_percent$$0000000E) refers (Special) to _printf_ll.o(.ARM.Collect$$_printf_percent$$00000007) for _printf_ll
    _printf_lld.o(.ARM.Collect$$_printf_percent$$0000000E) refers (Weak) to _printf_longlong_dec.o(.text) for _printf_longlong_dec
    _printf_llu.o(.ARM.Collect$$_printf_percent$$0000000F) refers (Special) to _printf_ll.o(.ARM.Collect$$_printf_percent$$00000007) for _printf_ll
    _printf_llu.o(.ARM.Collect$$_printf_percent$$0000000F) refers (Weak) to _printf_longlong_dec.o(.text) for _printf_longlong_dec
    strtol.o(.text) refers to rt_ctype_table.o(.text) for __rt_ctype_table
    strtol.o(.text) refers to _strtoul.o(.text) for _strtoul
    strtol.o(.text) refers to rt_errno_addr_intlibspace.o(.text) for __aeabi_errno_addr
    strtoul.o(.text) refers to rt_errno_addr_intlibspace.o(.text) for __aeabi_errno_addr
    strtoul.o(.text) refers to rt_ctype_table.o(.text) for __rt_ctype_table
    strtoul.o(.text) refers to _strtoul.o(.text) for _strtoul
    strtoll.o(.text) refers to __strtoll.o(.text) for __strtoll
    strtoull.o(.text) refers to __strtoull.o(.text) for __strtoull
    wcstol.o(.text) refers to _iswspace.o(.text) for _iswspace
    wcstol.o(.text) refers to _wcstoul.o(.text) for _wcstoul
    wcstol.o(.text) refers to rt_errno_addr_intlibspace.o(.text) for __aeabi_errno_addr
    wcstoul.o(.text) refers to rt_errno_addr_intlibspace.o(.text) for __aeabi_errno_addr
    wcstoul.o(.text) refers to _iswspace.o(.text) for _iswspace
    wcstoul.o(.text) refers to _wcstoul.o(.text) for _wcstoul
    wcstoll.o(.text) refers to __wcstoll.o(.text) for __wcstoll
    wcstoull.o(.text) refers to __wcstoull.o(.text) for __wcstoull
    abort.o(.text) refers to defsig_abrt_outer.o(.text) for __rt_SIGABRT
    abort.o(.text) refers (Weak) to libshutdown.o(.ARM.Collect$$libshutdown$$00000000) for __rt_lib_shutdown
    abort.o(.text) refers to sys_exit.o(.text) for _sys_exit
    atexit_aeabi.o(.text) refers to aeabi_atexit.o(.text) for __aeabi_atexit
    atexit_aeabi.o(.ARM.exidx) refers to atexit_aeabi.o(.text) for .text
    aeabi_atexit.o(.text) refers (Special) to cxa_finalize.o(.text) for __cxa_finalize
    aeabi_atexit.o(.text) refers to h1_alloc.o(.text) for malloc
    aeabi_atexit.o(.text) refers to rt_ddtor_pointer_addr_intlibspace.o(.text) for __rt_ddtor_pointer_addr
    aeabi_atexit.o(.ARM.exidx) refers (Special) to cxa_finalize.o(.text) for __cxa_finalize
    aeabi_atexit.o(.ARM.exidx) refers to aeabi_atexit.o(.text) for .text
    wmemcpy.o(.text) refers to memcpy.o(.text) for memcpy
    wmemmove.o(.text) refers to memmove.o(.text) for memmove
    wmemset.o(.text) refers to rt_memclr_w.o(.text) for _memset_w
    rt_memmove_v6.o(.text) refers to rt_memcpy_v6.o(.text) for __aeabi_memcpy
    rt_memmove_v6.o(.text) refers to rt_memmove_w.o(.text) for __memmove_aligned
    rt_memclr.o(.text) refers to rt_memclr_w.o(.text) for _memset_w
    localtime_internal.o(.text) refers to rt_memclr_w.o(.text) for __aeabi_memclr4
    localtime_internal.o(.text) refers to _monlen.o(.constdata) for _monlen
    libinit2.o(.ARM.Collect$$libinit$$00000005) refers (Weak) to init_alloc.o(.text) for _init_alloc
    libinit2.o(.ARM.Collect$$libinit$$0000000F) refers (Weak) to rt_locale_intlibspace.o(.text) for __rt_locale
    libinit2.o(.ARM.Collect$$libinit$$00000010) refers to libinit2.o(.ARM.Collect$$libinit$$0000000F) for .ARM.Collect$$libinit$$0000000F
    libinit2.o(.ARM.Collect$$libinit$$00000012) refers to libinit2.o(.ARM.Collect$$libinit$$0000000F) for .ARM.Collect$$libinit$$0000000F
    libinit2.o(.ARM.Collect$$libinit$$00000012) refers (Weak) to lc_ctype_c.o(locale$$code) for _get_lc_ctype
    libinit2.o(.ARM.Collect$$libinit$$00000014) refers to libinit2.o(.ARM.Collect$$libinit$$0000000F) for .ARM.Collect$$libinit$$0000000F
    libinit2.o(.ARM.Collect$$libinit$$00000016) refers to libinit2.o(.ARM.Collect$$libinit$$0000000F) for .ARM.Collect$$libinit$$0000000F
    libinit2.o(.ARM.Collect$$libinit$$00000016) refers (Weak) to lc_numeric_c.o(locale$$code) for _get_lc_numeric
    libinit2.o(.ARM.Collect$$libinit$$00000018) refers to libinit2.o(.ARM.Collect$$libinit$$0000000F) for .ARM.Collect$$libinit$$0000000F
    libinit2.o(.ARM.Collect$$libinit$$00000026) refers to argv_veneer.o(.emb_text) for __ARM_argv_veneer
    libinit2.o(.ARM.Collect$$libinit$$00000027) refers to argv_veneer.o(.emb_text) for __ARM_argv_veneer
    libinit2.o(.ARM.Collect$$libinit$$00000031) refers (Weak) to init_aeabi.o(.text) for __cpp_initialize__aeabi_
    daddsub_clz.o(x$fpl$dadd) refers (Special) to usenofp.o(x$fpl$usenofp) for __I$use$fp
    daddsub_clz.o(x$fpl$dadd) refers to daddsub_clz.o(x$fpl$dsub) for _dsub1
    daddsub_clz.o(x$fpl$dadd) refers to dretinf.o(x$fpl$dretinf) for __fpl_dretinf
    daddsub_clz.o(x$fpl$dadd) refers to dnaninf.o(x$fpl$dnaninf) for __fpl_dnaninf
    daddsub_clz.o(x$fpl$drsb) refers (Special) to usenofp.o(x$fpl$usenofp) for __I$use$fp
    daddsub_clz.o(x$fpl$drsb) refers to daddsub_clz.o(x$fpl$dadd) for _dadd1
    daddsub_clz.o(x$fpl$drsb) refers to daddsub_clz.o(x$fpl$dsub) for _dsub1
    daddsub_clz.o(x$fpl$dsub) refers (Special) to usenofp.o(x$fpl$usenofp) for __I$use$fp
    daddsub_clz.o(x$fpl$dsub) refers to daddsub_clz.o(x$fpl$dadd) for _dadd1
    daddsub_clz.o(x$fpl$dsub) refers to dnaninf.o(x$fpl$dnaninf) for __fpl_dnaninf
    ddiv.o(x$fpl$drdiv) refers (Special) to usenofp.o(x$fpl$usenofp) for __I$use$fp
    ddiv.o(x$fpl$drdiv) refers to ddiv.o(x$fpl$ddiv) for ddiv_entry
    ddiv.o(x$fpl$ddiv) refers (Special) to usenofp.o(x$fpl$usenofp) for __I$use$fp
    ddiv.o(x$fpl$ddiv) refers to dretinf.o(x$fpl$dretinf) for __fpl_dretinf
    ddiv.o(x$fpl$ddiv) refers to dnaninf.o(x$fpl$dnaninf) for __fpl_dnaninf
    dnaninf.o(x$fpl$dnaninf) refers (Special) to usenofp.o(x$fpl$usenofp) for __I$use$fp
    dretinf.o(x$fpl$dretinf) refers (Special) to usenofp.o(x$fpl$usenofp) for __I$use$fp
    drleqf.o(x$fpl$drleqf) refers (Special) to usenofp.o(x$fpl$usenofp) for __I$use$fp
    drleqf.o(x$fpl$drleqf) refers to dleqf.o(x$fpl$dleqf) for __fpl_dcmple_InfNaN
    feqf.o(x$fpl$feqf) refers (Special) to usenofp.o(x$fpl$usenofp) for __I$use$fp
    feqf.o(x$fpl$feqf) refers to fnaninf.o(x$fpl$fnaninf) for __fpl_fnaninf
    feqf.o(x$fpl$feqf) refers to fcmpi.o(x$fpl$fcmpinf) for __fpl_fcmp_Inf
    fgeqf.o(x$fpl$fgeqf) refers (Special) to usenofp.o(x$fpl$usenofp) for __I$use$fp
    fgeqf.o(x$fpl$fgeqf) refers to fnaninf.o(x$fpl$fnaninf) for __fpl_fnaninf
    fgeqf.o(x$fpl$fgeqf) refers to fcmpi.o(x$fpl$fcmpinf) for __fpl_fcmp_Inf
    fleqf.o(x$fpl$fleqf) refers (Special) to usenofp.o(x$fpl$usenofp) for __I$use$fp
    fleqf.o(x$fpl$fleqf) refers to fnaninf.o(x$fpl$fnaninf) for __fpl_fnaninf
    fleqf.o(x$fpl$fleqf) refers to fcmpi.o(x$fpl$fcmpinf) for __fpl_fcmp_Inf
    fnaninf.o(x$fpl$fnaninf) refers (Special) to usenofp.o(x$fpl$usenofp) for __I$use$fp
    fretinf.o(x$fpl$fretinf) refers (Special) to usenofp.o(x$fpl$usenofp) for __I$use$fp
    printf1.o(x$fpl$printf1) refers to _printf_fp_dec.o(.text) for _printf_fp_dec_real
    scalbn.o(x$fpl$scalbn) refers (Special) to usenofp.o(x$fpl$usenofp) for __I$use$fp
    scalbn.o(x$fpl$scalbn) refers to dcheck1.o(x$fpl$dcheck1) for __fpl_dcheck_NaN1
    stdexcept.cpp.o(.text._ZNSt11logic_errorC2ERKNSt3__112basic_stringIcNS0_11char_traitsIcEENS0_9allocatorIcEEEE) refers to stdlib_stdexcept.cpp.o(.rodata._ZTVSt11logic_error) for vtable for std::logic_error
    stdexcept.cpp.o(.text._ZNSt11logic_errorC2ERKNSt3__112basic_stringIcNS0_11char_traitsIcEENS0_9allocatorIcEEEE) refers to strlen.o(.text) for strlen
    stdexcept.cpp.o(.text._ZNSt11logic_errorC2ERKNSt3__112basic_stringIcNS0_11char_traitsIcEENS0_9allocatorIcEEEE) refers to new.cpp.o(.text._Znwj) for operator new(unsigned)
    stdexcept.cpp.o(.text._ZNSt11logic_errorC2ERKNSt3__112basic_stringIcNS0_11char_traitsIcEENS0_9allocatorIcEEEE) refers to rt_memcpy_v6.o(.text) for __aeabi_memcpy
    stdexcept.cpp.o(.text._ZNSt11logic_errorC2ERKNSt3__112basic_stringIcNS0_11char_traitsIcEENS0_9allocatorIcEEEE) refers to Unwind-EHABI.cpp.o(.text._Unwind_Resume) for _Unwind_Resume
    stdexcept.cpp.o(.ARM.extab.text._ZNSt11logic_errorC2ERKNSt3__112basic_stringIcNS0_11char_traitsIcEENS0_9allocatorIcEEEE) refers to cxa_personality.cpp.o(.text.__gxx_personality_v0) for __gxx_personality_v0
    stdexcept.cpp.o(.ARM.exidx.text._ZNSt11logic_errorC2ERKNSt3__112basic_stringIcNS0_11char_traitsIcEENS0_9allocatorIcEEEE) refers to stdexcept.cpp.o(.text._ZNSt11logic_errorC2ERKNSt3__112basic_stringIcNS0_11char_traitsIcEENS0_9allocatorIcEEEE) for [Anonymous Symbol]
    stdexcept.cpp.o(.ARM.exidx.text._ZNSt11logic_errorC2ERKNSt3__112basic_stringIcNS0_11char_traitsIcEENS0_9allocatorIcEEEE) refers to stdexcept.cpp.o(.ARM.extab.text._ZNSt11logic_errorC2ERKNSt3__112basic_stringIcNS0_11char_traitsIcEENS0_9allocatorIcEEEE) for [Anonymous Symbol]
    stdexcept.cpp.o(.text._ZNSt11logic_errorC2EPKc) refers to stdlib_stdexcept.cpp.o(.rodata._ZTVSt11logic_error) for vtable for std::logic_error
    stdexcept.cpp.o(.text._ZNSt11logic_errorC2EPKc) refers to strlen.o(.text) for strlen
    stdexcept.cpp.o(.text._ZNSt11logic_errorC2EPKc) refers to new.cpp.o(.text._Znwj) for operator new(unsigned)
    stdexcept.cpp.o(.text._ZNSt11logic_errorC2EPKc) refers to rt_memcpy_v6.o(.text) for __aeabi_memcpy
    stdexcept.cpp.o(.text._ZNSt11logic_errorC2EPKc) refers to Unwind-EHABI.cpp.o(.text._Unwind_Resume) for _Unwind_Resume
    stdexcept.cpp.o(.ARM.extab.text._ZNSt11logic_errorC2EPKc) refers to cxa_personality.cpp.o(.text.__gxx_personality_v0) for __gxx_personality_v0
    stdexcept.cpp.o(.ARM.exidx.text._ZNSt11logic_errorC2EPKc) refers to stdexcept.cpp.o(.text._ZNSt11logic_errorC2EPKc) for [Anonymous Symbol]
    stdexcept.cpp.o(.ARM.exidx.text._ZNSt11logic_errorC2EPKc) refers to stdexcept.cpp.o(.ARM.extab.text._ZNSt11logic_errorC2EPKc) for [Anonymous Symbol]
    stdexcept.cpp.o(.text._ZNSt11logic_errorC2ERKS_) refers to stdlib_stdexcept.cpp.o(.rodata._ZTVSt11logic_error) for vtable for std::logic_error
    stdexcept.cpp.o(.ARM.exidx.text._ZNSt11logic_errorC2ERKS_) refers to Unwind-EHABI.cpp.o(.text.__aeabi_unwind_cpp_pr0) for __aeabi_unwind_cpp_pr0
    stdexcept.cpp.o(.ARM.exidx.text._ZNSt11logic_errorC2ERKS_) refers to stdexcept.cpp.o(.text._ZNSt11logic_errorC2ERKS_) for [Anonymous Symbol]
    stdexcept.cpp.o(.text._ZNSt11logic_erroraSERKS_) refers to new.cpp.o(.text._ZdlPv) for operator delete (void*)
    stdexcept.cpp.o(.ARM.exidx.text._ZNSt11logic_erroraSERKS_) refers to Unwind-EHABI.cpp.o(.text.__aeabi_unwind_cpp_pr0) for __aeabi_unwind_cpp_pr0
    stdexcept.cpp.o(.ARM.exidx.text._ZNSt11logic_erroraSERKS_) refers to stdexcept.cpp.o(.text._ZNSt11logic_erroraSERKS_) for [Anonymous Symbol]
    stdexcept.cpp.o(.text._ZNSt13runtime_errorC2ERKNSt3__112basic_stringIcNS0_11char_traitsIcEENS0_9allocatorIcEEEE) refers to stdlib_stdexcept.cpp.o(.rodata._ZTVSt13runtime_error) for vtable for std::runtime_error
    stdexcept.cpp.o(.text._ZNSt13runtime_errorC2ERKNSt3__112basic_stringIcNS0_11char_traitsIcEENS0_9allocatorIcEEEE) refers to strlen.o(.text) for strlen
    stdexcept.cpp.o(.text._ZNSt13runtime_errorC2ERKNSt3__112basic_stringIcNS0_11char_traitsIcEENS0_9allocatorIcEEEE) refers to new.cpp.o(.text._Znwj) for operator new(unsigned)
    stdexcept.cpp.o(.text._ZNSt13runtime_errorC2ERKNSt3__112basic_stringIcNS0_11char_traitsIcEENS0_9allocatorIcEEEE) refers to rt_memcpy_v6.o(.text) for __aeabi_memcpy
    stdexcept.cpp.o(.text._ZNSt13runtime_errorC2ERKNSt3__112basic_stringIcNS0_11char_traitsIcEENS0_9allocatorIcEEEE) refers to Unwind-EHABI.cpp.o(.text._Unwind_Resume) for _Unwind_Resume
    stdexcept.cpp.o(.ARM.extab.text._ZNSt13runtime_errorC2ERKNSt3__112basic_stringIcNS0_11char_traitsIcEENS0_9allocatorIcEEEE) refers to cxa_personality.cpp.o(.text.__gxx_personality_v0) for __gxx_personality_v0
    stdexcept.cpp.o(.ARM.exidx.text._ZNSt13runtime_errorC2ERKNSt3__112basic_stringIcNS0_11char_traitsIcEENS0_9allocatorIcEEEE) refers to stdexcept.cpp.o(.text._ZNSt13runtime_errorC2ERKNSt3__112basic_stringIcNS0_11char_traitsIcEENS0_9allocatorIcEEEE) for [Anonymous Symbol]
    stdexcept.cpp.o(.ARM.exidx.text._ZNSt13runtime_errorC2ERKNSt3__112basic_stringIcNS0_11char_traitsIcEENS0_9allocatorIcEEEE) refers to stdexcept.cpp.o(.ARM.extab.text._ZNSt13runtime_errorC2ERKNSt3__112basic_stringIcNS0_11char_traitsIcEENS0_9allocatorIcEEEE) for [Anonymous Symbol]
    stdexcept.cpp.o(.text._ZNSt13runtime_errorC2EPKc) refers to stdlib_stdexcept.cpp.o(.rodata._ZTVSt13runtime_error) for vtable for std::runtime_error
    stdexcept.cpp.o(.text._ZNSt13runtime_errorC2EPKc) refers to strlen.o(.text) for strlen
    stdexcept.cpp.o(.text._ZNSt13runtime_errorC2EPKc) refers to new.cpp.o(.text._Znwj) for operator new(unsigned)
    stdexcept.cpp.o(.text._ZNSt13runtime_errorC2EPKc) refers to rt_memcpy_v6.o(.text) for __aeabi_memcpy
    stdexcept.cpp.o(.text._ZNSt13runtime_errorC2EPKc) refers to Unwind-EHABI.cpp.o(.text._Unwind_Resume) for _Unwind_Resume
    stdexcept.cpp.o(.ARM.extab.text._ZNSt13runtime_errorC2EPKc) refers to cxa_personality.cpp.o(.text.__gxx_personality_v0) for __gxx_personality_v0
    stdexcept.cpp.o(.ARM.exidx.text._ZNSt13runtime_errorC2EPKc) refers to stdexcept.cpp.o(.text._ZNSt13runtime_errorC2EPKc) for [Anonymous Symbol]
    stdexcept.cpp.o(.ARM.exidx.text._ZNSt13runtime_errorC2EPKc) refers to stdexcept.cpp.o(.ARM.extab.text._ZNSt13runtime_errorC2EPKc) for [Anonymous Symbol]
    stdexcept.cpp.o(.text._ZNSt13runtime_errorC2ERKS_) refers to stdlib_stdexcept.cpp.o(.rodata._ZTVSt13runtime_error) for vtable for std::runtime_error
    stdexcept.cpp.o(.ARM.exidx.text._ZNSt13runtime_errorC2ERKS_) refers to Unwind-EHABI.cpp.o(.text.__aeabi_unwind_cpp_pr0) for __aeabi_unwind_cpp_pr0
    stdexcept.cpp.o(.ARM.exidx.text._ZNSt13runtime_errorC2ERKS_) refers to stdexcept.cpp.o(.text._ZNSt13runtime_errorC2ERKS_) for [Anonymous Symbol]
    stdexcept.cpp.o(.text._ZNSt13runtime_erroraSERKS_) refers to new.cpp.o(.text._ZdlPv) for operator delete (void*)
    stdexcept.cpp.o(.ARM.exidx.text._ZNSt13runtime_erroraSERKS_) refers to Unwind-EHABI.cpp.o(.text.__aeabi_unwind_cpp_pr0) for __aeabi_unwind_cpp_pr0
    stdexcept.cpp.o(.ARM.exidx.text._ZNSt13runtime_erroraSERKS_) refers to stdexcept.cpp.o(.text._ZNSt13runtime_erroraSERKS_) for [Anonymous Symbol]
    cxa_exception_storage.cpp.o(.text.__cxa_get_globals) refers to cxa_exception_storage.cpp.o(.bss._ZN10__cxxabiv1L10eh_globalsE) for _ZN10__cxxabiv1L10eh_globalsE
    cxa_exception_storage.cpp.o(.ARM.exidx.text.__cxa_get_globals) refers to Unwind-EHABI.cpp.o(.text.__aeabi_unwind_cpp_pr0) for __aeabi_unwind_cpp_pr0
    cxa_exception_storage.cpp.o(.ARM.exidx.text.__cxa_get_globals) refers to cxa_exception_storage.cpp.o(.text.__cxa_get_globals) for [Anonymous Symbol]
    cxa_exception_storage.cpp.o(.text.__cxa_get_globals_fast) refers to cxa_exception_storage.cpp.o(.bss._ZN10__cxxabiv1L10eh_globalsE) for _ZN10__cxxabiv1L10eh_globalsE
    cxa_exception_storage.cpp.o(.ARM.exidx.text.__cxa_get_globals_fast) refers to Unwind-EHABI.cpp.o(.text.__aeabi_unwind_cpp_pr0) for __aeabi_unwind_cpp_pr0
    cxa_exception_storage.cpp.o(.ARM.exidx.text.__cxa_get_globals_fast) refers to cxa_exception_storage.cpp.o(.text.__cxa_get_globals_fast) for [Anonymous Symbol]
    cxa_handlers.cpp.o(.text._ZSt14get_unexpectedv) refers to cxa_default_handlers.cpp.o(.data.__cxa_unexpected_handler) for __cxa_unexpected_handler
    cxa_handlers.cpp.o(.ARM.exidx.text._ZSt14get_unexpectedv) refers to Unwind-EHABI.cpp.o(.text.__aeabi_unwind_cpp_pr0) for __aeabi_unwind_cpp_pr0
    cxa_handlers.cpp.o(.ARM.exidx.text._ZSt14get_unexpectedv) refers to cxa_handlers.cpp.o(.text._ZSt14get_unexpectedv) for [Anonymous Symbol]
    cxa_handlers.cpp.o(.text._ZSt12__unexpectedPFvvE) refers to abort_message.cpp.o(.text.abort_message) for abort_message
    cxa_handlers.cpp.o(.ARM.exidx.text._ZSt12__unexpectedPFvvE) refers to Unwind-EHABI.cpp.o(.text.__aeabi_unwind_cpp_pr0) for __aeabi_unwind_cpp_pr0
    cxa_handlers.cpp.o(.ARM.exidx.text._ZSt12__unexpectedPFvvE) refers to cxa_handlers.cpp.o(.text._ZSt12__unexpectedPFvvE) for [Anonymous Symbol]
    cxa_handlers.cpp.o(.text._ZSt10unexpectedv) refers to cxa_default_handlers.cpp.o(.data.__cxa_unexpected_handler) for __cxa_unexpected_handler
    cxa_handlers.cpp.o(.text._ZSt10unexpectedv) refers to cxa_handlers.cpp.o(.text._ZSt12__unexpectedPFvvE) for std::__unexpected(void(*)())
    cxa_handlers.cpp.o(.ARM.exidx.text._ZSt10unexpectedv) refers to Unwind-EHABI.cpp.o(.text.__aeabi_unwind_cpp_pr0) for __aeabi_unwind_cpp_pr0
    cxa_handlers.cpp.o(.ARM.exidx.text._ZSt10unexpectedv) refers to cxa_handlers.cpp.o(.text._ZSt10unexpectedv) for [Anonymous Symbol]
    cxa_handlers.cpp.o(.text._ZSt13get_terminatev) refers to cxa_default_handlers.cpp.o(.data.__cxa_terminate_handler) for __cxa_terminate_handler
    cxa_handlers.cpp.o(.ARM.exidx.text._ZSt13get_terminatev) refers to Unwind-EHABI.cpp.o(.text.__aeabi_unwind_cpp_pr0) for __aeabi_unwind_cpp_pr0
    cxa_handlers.cpp.o(.ARM.exidx.text._ZSt13get_terminatev) refers to cxa_handlers.cpp.o(.text._ZSt13get_terminatev) for [Anonymous Symbol]
    cxa_handlers.cpp.o(.text._ZSt11__terminatePFvvE) refers to abort_message.cpp.o(.text.abort_message) for abort_message
    cxa_handlers.cpp.o(.text._ZSt11__terminatePFvvE) refers to cxa_exception.cpp.o(.text.__cxa_begin_catch) for __cxa_begin_catch
    cxa_handlers.cpp.o(.text._ZSt11__terminatePFvvE) refers to cxa_exception.cpp.o(.text.__cxa_end_catch) for __cxa_end_catch
    cxa_handlers.cpp.o(.text._ZSt11__terminatePFvvE) refers to string.cpp.o(.text.__clang_call_terminate) for __clang_call_terminate
    cxa_handlers.cpp.o(.ARM.extab.text._ZSt11__terminatePFvvE) refers to cxa_personality.cpp.o(.text.__gxx_personality_v0) for __gxx_personality_v0
    cxa_handlers.cpp.o(.ARM.exidx.text._ZSt11__terminatePFvvE) refers to cxa_handlers.cpp.o(.text._ZSt11__terminatePFvvE) for [Anonymous Symbol]
    cxa_handlers.cpp.o(.ARM.exidx.text._ZSt11__terminatePFvvE) refers to cxa_handlers.cpp.o(.ARM.extab.text._ZSt11__terminatePFvvE) for [Anonymous Symbol]
    cxa_handlers.cpp.o(.text._ZSt9terminatev) refers to cxa_exception_storage.cpp.o(.text.__cxa_get_globals_fast) for __cxa_get_globals_fast
    cxa_handlers.cpp.o(.text._ZSt9terminatev) refers to cxa_default_handlers.cpp.o(.data.__cxa_terminate_handler) for __cxa_terminate_handler
    cxa_handlers.cpp.o(.text._ZSt9terminatev) refers to cxa_handlers.cpp.o(.text._ZSt11__terminatePFvvE) for std::__terminate(void(*)())
    cxa_handlers.cpp.o(.text._ZSt9terminatev) refers to string.cpp.o(.text.__clang_call_terminate) for __clang_call_terminate
    cxa_handlers.cpp.o(.ARM.extab.text._ZSt9terminatev) refers to cxa_personality.cpp.o(.text.__gxx_personality_v0) for __gxx_personality_v0
    cxa_handlers.cpp.o(.ARM.exidx.text._ZSt9terminatev) refers to cxa_handlers.cpp.o(.text._ZSt9terminatev) for [Anonymous Symbol]
    cxa_handlers.cpp.o(.ARM.exidx.text._ZSt9terminatev) refers to cxa_handlers.cpp.o(.ARM.extab.text._ZSt9terminatev) for [Anonymous Symbol]
    cxa_handlers.cpp.o(.text._ZSt15set_new_handlerPFvvE) refers to cxa_handlers.cpp.o(.bss.__cxa_new_handler) for __cxa_new_handler
    cxa_handlers.cpp.o(.ARM.exidx.text._ZSt15set_new_handlerPFvvE) refers to Unwind-EHABI.cpp.o(.text.__aeabi_unwind_cpp_pr0) for __aeabi_unwind_cpp_pr0
    cxa_handlers.cpp.o(.ARM.exidx.text._ZSt15set_new_handlerPFvvE) refers to cxa_handlers.cpp.o(.text._ZSt15set_new_handlerPFvvE) for [Anonymous Symbol]
    cxa_handlers.cpp.o(.text._ZSt15get_new_handlerv) refers to cxa_handlers.cpp.o(.bss.__cxa_new_handler) for __cxa_new_handler
    cxa_handlers.cpp.o(.ARM.exidx.text._ZSt15get_new_handlerv) refers to Unwind-EHABI.cpp.o(.text.__aeabi_unwind_cpp_pr0) for __aeabi_unwind_cpp_pr0
    cxa_handlers.cpp.o(.ARM.exidx.text._ZSt15get_new_handlerv) refers to cxa_handlers.cpp.o(.text._ZSt15get_new_handlerv) for [Anonymous Symbol]
    stdlib_exception.cpp.o(.ARM.exidx.text._ZNSt9exceptionD2Ev) refers to Unwind-EHABI.cpp.o(.text.__aeabi_unwind_cpp_pr0) for __aeabi_unwind_cpp_pr0
    stdlib_exception.cpp.o(.ARM.exidx.text._ZNSt9exceptionD2Ev) refers to stdlib_exception.cpp.o(.text._ZNSt9exceptionD2Ev) for [Anonymous Symbol]
    stdlib_exception.cpp.o(.text._ZNSt9exceptionD0Ev) refers to new.cpp.o(.text._ZdlPv) for operator delete (void*)
    stdlib_exception.cpp.o(.ARM.exidx.text._ZNSt9exceptionD0Ev) refers to Unwind-EHABI.cpp.o(.text.__aeabi_unwind_cpp_pr0) for __aeabi_unwind_cpp_pr0
    stdlib_exception.cpp.o(.ARM.exidx.text._ZNSt9exceptionD0Ev) refers to stdlib_exception.cpp.o(.text._ZNSt9exceptionD0Ev) for [Anonymous Symbol]
    stdlib_exception.cpp.o(.ARM.exidx.text._ZNKSt9exception4whatEv) refers to Unwind-EHABI.cpp.o(.text.__aeabi_unwind_cpp_pr0) for __aeabi_unwind_cpp_pr0
    stdlib_exception.cpp.o(.ARM.exidx.text._ZNKSt9exception4whatEv) refers to stdlib_exception.cpp.o(.text._ZNKSt9exception4whatEv) for [Anonymous Symbol]
    stdlib_exception.cpp.o(.text._ZNSt13bad_exceptionD0Ev) refers to new.cpp.o(.text._ZdlPv) for operator delete (void*)
    stdlib_exception.cpp.o(.ARM.exidx.text._ZNSt13bad_exceptionD0Ev) refers to Unwind-EHABI.cpp.o(.text.__aeabi_unwind_cpp_pr0) for __aeabi_unwind_cpp_pr0
    stdlib_exception.cpp.o(.ARM.exidx.text._ZNSt13bad_exceptionD0Ev) refers to stdlib_exception.cpp.o(.text._ZNSt13bad_exceptionD0Ev) for [Anonymous Symbol]
    stdlib_exception.cpp.o(.ARM.exidx.text._ZNKSt13bad_exception4whatEv) refers to Unwind-EHABI.cpp.o(.text.__aeabi_unwind_cpp_pr0) for __aeabi_unwind_cpp_pr0
    stdlib_exception.cpp.o(.ARM.exidx.text._ZNKSt13bad_exception4whatEv) refers to stdlib_exception.cpp.o(.text._ZNKSt13bad_exception4whatEv) for [Anonymous Symbol]
    stdlib_exception.cpp.o(.text._ZNSt9bad_allocC2Ev) refers to stdlib_exception.cpp.o(.rodata._ZTVSt9bad_alloc) for vtable for std::bad_alloc
    stdlib_exception.cpp.o(.ARM.exidx.text._ZNSt9bad_allocC2Ev) refers to Unwind-EHABI.cpp.o(.text.__aeabi_unwind_cpp_pr0) for __aeabi_unwind_cpp_pr0
    stdlib_exception.cpp.o(.ARM.exidx.text._ZNSt9bad_allocC2Ev) refers to stdlib_exception.cpp.o(.text._ZNSt9bad_allocC2Ev) for [Anonymous Symbol]
    stdlib_exception.cpp.o(.text._ZNSt9bad_allocD0Ev) refers to new.cpp.o(.text._ZdlPv) for operator delete (void*)
    stdlib_exception.cpp.o(.ARM.exidx.text._ZNSt9bad_allocD0Ev) refers to Unwind-EHABI.cpp.o(.text.__aeabi_unwind_cpp_pr0) for __aeabi_unwind_cpp_pr0
    stdlib_exception.cpp.o(.ARM.exidx.text._ZNSt9bad_allocD0Ev) refers to stdlib_exception.cpp.o(.text._ZNSt9bad_allocD0Ev) for [Anonymous Symbol]
    stdlib_exception.cpp.o(.ARM.exidx.text._ZNKSt9bad_alloc4whatEv) refers to Unwind-EHABI.cpp.o(.text.__aeabi_unwind_cpp_pr0) for __aeabi_unwind_cpp_pr0
    stdlib_exception.cpp.o(.ARM.exidx.text._ZNKSt9bad_alloc4whatEv) refers to stdlib_exception.cpp.o(.text._ZNKSt9bad_alloc4whatEv) for [Anonymous Symbol]
    stdlib_exception.cpp.o(.text._ZNSt20bad_array_new_lengthC2Ev) refers to stdlib_exception.cpp.o(.rodata._ZTVSt20bad_array_new_length) for vtable for std::bad_array_new_length
    stdlib_exception.cpp.o(.ARM.exidx.text._ZNSt20bad_array_new_lengthC2Ev) refers to Unwind-EHABI.cpp.o(.text.__aeabi_unwind_cpp_pr0) for __aeabi_unwind_cpp_pr0
    stdlib_exception.cpp.o(.ARM.exidx.text._ZNSt20bad_array_new_lengthC2Ev) refers to stdlib_exception.cpp.o(.text._ZNSt20bad_array_new_lengthC2Ev) for [Anonymous Symbol]
    stdlib_exception.cpp.o(.text._ZNSt20bad_array_new_lengthD0Ev) refers to new.cpp.o(.text._ZdlPv) for operator delete (void*)
    stdlib_exception.cpp.o(.ARM.exidx.text._ZNSt20bad_array_new_lengthD0Ev) refers to Unwind-EHABI.cpp.o(.text.__aeabi_unwind_cpp_pr0) for __aeabi_unwind_cpp_pr0
    stdlib_exception.cpp.o(.ARM.exidx.text._ZNSt20bad_array_new_lengthD0Ev) refers to stdlib_exception.cpp.o(.text._ZNSt20bad_array_new_lengthD0Ev) for [Anonymous Symbol]
    stdlib_exception.cpp.o(.ARM.exidx.text._ZNKSt20bad_array_new_length4whatEv) refers to Unwind-EHABI.cpp.o(.text.__aeabi_unwind_cpp_pr0) for __aeabi_unwind_cpp_pr0
    stdlib_exception.cpp.o(.ARM.exidx.text._ZNKSt20bad_array_new_length4whatEv) refers to stdlib_exception.cpp.o(.text._ZNKSt20bad_array_new_length4whatEv) for [Anonymous Symbol]
    stdlib_exception.cpp.o(.text._ZNSt16bad_array_lengthC2Ev) refers to stdlib_exception.cpp.o(.rodata._ZTVSt16bad_array_length) for vtable for std::bad_array_length
    stdlib_exception.cpp.o(.ARM.exidx.text._ZNSt16bad_array_lengthC2Ev) refers to Unwind-EHABI.cpp.o(.text.__aeabi_unwind_cpp_pr0) for __aeabi_unwind_cpp_pr0
    stdlib_exception.cpp.o(.ARM.exidx.text._ZNSt16bad_array_lengthC2Ev) refers to stdlib_exception.cpp.o(.text._ZNSt16bad_array_lengthC2Ev) for [Anonymous Symbol]
    stdlib_exception.cpp.o(.text._ZNSt16bad_array_lengthD0Ev) refers to new.cpp.o(.text._ZdlPv) for operator delete (void*)
    stdlib_exception.cpp.o(.ARM.exidx.text._ZNSt16bad_array_lengthD0Ev) refers to Unwind-EHABI.cpp.o(.text.__aeabi_unwind_cpp_pr0) for __aeabi_unwind_cpp_pr0
    stdlib_exception.cpp.o(.ARM.exidx.text._ZNSt16bad_array_lengthD0Ev) refers to stdlib_exception.cpp.o(.text._ZNSt16bad_array_lengthD0Ev) for [Anonymous Symbol]
    stdlib_exception.cpp.o(.ARM.exidx.text._ZNKSt16bad_array_length4whatEv) refers to Unwind-EHABI.cpp.o(.text.__aeabi_unwind_cpp_pr0) for __aeabi_unwind_cpp_pr0
    stdlib_exception.cpp.o(.ARM.exidx.text._ZNKSt16bad_array_length4whatEv) refers to stdlib_exception.cpp.o(.text._ZNKSt16bad_array_length4whatEv) for [Anonymous Symbol]
    stdlib_exception.cpp.o(.rodata._ZTVSt9bad_alloc) refers to stdlib_exception.cpp.o(.rodata._ZTISt9bad_alloc) for typeinfo for std::bad_alloc
    stdlib_exception.cpp.o(.rodata._ZTVSt9bad_alloc) refers to stdlib_exception.cpp.o(.text._ZNSt9exceptionD2Ev) for std::exception::~exception__sub_object()
    stdlib_exception.cpp.o(.rodata._ZTVSt9bad_alloc) refers to stdlib_exception.cpp.o(.text._ZNSt9bad_allocD0Ev) for std::bad_alloc::~bad_alloc__deallocating()
    stdlib_exception.cpp.o(.rodata._ZTVSt9bad_alloc) refers to stdlib_exception.cpp.o(.text._ZNKSt9bad_alloc4whatEv) for std::bad_alloc::what() const
    stdlib_exception.cpp.o(.rodata._ZTVSt20bad_array_new_length) refers to stdlib_exception.cpp.o(.rodata._ZTISt20bad_array_new_length) for typeinfo for std::bad_array_new_length
    stdlib_exception.cpp.o(.rodata._ZTVSt20bad_array_new_length) refers to stdlib_exception.cpp.o(.text._ZNSt9exceptionD2Ev) for std::exception::~exception__sub_object()
    stdlib_exception.cpp.o(.rodata._ZTVSt20bad_array_new_length) refers to stdlib_exception.cpp.o(.text._ZNSt20bad_array_new_lengthD0Ev) for std::bad_array_new_length::~bad_array_new_length__deallocating()
    stdlib_exception.cpp.o(.rodata._ZTVSt20bad_array_new_length) refers to stdlib_exception.cpp.o(.text._ZNKSt20bad_array_new_length4whatEv) for std::bad_array_new_length::what() const
    stdlib_exception.cpp.o(.rodata._ZTVSt16bad_array_length) refers to stdlib_exception.cpp.o(.rodata._ZTISt16bad_array_length) for typeinfo for std::bad_array_length
    stdlib_exception.cpp.o(.rodata._ZTVSt16bad_array_length) refers to stdlib_exception.cpp.o(.text._ZNSt9exceptionD2Ev) for std::exception::~exception__sub_object()
    stdlib_exception.cpp.o(.rodata._ZTVSt16bad_array_length) refers to stdlib_exception.cpp.o(.text._ZNSt16bad_array_lengthD0Ev) for std::bad_array_length::~bad_array_length__deallocating()
    stdlib_exception.cpp.o(.rodata._ZTVSt16bad_array_length) refers to stdlib_exception.cpp.o(.text._ZNKSt16bad_array_length4whatEv) for std::bad_array_length::what() const
    stdlib_exception.cpp.o(.rodata._ZTVSt9exception) refers to stdlib_exception.cpp.o(.rodata._ZTISt9exception) for typeinfo for std::exception
    stdlib_exception.cpp.o(.rodata._ZTVSt9exception) refers to stdlib_exception.cpp.o(.text._ZNSt9exceptionD2Ev) for std::exception::~exception__sub_object()
    stdlib_exception.cpp.o(.rodata._ZTVSt9exception) refers to stdlib_exception.cpp.o(.text._ZNSt9exceptionD0Ev) for std::exception::~exception__deallocating()
    stdlib_exception.cpp.o(.rodata._ZTVSt9exception) refers to stdlib_exception.cpp.o(.text._ZNKSt9exception4whatEv) for std::exception::what() const
    stdlib_exception.cpp.o(.rodata._ZTISt9exception) refers to private_typeinfo.cpp.o(.rodata._ZTVN10__cxxabiv117__class_type_infoE) for vtable for __cxxabiv1::__class_type_info
    stdlib_exception.cpp.o(.rodata._ZTISt9exception) refers to stdlib_exception.cpp.o(.rodata._ZTSSt9exception) for typeinfo name for std::exception
    stdlib_exception.cpp.o(.rodata._ZTVSt13bad_exception) refers to stdlib_exception.cpp.o(.rodata._ZTISt13bad_exception) for typeinfo for std::bad_exception
    stdlib_exception.cpp.o(.rodata._ZTVSt13bad_exception) refers to stdlib_exception.cpp.o(.text._ZNSt9exceptionD2Ev) for std::exception::~exception__sub_object()
    stdlib_exception.cpp.o(.rodata._ZTVSt13bad_exception) refers to stdlib_exception.cpp.o(.text._ZNSt13bad_exceptionD0Ev) for std::bad_exception::~bad_exception__deallocating()
    stdlib_exception.cpp.o(.rodata._ZTVSt13bad_exception) refers to stdlib_exception.cpp.o(.text._ZNKSt13bad_exception4whatEv) for std::bad_exception::what() const
    stdlib_exception.cpp.o(.rodata._ZTISt13bad_exception) refers to private_typeinfo.cpp.o(.rodata._ZTVN10__cxxabiv120__si_class_type_infoE) for vtable for __cxxabiv1::__si_class_type_info
    stdlib_exception.cpp.o(.rodata._ZTISt13bad_exception) refers to stdlib_exception.cpp.o(.rodata._ZTSSt13bad_exception) for typeinfo name for std::bad_exception
    stdlib_exception.cpp.o(.rodata._ZTISt13bad_exception) refers to stdlib_exception.cpp.o(.rodata._ZTISt9exception) for typeinfo for std::exception
    stdlib_exception.cpp.o(.rodata._ZTISt9bad_alloc) refers to private_typeinfo.cpp.o(.rodata._ZTVN10__cxxabiv120__si_class_type_infoE) for vtable for __cxxabiv1::__si_class_type_info
    stdlib_exception.cpp.o(.rodata._ZTISt9bad_alloc) refers to stdlib_exception.cpp.o(.rodata._ZTSSt9bad_alloc) for typeinfo name for std::bad_alloc
    stdlib_exception.cpp.o(.rodata._ZTISt9bad_alloc) refers to stdlib_exception.cpp.o(.rodata._ZTISt9exception) for typeinfo for std::exception
    stdlib_exception.cpp.o(.rodata._ZTISt16bad_array_length) refers to private_typeinfo.cpp.o(.rodata._ZTVN10__cxxabiv120__si_class_type_infoE) for vtable for __cxxabiv1::__si_class_type_info
    stdlib_exception.cpp.o(.rodata._ZTISt16bad_array_length) refers to stdlib_exception.cpp.o(.rodata._ZTSSt16bad_array_length) for typeinfo name for std::bad_array_length
    stdlib_exception.cpp.o(.rodata._ZTISt16bad_array_length) refers to stdlib_exception.cpp.o(.rodata._ZTISt9bad_alloc) for typeinfo for std::bad_alloc
    stdlib_exception.cpp.o(.rodata._ZTISt20bad_array_new_length) refers to private_typeinfo.cpp.o(.rodata._ZTVN10__cxxabiv120__si_class_type_infoE) for vtable for __cxxabiv1::__si_class_type_info
    stdlib_exception.cpp.o(.rodata._ZTISt20bad_array_new_length) refers to stdlib_exception.cpp.o(.rodata._ZTSSt20bad_array_new_length) for typeinfo name for std::bad_array_new_length
    stdlib_exception.cpp.o(.rodata._ZTISt20bad_array_new_length) refers to stdlib_exception.cpp.o(.rodata._ZTISt9bad_alloc) for typeinfo for std::bad_alloc
    stdlib_stdexcept.cpp.o(.text._ZNSt11logic_errorD2Ev) refers to stdlib_stdexcept.cpp.o(.rodata._ZTVSt11logic_error) for vtable for std::logic_error
    stdlib_stdexcept.cpp.o(.text._ZNSt11logic_errorD2Ev) refers to new.cpp.o(.text._ZdlPv) for operator delete (void*)
    stdlib_stdexcept.cpp.o(.text._ZNSt11logic_errorD2Ev) refers to stdlib_exception.cpp.o(.text._ZNSt9exceptionD2Ev) for std::exception::~exception__sub_object()
    stdlib_stdexcept.cpp.o(.ARM.exidx.text._ZNSt11logic_errorD2Ev) refers to Unwind-EHABI.cpp.o(.text.__aeabi_unwind_cpp_pr0) for __aeabi_unwind_cpp_pr0
    stdlib_stdexcept.cpp.o(.ARM.exidx.text._ZNSt11logic_errorD2Ev) refers to stdlib_stdexcept.cpp.o(.text._ZNSt11logic_errorD2Ev) for [Anonymous Symbol]
    stdlib_stdexcept.cpp.o(.text._ZNSt11logic_errorD0Ev) refers to stdlib_stdexcept.cpp.o(.text._ZNSt11logic_errorD2Ev) for std::logic_error::~logic_error__sub_object()
    stdlib_stdexcept.cpp.o(.text._ZNSt11logic_errorD0Ev) refers to new.cpp.o(.text._ZdlPv) for operator delete (void*)
    stdlib_stdexcept.cpp.o(.ARM.exidx.text._ZNSt11logic_errorD0Ev) refers to Unwind-EHABI.cpp.o(.text.__aeabi_unwind_cpp_pr0) for __aeabi_unwind_cpp_pr0
    stdlib_stdexcept.cpp.o(.ARM.exidx.text._ZNSt11logic_errorD0Ev) refers to stdlib_stdexcept.cpp.o(.text._ZNSt11logic_errorD0Ev) for [Anonymous Symbol]
    stdlib_stdexcept.cpp.o(.ARM.exidx.text._ZNKSt11logic_error4whatEv) refers to Unwind-EHABI.cpp.o(.text.__aeabi_unwind_cpp_pr0) for __aeabi_unwind_cpp_pr0
    stdlib_stdexcept.cpp.o(.ARM.exidx.text._ZNKSt11logic_error4whatEv) refers to stdlib_stdexcept.cpp.o(.text._ZNKSt11logic_error4whatEv) for [Anonymous Symbol]
    stdlib_stdexcept.cpp.o(.text._ZNSt13runtime_errorD2Ev) refers to stdlib_stdexcept.cpp.o(.rodata._ZTVSt13runtime_error) for vtable for std::runtime_error
    stdlib_stdexcept.cpp.o(.text._ZNSt13runtime_errorD2Ev) refers to new.cpp.o(.text._ZdlPv) for operator delete (void*)
    stdlib_stdexcept.cpp.o(.text._ZNSt13runtime_errorD2Ev) refers to stdlib_exception.cpp.o(.text._ZNSt9exceptionD2Ev) for std::exception::~exception__sub_object()
    stdlib_stdexcept.cpp.o(.ARM.exidx.text._ZNSt13runtime_errorD2Ev) refers to Unwind-EHABI.cpp.o(.text.__aeabi_unwind_cpp_pr0) for __aeabi_unwind_cpp_pr0
    stdlib_stdexcept.cpp.o(.ARM.exidx.text._ZNSt13runtime_errorD2Ev) refers to stdlib_stdexcept.cpp.o(.text._ZNSt13runtime_errorD2Ev) for [Anonymous Symbol]
    stdlib_stdexcept.cpp.o(.text._ZNSt13runtime_errorD0Ev) refers to stdlib_stdexcept.cpp.o(.text._ZNSt13runtime_errorD2Ev) for std::runtime_error::~runtime_error__sub_object()
    stdlib_stdexcept.cpp.o(.text._ZNSt13runtime_errorD0Ev) refers to new.cpp.o(.text._ZdlPv) for operator delete (void*)
    stdlib_stdexcept.cpp.o(.ARM.exidx.text._ZNSt13runtime_errorD0Ev) refers to Unwind-EHABI.cpp.o(.text.__aeabi_unwind_cpp_pr0) for __aeabi_unwind_cpp_pr0
    stdlib_stdexcept.cpp.o(.ARM.exidx.text._ZNSt13runtime_errorD0Ev) refers to stdlib_stdexcept.cpp.o(.text._ZNSt13runtime_errorD0Ev) for [Anonymous Symbol]
    stdlib_stdexcept.cpp.o(.ARM.exidx.text._ZNKSt13runtime_error4whatEv) refers to Unwind-EHABI.cpp.o(.text.__aeabi_unwind_cpp_pr0) for __aeabi_unwind_cpp_pr0
    stdlib_stdexcept.cpp.o(.ARM.exidx.text._ZNKSt13runtime_error4whatEv) refers to stdlib_stdexcept.cpp.o(.text._ZNKSt13runtime_error4whatEv) for [Anonymous Symbol]
    stdlib_stdexcept.cpp.o(.text._ZNSt12domain_errorD0Ev) refers to stdlib_stdexcept.cpp.o(.text._ZNSt11logic_errorD2Ev) for std::logic_error::~logic_error__sub_object()
    stdlib_stdexcept.cpp.o(.text._ZNSt12domain_errorD0Ev) refers to new.cpp.o(.text._ZdlPv) for operator delete (void*)
    stdlib_stdexcept.cpp.o(.ARM.exidx.text._ZNSt12domain_errorD0Ev) refers to Unwind-EHABI.cpp.o(.text.__aeabi_unwind_cpp_pr0) for __aeabi_unwind_cpp_pr0
    stdlib_stdexcept.cpp.o(.ARM.exidx.text._ZNSt12domain_errorD0Ev) refers to stdlib_stdexcept.cpp.o(.text._ZNSt12domain_errorD0Ev) for [Anonymous Symbol]
    stdlib_stdexcept.cpp.o(.text._ZNSt16invalid_argumentD0Ev) refers to stdlib_stdexcept.cpp.o(.text._ZNSt11logic_errorD2Ev) for std::logic_error::~logic_error__sub_object()
    stdlib_stdexcept.cpp.o(.text._ZNSt16invalid_argumentD0Ev) refers to new.cpp.o(.text._ZdlPv) for operator delete (void*)
    stdlib_stdexcept.cpp.o(.ARM.exidx.text._ZNSt16invalid_argumentD0Ev) refers to Unwind-EHABI.cpp.o(.text.__aeabi_unwind_cpp_pr0) for __aeabi_unwind_cpp_pr0
    stdlib_stdexcept.cpp.o(.ARM.exidx.text._ZNSt16invalid_argumentD0Ev) refers to stdlib_stdexcept.cpp.o(.text._ZNSt16invalid_argumentD0Ev) for [Anonymous Symbol]
    stdlib_stdexcept.cpp.o(.text._ZNSt12length_errorD0Ev) refers to stdlib_stdexcept.cpp.o(.text._ZNSt11logic_errorD2Ev) for std::logic_error::~logic_error__sub_object()
    stdlib_stdexcept.cpp.o(.text._ZNSt12length_errorD0Ev) refers to new.cpp.o(.text._ZdlPv) for operator delete (void*)
    stdlib_stdexcept.cpp.o(.ARM.exidx.text._ZNSt12length_errorD0Ev) refers to Unwind-EHABI.cpp.o(.text.__aeabi_unwind_cpp_pr0) for __aeabi_unwind_cpp_pr0
    stdlib_stdexcept.cpp.o(.ARM.exidx.text._ZNSt12length_errorD0Ev) refers to stdlib_stdexcept.cpp.o(.text._ZNSt12length_errorD0Ev) for [Anonymous Symbol]
    stdlib_stdexcept.cpp.o(.text._ZNSt12out_of_rangeD0Ev) refers to stdlib_stdexcept.cpp.o(.text._ZNSt11logic_errorD2Ev) for std::logic_error::~logic_error__sub_object()
    stdlib_stdexcept.cpp.o(.text._ZNSt12out_of_rangeD0Ev) refers to new.cpp.o(.text._ZdlPv) for operator delete (void*)
    stdlib_stdexcept.cpp.o(.ARM.exidx.text._ZNSt12out_of_rangeD0Ev) refers to Unwind-EHABI.cpp.o(.text.__aeabi_unwind_cpp_pr0) for __aeabi_unwind_cpp_pr0
    stdlib_stdexcept.cpp.o(.ARM.exidx.text._ZNSt12out_of_rangeD0Ev) refers to stdlib_stdexcept.cpp.o(.text._ZNSt12out_of_rangeD0Ev) for [Anonymous Symbol]
    stdlib_stdexcept.cpp.o(.text._ZNSt11range_errorD0Ev) refers to stdlib_stdexcept.cpp.o(.text._ZNSt13runtime_errorD2Ev) for std::runtime_error::~runtime_error__sub_object()
    stdlib_stdexcept.cpp.o(.text._ZNSt11range_errorD0Ev) refers to new.cpp.o(.text._ZdlPv) for operator delete (void*)
    stdlib_stdexcept.cpp.o(.ARM.exidx.text._ZNSt11range_errorD0Ev) refers to Unwind-EHABI.cpp.o(.text.__aeabi_unwind_cpp_pr0) for __aeabi_unwind_cpp_pr0
    stdlib_stdexcept.cpp.o(.ARM.exidx.text._ZNSt11range_errorD0Ev) refers to stdlib_stdexcept.cpp.o(.text._ZNSt11range_errorD0Ev) for [Anonymous Symbol]
    stdlib_stdexcept.cpp.o(.text._ZNSt14overflow_errorD0Ev) refers to stdlib_stdexcept.cpp.o(.text._ZNSt13runtime_errorD2Ev) for std::runtime_error::~runtime_error__sub_object()
    stdlib_stdexcept.cpp.o(.text._ZNSt14overflow_errorD0Ev) refers to new.cpp.o(.text._ZdlPv) for operator delete (void*)
    stdlib_stdexcept.cpp.o(.ARM.exidx.text._ZNSt14overflow_errorD0Ev) refers to Unwind-EHABI.cpp.o(.text.__aeabi_unwind_cpp_pr0) for __aeabi_unwind_cpp_pr0
    stdlib_stdexcept.cpp.o(.ARM.exidx.text._ZNSt14overflow_errorD0Ev) refers to stdlib_stdexcept.cpp.o(.text._ZNSt14overflow_errorD0Ev) for [Anonymous Symbol]
    stdlib_stdexcept.cpp.o(.text._ZNSt15underflow_errorD0Ev) refers to stdlib_stdexcept.cpp.o(.text._ZNSt13runtime_errorD2Ev) for std::runtime_error::~runtime_error__sub_object()
    stdlib_stdexcept.cpp.o(.text._ZNSt15underflow_errorD0Ev) refers to new.cpp.o(.text._ZdlPv) for operator delete (void*)
    stdlib_stdexcept.cpp.o(.ARM.exidx.text._ZNSt15underflow_errorD0Ev) refers to Unwind-EHABI.cpp.o(.text.__aeabi_unwind_cpp_pr0) for __aeabi_unwind_cpp_pr0
    stdlib_stdexcept.cpp.o(.ARM.exidx.text._ZNSt15underflow_errorD0Ev) refers to stdlib_stdexcept.cpp.o(.text._ZNSt15underflow_errorD0Ev) for [Anonymous Symbol]
    stdlib_stdexcept.cpp.o(.rodata._ZTVSt11logic_error) refers to stdlib_stdexcept.cpp.o(.rodata._ZTISt11logic_error) for typeinfo for std::logic_error
    stdlib_stdexcept.cpp.o(.rodata._ZTVSt11logic_error) refers to stdlib_stdexcept.cpp.o(.text._ZNSt11logic_errorD2Ev) for std::logic_error::~logic_error__sub_object()
    stdlib_stdexcept.cpp.o(.rodata._ZTVSt11logic_error) refers to stdlib_stdexcept.cpp.o(.text._ZNSt11logic_errorD0Ev) for std::logic_error::~logic_error__deallocating()
    stdlib_stdexcept.cpp.o(.rodata._ZTVSt11logic_error) refers to stdlib_stdexcept.cpp.o(.text._ZNKSt11logic_error4whatEv) for std::logic_error::what() const
    stdlib_stdexcept.cpp.o(.rodata._ZTVSt13runtime_error) refers to stdlib_stdexcept.cpp.o(.rodata._ZTISt13runtime_error) for typeinfo for std::runtime_error
    stdlib_stdexcept.cpp.o(.rodata._ZTVSt13runtime_error) refers to stdlib_stdexcept.cpp.o(.text._ZNSt13runtime_errorD2Ev) for std::runtime_error::~runtime_error__sub_object()
    stdlib_stdexcept.cpp.o(.rodata._ZTVSt13runtime_error) refers to stdlib_stdexcept.cpp.o(.text._ZNSt13runtime_errorD0Ev) for std::runtime_error::~runtime_error__deallocating()
    stdlib_stdexcept.cpp.o(.rodata._ZTVSt13runtime_error) refers to stdlib_stdexcept.cpp.o(.text._ZNKSt13runtime_error4whatEv) for std::runtime_error::what() const
    stdlib_stdexcept.cpp.o(.rodata._ZTVSt12domain_error) refers to stdlib_stdexcept.cpp.o(.rodata._ZTISt12domain_error) for typeinfo for std::domain_error
    stdlib_stdexcept.cpp.o(.rodata._ZTVSt12domain_error) refers to stdlib_stdexcept.cpp.o(.text._ZNSt11logic_errorD2Ev) for std::logic_error::~logic_error__sub_object()
    stdlib_stdexcept.cpp.o(.rodata._ZTVSt12domain_error) refers to stdlib_stdexcept.cpp.o(.text._ZNSt12domain_errorD0Ev) for std::domain_error::~domain_error__deallocating()
    stdlib_stdexcept.cpp.o(.rodata._ZTVSt12domain_error) refers to stdlib_stdexcept.cpp.o(.text._ZNKSt11logic_error4whatEv) for std::logic_error::what() const
    stdlib_stdexcept.cpp.o(.rodata._ZTISt11logic_error) refers to private_typeinfo.cpp.o(.rodata._ZTVN10__cxxabiv120__si_class_type_infoE) for vtable for __cxxabiv1::__si_class_type_info
    stdlib_stdexcept.cpp.o(.rodata._ZTISt11logic_error) refers to stdlib_stdexcept.cpp.o(.rodata._ZTSSt11logic_error) for typeinfo name for std::logic_error
    stdlib_stdexcept.cpp.o(.rodata._ZTISt11logic_error) refers to stdlib_exception.cpp.o(.rodata._ZTISt9exception) for typeinfo for std::exception
    stdlib_stdexcept.cpp.o(.rodata._ZTISt12domain_error) refers to private_typeinfo.cpp.o(.rodata._ZTVN10__cxxabiv120__si_class_type_infoE) for vtable for __cxxabiv1::__si_class_type_info
    stdlib_stdexcept.cpp.o(.rodata._ZTISt12domain_error) refers to stdlib_stdexcept.cpp.o(.rodata._ZTSSt12domain_error) for typeinfo name for std::domain_error
    stdlib_stdexcept.cpp.o(.rodata._ZTISt12domain_error) refers to stdlib_stdexcept.cpp.o(.rodata._ZTISt11logic_error) for typeinfo for std::logic_error
    stdlib_stdexcept.cpp.o(.rodata._ZTVSt16invalid_argument) refers to stdlib_stdexcept.cpp.o(.rodata._ZTISt16invalid_argument) for typeinfo for std::invalid_argument
    stdlib_stdexcept.cpp.o(.rodata._ZTVSt16invalid_argument) refers to stdlib_stdexcept.cpp.o(.text._ZNSt11logic_errorD2Ev) for std::logic_error::~logic_error__sub_object()
    stdlib_stdexcept.cpp.o(.rodata._ZTVSt16invalid_argument) refers to stdlib_stdexcept.cpp.o(.text._ZNSt16invalid_argumentD0Ev) for std::invalid_argument::~invalid_argument__deallocating()
    stdlib_stdexcept.cpp.o(.rodata._ZTVSt16invalid_argument) refers to stdlib_stdexcept.cpp.o(.text._ZNKSt11logic_error4whatEv) for std::logic_error::what() const
    stdlib_stdexcept.cpp.o(.rodata._ZTISt16invalid_argument) refers to private_typeinfo.cpp.o(.rodata._ZTVN10__cxxabiv120__si_class_type_infoE) for vtable for __cxxabiv1::__si_class_type_info
    stdlib_stdexcept.cpp.o(.rodata._ZTISt16invalid_argument) refers to stdlib_stdexcept.cpp.o(.rodata._ZTSSt16invalid_argument) for typeinfo name for std::invalid_argument
    stdlib_stdexcept.cpp.o(.rodata._ZTISt16invalid_argument) refers to stdlib_stdexcept.cpp.o(.rodata._ZTISt11logic_error) for typeinfo for std::logic_error
    stdlib_stdexcept.cpp.o(.rodata._ZTVSt12length_error) refers to stdlib_stdexcept.cpp.o(.rodata._ZTISt12length_error) for typeinfo for std::length_error
    stdlib_stdexcept.cpp.o(.rodata._ZTVSt12length_error) refers to stdlib_stdexcept.cpp.o(.text._ZNSt11logic_errorD2Ev) for std::logic_error::~logic_error__sub_object()
    stdlib_stdexcept.cpp.o(.rodata._ZTVSt12length_error) refers to stdlib_stdexcept.cpp.o(.text._ZNSt12length_errorD0Ev) for std::length_error::~length_error__deallocating()
    stdlib_stdexcept.cpp.o(.rodata._ZTVSt12length_error) refers to stdlib_stdexcept.cpp.o(.text._ZNKSt11logic_error4whatEv) for std::logic_error::what() const
    stdlib_stdexcept.cpp.o(.rodata._ZTISt12length_error) refers to private_typeinfo.cpp.o(.rodata._ZTVN10__cxxabiv120__si_class_type_infoE) for vtable for __cxxabiv1::__si_class_type_info
    stdlib_stdexcept.cpp.o(.rodata._ZTISt12length_error) refers to stdlib_stdexcept.cpp.o(.rodata._ZTSSt12length_error) for typeinfo name for std::length_error
    stdlib_stdexcept.cpp.o(.rodata._ZTISt12length_error) refers to stdlib_stdexcept.cpp.o(.rodata._ZTISt11logic_error) for typeinfo for std::logic_error
    stdlib_stdexcept.cpp.o(.rodata._ZTVSt12out_of_range) refers to stdlib_stdexcept.cpp.o(.rodata._ZTISt12out_of_range) for typeinfo for std::out_of_range
    stdlib_stdexcept.cpp.o(.rodata._ZTVSt12out_of_range) refers to stdlib_stdexcept.cpp.o(.text._ZNSt11logic_errorD2Ev) for std::logic_error::~logic_error__sub_object()
    stdlib_stdexcept.cpp.o(.rodata._ZTVSt12out_of_range) refers to stdlib_stdexcept.cpp.o(.text._ZNSt12out_of_rangeD0Ev) for std::out_of_range::~out_of_range__deallocating()
    stdlib_stdexcept.cpp.o(.rodata._ZTVSt12out_of_range) refers to stdlib_stdexcept.cpp.o(.text._ZNKSt11logic_error4whatEv) for std::logic_error::what() const
    stdlib_stdexcept.cpp.o(.rodata._ZTISt12out_of_range) refers to private_typeinfo.cpp.o(.rodata._ZTVN10__cxxabiv120__si_class_type_infoE) for vtable for __cxxabiv1::__si_class_type_info
    stdlib_stdexcept.cpp.o(.rodata._ZTISt12out_of_range) refers to stdlib_stdexcept.cpp.o(.rodata._ZTSSt12out_of_range) for typeinfo name for std::out_of_range
    stdlib_stdexcept.cpp.o(.rodata._ZTISt12out_of_range) refers to stdlib_stdexcept.cpp.o(.rodata._ZTISt11logic_error) for typeinfo for std::logic_error
    stdlib_stdexcept.cpp.o(.rodata._ZTVSt11range_error) refers to stdlib_stdexcept.cpp.o(.rodata._ZTISt11range_error) for typeinfo for std::range_error
    stdlib_stdexcept.cpp.o(.rodata._ZTVSt11range_error) refers to stdlib_stdexcept.cpp.o(.text._ZNSt13runtime_errorD2Ev) for std::runtime_error::~runtime_error__sub_object()
    stdlib_stdexcept.cpp.o(.rodata._ZTVSt11range_error) refers to stdlib_stdexcept.cpp.o(.text._ZNSt11range_errorD0Ev) for std::range_error::~range_error__deallocating()
    stdlib_stdexcept.cpp.o(.rodata._ZTVSt11range_error) refers to stdlib_stdexcept.cpp.o(.text._ZNKSt13runtime_error4whatEv) for std::runtime_error::what() const
    stdlib_stdexcept.cpp.o(.rodata._ZTISt13runtime_error) refers to private_typeinfo.cpp.o(.rodata._ZTVN10__cxxabiv120__si_class_type_infoE) for vtable for __cxxabiv1::__si_class_type_info
    stdlib_stdexcept.cpp.o(.rodata._ZTISt13runtime_error) refers to stdlib_stdexcept.cpp.o(.rodata._ZTSSt13runtime_error) for typeinfo name for std::runtime_error
    stdlib_stdexcept.cpp.o(.rodata._ZTISt13runtime_error) refers to stdlib_exception.cpp.o(.rodata._ZTISt9exception) for typeinfo for std::exception
    stdlib_stdexcept.cpp.o(.rodata._ZTISt11range_error) refers to private_typeinfo.cpp.o(.rodata._ZTVN10__cxxabiv120__si_class_type_infoE) for vtable for __cxxabiv1::__si_class_type_info
    stdlib_stdexcept.cpp.o(.rodata._ZTISt11range_error) refers to stdlib_stdexcept.cpp.o(.rodata._ZTSSt11range_error) for typeinfo name for std::range_error
    stdlib_stdexcept.cpp.o(.rodata._ZTISt11range_error) refers to stdlib_stdexcept.cpp.o(.rodata._ZTISt13runtime_error) for typeinfo for std::runtime_error
    stdlib_stdexcept.cpp.o(.rodata._ZTVSt14overflow_error) refers to stdlib_stdexcept.cpp.o(.rodata._ZTISt14overflow_error) for typeinfo for std::overflow_error
    stdlib_stdexcept.cpp.o(.rodata._ZTVSt14overflow_error) refers to stdlib_stdexcept.cpp.o(.text._ZNSt13runtime_errorD2Ev) for std::runtime_error::~runtime_error__sub_object()
    stdlib_stdexcept.cpp.o(.rodata._ZTVSt14overflow_error) refers to stdlib_stdexcept.cpp.o(.text._ZNSt14overflow_errorD0Ev) for std::overflow_error::~overflow_error__deallocating()
    stdlib_stdexcept.cpp.o(.rodata._ZTVSt14overflow_error) refers to stdlib_stdexcept.cpp.o(.text._ZNKSt13runtime_error4whatEv) for std::runtime_error::what() const
    stdlib_stdexcept.cpp.o(.rodata._ZTISt14overflow_error) refers to private_typeinfo.cpp.o(.rodata._ZTVN10__cxxabiv120__si_class_type_infoE) for vtable for __cxxabiv1::__si_class_type_info
    stdlib_stdexcept.cpp.o(.rodata._ZTISt14overflow_error) refers to stdlib_stdexcept.cpp.o(.rodata._ZTSSt14overflow_error) for typeinfo name for std::overflow_error
    stdlib_stdexcept.cpp.o(.rodata._ZTISt14overflow_error) refers to stdlib_stdexcept.cpp.o(.rodata._ZTISt13runtime_error) for typeinfo for std::runtime_error
    stdlib_stdexcept.cpp.o(.rodata._ZTVSt15underflow_error) refers to stdlib_stdexcept.cpp.o(.rodata._ZTISt15underflow_error) for typeinfo for std::underflow_error
    stdlib_stdexcept.cpp.o(.rodata._ZTVSt15underflow_error) refers to stdlib_stdexcept.cpp.o(.text._ZNSt13runtime_errorD2Ev) for std::runtime_error::~runtime_error__sub_object()
    stdlib_stdexcept.cpp.o(.rodata._ZTVSt15underflow_error) refers to stdlib_stdexcept.cpp.o(.text._ZNSt15underflow_errorD0Ev) for std::underflow_error::~underflow_error__deallocating()
    stdlib_stdexcept.cpp.o(.rodata._ZTVSt15underflow_error) refers to stdlib_stdexcept.cpp.o(.text._ZNKSt13runtime_error4whatEv) for std::runtime_error::what() const
    stdlib_stdexcept.cpp.o(.rodata._ZTISt15underflow_error) refers to private_typeinfo.cpp.o(.rodata._ZTVN10__cxxabiv120__si_class_type_infoE) for vtable for __cxxabiv1::__si_class_type_info
    stdlib_stdexcept.cpp.o(.rodata._ZTISt15underflow_error) refers to stdlib_stdexcept.cpp.o(.rodata._ZTSSt15underflow_error) for typeinfo name for std::underflow_error
    stdlib_stdexcept.cpp.o(.rodata._ZTISt15underflow_error) refers to stdlib_stdexcept.cpp.o(.rodata._ZTISt13runtime_error) for typeinfo for std::runtime_error
    cxa_exception.cpp.o(.text.__cxa_end_cleanup) refers to cxa_exception.cpp.o(.text.__cxa_end_cleanup_impl) for __cxa_end_cleanup_impl
    cxa_exception.cpp.o(.text.__cxa_end_cleanup) refers to Unwind-EHABI.cpp.o(.text._Unwind_Resume) for _Unwind_Resume
    cxa_exception.cpp.o(.text.__cxa_end_cleanup) refers to abort.o(.text) for abort
    cxa_exception.cpp.o(.text.__cxa_allocate_exception) refers to fallback_malloc.cpp.o(.text._ZN10__cxxabiv130__aligned_malloc_with_fallbackEj) for __cxxabiv1::__aligned_malloc_with_fallback(unsigned)
    cxa_exception.cpp.o(.text.__cxa_allocate_exception) refers to rt_memclr_w.o(.text) for __aeabi_memclr8
    cxa_exception.cpp.o(.text.__cxa_allocate_exception) refers to cxa_handlers.cpp.o(.text._ZSt9terminatev) for std::terminate()
    cxa_exception.cpp.o(.text.__cxa_allocate_exception) refers to cxa_personality.cpp.o(.text.__cxa_call_unexpected) for __cxa_call_unexpected
    cxa_exception.cpp.o(.ARM.extab.text.__cxa_allocate_exception) refers to cxa_personality.cpp.o(.text.__gxx_personality_v0) for __gxx_personality_v0
    cxa_exception.cpp.o(.ARM.exidx.text.__cxa_allocate_exception) refers to cxa_exception.cpp.o(.text.__cxa_allocate_exception) for [Anonymous Symbol]
    cxa_exception.cpp.o(.ARM.exidx.text.__cxa_allocate_exception) refers to cxa_exception.cpp.o(.ARM.extab.text.__cxa_allocate_exception) for [Anonymous Symbol]
    cxa_exception.cpp.o(.text.__cxa_free_exception) refers to fallback_malloc.cpp.o(.text._ZN10__cxxabiv128__aligned_free_with_fallbackEPv) for __cxxabiv1::__aligned_free_with_fallback(void*)
    cxa_exception.cpp.o(.text.__cxa_free_exception) refers to cxa_personality.cpp.o(.text.__cxa_call_unexpected) for __cxa_call_unexpected
    cxa_exception.cpp.o(.ARM.extab.text.__cxa_free_exception) refers to cxa_personality.cpp.o(.text.__gxx_personality_v0) for __gxx_personality_v0
    cxa_exception.cpp.o(.ARM.exidx.text.__cxa_free_exception) refers to cxa_exception.cpp.o(.text.__cxa_free_exception) for [Anonymous Symbol]
    cxa_exception.cpp.o(.ARM.exidx.text.__cxa_free_exception) refers to cxa_exception.cpp.o(.ARM.extab.text.__cxa_free_exception) for [Anonymous Symbol]
    cxa_exception.cpp.o(.text.__cxa_allocate_dependent_exception) refers to fallback_malloc.cpp.o(.text._ZN10__cxxabiv130__aligned_malloc_with_fallbackEj) for __cxxabiv1::__aligned_malloc_with_fallback(unsigned)
    cxa_exception.cpp.o(.text.__cxa_allocate_dependent_exception) refers to rt_memclr.o(.text) for __aeabi_memclr
    cxa_exception.cpp.o(.text.__cxa_allocate_dependent_exception) refers to cxa_handlers.cpp.o(.text._ZSt9terminatev) for std::terminate()
    cxa_exception.cpp.o(.ARM.exidx.text.__cxa_allocate_dependent_exception) refers to Unwind-EHABI.cpp.o(.text.__aeabi_unwind_cpp_pr0) for __aeabi_unwind_cpp_pr0
    cxa_exception.cpp.o(.ARM.exidx.text.__cxa_allocate_dependent_exception) refers to cxa_exception.cpp.o(.text.__cxa_allocate_dependent_exception) for [Anonymous Symbol]
    cxa_exception.cpp.o(.text.__cxa_free_dependent_exception) refers to fallback_malloc.cpp.o(.text._ZN10__cxxabiv128__aligned_free_with_fallbackEPv) for __cxxabiv1::__aligned_free_with_fallback(void*)
    cxa_exception.cpp.o(.ARM.exidx.text.__cxa_free_dependent_exception) refers to Unwind-EHABI.cpp.o(.text.__aeabi_unwind_cpp_pr0) for __aeabi_unwind_cpp_pr0
    cxa_exception.cpp.o(.ARM.exidx.text.__cxa_free_dependent_exception) refers to cxa_exception.cpp.o(.text.__cxa_free_dependent_exception) for [Anonymous Symbol]
    cxa_exception.cpp.o(.text.__cxa_throw) refers to cxa_exception_storage.cpp.o(.text.__cxa_get_globals) for __cxa_get_globals
    cxa_exception.cpp.o(.text.__cxa_throw) refers to cxa_handlers.cpp.o(.text._ZSt14get_unexpectedv) for std::get_unexpected()
    cxa_exception.cpp.o(.text.__cxa_throw) refers to cxa_handlers.cpp.o(.text._ZSt13get_terminatev) for std::get_terminate()
    cxa_exception.cpp.o(.text.__cxa_throw) refers to cxa_exception.cpp.o(.text._ZN10__cxxabiv1L22exception_cleanup_funcE19_Unwind_Reason_CodeP21_Unwind_Control_Block) for _ZN10__cxxabiv1L22exception_cleanup_funcE19_Unwind_Reason_CodeP21_Unwind_Control_Block
    cxa_exception.cpp.o(.text.__cxa_throw) refers to Unwind-EHABI.cpp.o(.text._Unwind_RaiseException) for _Unwind_RaiseException
    cxa_exception.cpp.o(.text.__cxa_throw) refers to cxa_exception.cpp.o(.text._ZN10__cxxabiv1L12failed_throwEPNS_15__cxa_exceptionE) for _ZN10__cxxabiv1L12failed_throwEPNS_15__cxa_exceptionE
    cxa_exception.cpp.o(.ARM.exidx.text.__cxa_throw) refers to Unwind-EHABI.cpp.o(.text.__aeabi_unwind_cpp_pr0) for __aeabi_unwind_cpp_pr0
    cxa_exception.cpp.o(.ARM.exidx.text.__cxa_throw) refers to cxa_exception.cpp.o(.text.__cxa_throw) for [Anonymous Symbol]
    cxa_exception.cpp.o(.text._ZN10__cxxabiv1L22exception_cleanup_funcE19_Unwind_Reason_CodeP21_Unwind_Control_Block) refers to cxa_exception.cpp.o(.text.__cxa_decrement_exception_refcount) for __cxa_decrement_exception_refcount
    cxa_exception.cpp.o(.text._ZN10__cxxabiv1L22exception_cleanup_funcE19_Unwind_Reason_CodeP21_Unwind_Control_Block) refers to cxa_handlers.cpp.o(.text._ZSt11__terminatePFvvE) for std::__terminate(void(*)())
    cxa_exception.cpp.o(.ARM.exidx.text._ZN10__cxxabiv1L22exception_cleanup_funcE19_Unwind_Reason_CodeP21_Unwind_Control_Block) refers to Unwind-EHABI.cpp.o(.text.__aeabi_unwind_cpp_pr0) for __aeabi_unwind_cpp_pr0
    cxa_exception.cpp.o(.ARM.exidx.text._ZN10__cxxabiv1L22exception_cleanup_funcE19_Unwind_Reason_CodeP21_Unwind_Control_Block) refers to cxa_exception.cpp.o(.text._ZN10__cxxabiv1L22exception_cleanup_funcE19_Unwind_Reason_CodeP21_Unwind_Control_Block) for [Anonymous Symbol]
    cxa_exception.cpp.o(.text._ZN10__cxxabiv1L12failed_throwEPNS_15__cxa_exceptionE) refers to cxa_exception.cpp.o(.text.__cxa_begin_catch) for __cxa_begin_catch
    cxa_exception.cpp.o(.text._ZN10__cxxabiv1L12failed_throwEPNS_15__cxa_exceptionE) refers to cxa_handlers.cpp.o(.text._ZSt11__terminatePFvvE) for std::__terminate(void(*)())
    cxa_exception.cpp.o(.ARM.exidx.text._ZN10__cxxabiv1L12failed_throwEPNS_15__cxa_exceptionE) refers to Unwind-EHABI.cpp.o(.text.__aeabi_unwind_cpp_pr0) for __aeabi_unwind_cpp_pr0
    cxa_exception.cpp.o(.ARM.exidx.text._ZN10__cxxabiv1L12failed_throwEPNS_15__cxa_exceptionE) refers to cxa_exception.cpp.o(.text._ZN10__cxxabiv1L12failed_throwEPNS_15__cxa_exceptionE) for [Anonymous Symbol]
    cxa_exception.cpp.o(.ARM.exidx.text.__cxa_get_exception_ptr) refers to Unwind-EHABI.cpp.o(.text.__aeabi_unwind_cpp_pr0) for __aeabi_unwind_cpp_pr0
    cxa_exception.cpp.o(.ARM.exidx.text.__cxa_get_exception_ptr) refers to cxa_exception.cpp.o(.text.__cxa_get_exception_ptr) for [Anonymous Symbol]
    cxa_exception.cpp.o(.text.__cxa_begin_cleanup) refers to cxa_exception_storage.cpp.o(.text.__cxa_get_globals) for __cxa_get_globals
    cxa_exception.cpp.o(.text.__cxa_begin_cleanup) refers to cxa_handlers.cpp.o(.text._ZSt9terminatev) for std::terminate()
    cxa_exception.cpp.o(.text.__cxa_begin_cleanup) refers to cxa_personality.cpp.o(.text.__cxa_call_unexpected) for __cxa_call_unexpected
    cxa_exception.cpp.o(.ARM.extab.text.__cxa_begin_cleanup) refers to cxa_personality.cpp.o(.text.__gxx_personality_v0) for __gxx_personality_v0
    cxa_exception.cpp.o(.ARM.exidx.text.__cxa_begin_cleanup) refers to cxa_exception.cpp.o(.text.__cxa_begin_cleanup) for [Anonymous Symbol]
    cxa_exception.cpp.o(.ARM.exidx.text.__cxa_begin_cleanup) refers to cxa_exception.cpp.o(.ARM.extab.text.__cxa_begin_cleanup) for [Anonymous Symbol]
    cxa_exception.cpp.o(.text.__cxa_end_cleanup_impl) refers to cxa_exception_storage.cpp.o(.text.__cxa_get_globals) for __cxa_get_globals
    cxa_exception.cpp.o(.text.__cxa_end_cleanup_impl) refers to cxa_handlers.cpp.o(.text._ZSt9terminatev) for std::terminate()
    cxa_exception.cpp.o(.ARM.exidx.text.__cxa_end_cleanup_impl) refers to Unwind-EHABI.cpp.o(.text.__aeabi_unwind_cpp_pr0) for __aeabi_unwind_cpp_pr0
    cxa_exception.cpp.o(.ARM.exidx.text.__cxa_end_cleanup_impl) refers to cxa_exception.cpp.o(.text.__cxa_end_cleanup_impl) for [Anonymous Symbol]
    cxa_exception.cpp.o(.text.__cxa_begin_catch) refers to cxa_exception_storage.cpp.o(.text.__cxa_get_globals) for __cxa_get_globals
    cxa_exception.cpp.o(.text.__cxa_begin_catch) refers to cxa_handlers.cpp.o(.text._ZSt9terminatev) for std::terminate()
    cxa_exception.cpp.o(.text.__cxa_begin_catch) refers to cxa_personality.cpp.o(.text.__cxa_call_unexpected) for __cxa_call_unexpected
    cxa_exception.cpp.o(.ARM.extab.text.__cxa_begin_catch) refers to cxa_personality.cpp.o(.text.__gxx_personality_v0) for __gxx_personality_v0
    cxa_exception.cpp.o(.ARM.exidx.text.__cxa_begin_catch) refers to cxa_exception.cpp.o(.text.__cxa_begin_catch) for [Anonymous Symbol]
    cxa_exception.cpp.o(.ARM.exidx.text.__cxa_begin_catch) refers to cxa_exception.cpp.o(.ARM.extab.text.__cxa_begin_catch) for [Anonymous Symbol]
    cxa_exception.cpp.o(.text.__cxa_end_catch) refers to cxa_exception_storage.cpp.o(.text.__cxa_get_globals_fast) for __cxa_get_globals_fast
    cxa_exception.cpp.o(.text.__cxa_end_catch) refers to fallback_malloc.cpp.o(.text._ZN10__cxxabiv128__aligned_free_with_fallbackEPv) for __cxxabiv1::__aligned_free_with_fallback(void*)
    cxa_exception.cpp.o(.text.__cxa_end_catch) refers to cxa_exception.cpp.o(.text.__cxa_decrement_exception_refcount) for __cxa_decrement_exception_refcount
    cxa_exception.cpp.o(.text.__cxa_end_catch) refers to Unwind-EHABI.cpp.o(.text._Unwind_DeleteException) for _Unwind_DeleteException
    cxa_exception.cpp.o(.ARM.exidx.text.__cxa_end_catch) refers to Unwind-EHABI.cpp.o(.text.__aeabi_unwind_cpp_pr0) for __aeabi_unwind_cpp_pr0
    cxa_exception.cpp.o(.ARM.exidx.text.__cxa_end_catch) refers to cxa_exception.cpp.o(.text.__cxa_end_catch) for [Anonymous Symbol]
    cxa_exception.cpp.o(.text.__cxa_decrement_exception_refcount) refers to fallback_malloc.cpp.o(.text._ZN10__cxxabiv128__aligned_free_with_fallbackEPv) for __cxxabiv1::__aligned_free_with_fallback(void*)
    cxa_exception.cpp.o(.text.__cxa_decrement_exception_refcount) refers to cxa_personality.cpp.o(.text.__cxa_call_unexpected) for __cxa_call_unexpected
    cxa_exception.cpp.o(.ARM.extab.text.__cxa_decrement_exception_refcount) refers to cxa_personality.cpp.o(.text.__gxx_personality_v0) for __gxx_personality_v0
    cxa_exception.cpp.o(.ARM.exidx.text.__cxa_decrement_exception_refcount) refers to cxa_exception.cpp.o(.text.__cxa_decrement_exception_refcount) for [Anonymous Symbol]
    cxa_exception.cpp.o(.ARM.exidx.text.__cxa_decrement_exception_refcount) refers to cxa_exception.cpp.o(.ARM.extab.text.__cxa_decrement_exception_refcount) for [Anonymous Symbol]
    cxa_exception.cpp.o(.text.__cxa_current_exception_type) refers to cxa_exception_storage.cpp.o(.text.__cxa_get_globals_fast) for __cxa_get_globals_fast
    cxa_exception.cpp.o(.ARM.exidx.text.__cxa_current_exception_type) refers to Unwind-EHABI.cpp.o(.text.__aeabi_unwind_cpp_pr0) for __aeabi_unwind_cpp_pr0
    cxa_exception.cpp.o(.ARM.exidx.text.__cxa_current_exception_type) refers to cxa_exception.cpp.o(.text.__cxa_current_exception_type) for [Anonymous Symbol]
    cxa_exception.cpp.o(.text.__cxa_rethrow) refers to cxa_exception_storage.cpp.o(.text.__cxa_get_globals) for __cxa_get_globals
    cxa_exception.cpp.o(.text.__cxa_rethrow) refers to Unwind-EHABI.cpp.o(.text._Unwind_RaiseException) for _Unwind_RaiseException
    cxa_exception.cpp.o(.text.__cxa_rethrow) refers to cxa_exception.cpp.o(.text.__cxa_begin_catch) for __cxa_begin_catch
    cxa_exception.cpp.o(.text.__cxa_rethrow) refers to cxa_handlers.cpp.o(.text._ZSt11__terminatePFvvE) for std::__terminate(void(*)())
    cxa_exception.cpp.o(.text.__cxa_rethrow) refers to cxa_handlers.cpp.o(.text._ZSt9terminatev) for std::terminate()
    cxa_exception.cpp.o(.ARM.exidx.text.__cxa_rethrow) refers to Unwind-EHABI.cpp.o(.text.__aeabi_unwind_cpp_pr0) for __aeabi_unwind_cpp_pr0
    cxa_exception.cpp.o(.ARM.exidx.text.__cxa_rethrow) refers to cxa_exception.cpp.o(.text.__cxa_rethrow) for [Anonymous Symbol]
    cxa_exception.cpp.o(.ARM.exidx.text.__cxa_increment_exception_refcount) refers to Unwind-EHABI.cpp.o(.text.__aeabi_unwind_cpp_pr0) for __aeabi_unwind_cpp_pr0
    cxa_exception.cpp.o(.ARM.exidx.text.__cxa_increment_exception_refcount) refers to cxa_exception.cpp.o(.text.__cxa_increment_exception_refcount) for [Anonymous Symbol]
    cxa_exception.cpp.o(.text.__cxa_current_primary_exception) refers to cxa_exception_storage.cpp.o(.text.__cxa_get_globals_fast) for __cxa_get_globals_fast
    cxa_exception.cpp.o(.text.__cxa_current_primary_exception) refers to cxa_personality.cpp.o(.text.__cxa_call_unexpected) for __cxa_call_unexpected
    cxa_exception.cpp.o(.ARM.extab.text.__cxa_current_primary_exception) refers to cxa_personality.cpp.o(.text.__gxx_personality_v0) for __gxx_personality_v0
    cxa_exception.cpp.o(.ARM.exidx.text.__cxa_current_primary_exception) refers to cxa_exception.cpp.o(.text.__cxa_current_primary_exception) for [Anonymous Symbol]
    cxa_exception.cpp.o(.ARM.exidx.text.__cxa_current_primary_exception) refers to cxa_exception.cpp.o(.ARM.extab.text.__cxa_current_primary_exception) for [Anonymous Symbol]
    cxa_exception.cpp.o(.text.__cxa_rethrow_primary_exception) refers to cxa_exception.cpp.o(.text.__cxa_allocate_dependent_exception) for __cxa_allocate_dependent_exception
    cxa_exception.cpp.o(.text.__cxa_rethrow_primary_exception) refers to cxa_handlers.cpp.o(.text._ZSt14get_unexpectedv) for std::get_unexpected()
    cxa_exception.cpp.o(.text.__cxa_rethrow_primary_exception) refers to cxa_handlers.cpp.o(.text._ZSt13get_terminatev) for std::get_terminate()
    cxa_exception.cpp.o(.text.__cxa_rethrow_primary_exception) refers to cxa_exception_storage.cpp.o(.text.__cxa_get_globals) for __cxa_get_globals
    cxa_exception.cpp.o(.text.__cxa_rethrow_primary_exception) refers to cxa_exception.cpp.o(.text._ZN10__cxxabiv1L27dependent_exception_cleanupE19_Unwind_Reason_CodeP21_Unwind_Control_Block) for _ZN10__cxxabiv1L27dependent_exception_cleanupE19_Unwind_Reason_CodeP21_Unwind_Control_Block
    cxa_exception.cpp.o(.text.__cxa_rethrow_primary_exception) refers to Unwind-EHABI.cpp.o(.text._Unwind_RaiseException) for _Unwind_RaiseException
    cxa_exception.cpp.o(.text.__cxa_rethrow_primary_exception) refers to cxa_exception.cpp.o(.text.__cxa_begin_catch) for __cxa_begin_catch
    cxa_exception.cpp.o(.ARM.exidx.text.__cxa_rethrow_primary_exception) refers to Unwind-EHABI.cpp.o(.text.__aeabi_unwind_cpp_pr0) for __aeabi_unwind_cpp_pr0
    cxa_exception.cpp.o(.ARM.exidx.text.__cxa_rethrow_primary_exception) refers to cxa_exception.cpp.o(.text.__cxa_rethrow_primary_exception) for [Anonymous Symbol]
    cxa_exception.cpp.o(.text._ZN10__cxxabiv1L27dependent_exception_cleanupE19_Unwind_Reason_CodeP21_Unwind_Control_Block) refers to cxa_exception.cpp.o(.text.__cxa_decrement_exception_refcount) for __cxa_decrement_exception_refcount
    cxa_exception.cpp.o(.text._ZN10__cxxabiv1L27dependent_exception_cleanupE19_Unwind_Reason_CodeP21_Unwind_Control_Block) refers to fallback_malloc.cpp.o(.text._ZN10__cxxabiv128__aligned_free_with_fallbackEPv) for __cxxabiv1::__aligned_free_with_fallback(void*)
    cxa_exception.cpp.o(.text._ZN10__cxxabiv1L27dependent_exception_cleanupE19_Unwind_Reason_CodeP21_Unwind_Control_Block) refers to cxa_handlers.cpp.o(.text._ZSt11__terminatePFvvE) for std::__terminate(void(*)())
    cxa_exception.cpp.o(.ARM.exidx.text._ZN10__cxxabiv1L27dependent_exception_cleanupE19_Unwind_Reason_CodeP21_Unwind_Control_Block) refers to Unwind-EHABI.cpp.o(.text.__aeabi_unwind_cpp_pr0) for __aeabi_unwind_cpp_pr0
    cxa_exception.cpp.o(.ARM.exidx.text._ZN10__cxxabiv1L27dependent_exception_cleanupE19_Unwind_Reason_CodeP21_Unwind_Control_Block) refers to cxa_exception.cpp.o(.text._ZN10__cxxabiv1L27dependent_exception_cleanupE19_Unwind_Reason_CodeP21_Unwind_Control_Block) for [Anonymous Symbol]
    cxa_exception.cpp.o(.text.__cxa_uncaught_exception) refers to cxa_exception.cpp.o(.text.__cxa_uncaught_exceptions) for __cxa_uncaught_exceptions
    cxa_exception.cpp.o(.ARM.exidx.text.__cxa_uncaught_exception) refers to Unwind-EHABI.cpp.o(.text.__aeabi_unwind_cpp_pr0) for __aeabi_unwind_cpp_pr0
    cxa_exception.cpp.o(.ARM.exidx.text.__cxa_uncaught_exception) refers to cxa_exception.cpp.o(.text.__cxa_uncaught_exception) for [Anonymous Symbol]
    cxa_exception.cpp.o(.text.__cxa_uncaught_exceptions) refers to cxa_exception_storage.cpp.o(.text.__cxa_get_globals_fast) for __cxa_get_globals_fast
    cxa_exception.cpp.o(.text.__cxa_uncaught_exceptions) refers to cxa_personality.cpp.o(.text.__cxa_call_unexpected) for __cxa_call_unexpected
    cxa_exception.cpp.o(.ARM.extab.text.__cxa_uncaught_exceptions) refers to cxa_personality.cpp.o(.text.__gxx_personality_v0) for __gxx_personality_v0
    cxa_exception.cpp.o(.ARM.exidx.text.__cxa_uncaught_exceptions) refers to cxa_exception.cpp.o(.text.__cxa_uncaught_exceptions) for [Anonymous Symbol]
    cxa_exception.cpp.o(.ARM.exidx.text.__cxa_uncaught_exceptions) refers to cxa_exception.cpp.o(.ARM.extab.text.__cxa_uncaught_exceptions) for [Anonymous Symbol]
    libunwind.cpp.o(.text.unw_init_local) refers to libunwind.cpp.o(.bss._ZN9libunwind17LocalAddressSpace17sThisAddressSpaceE) for libunwind::LocalAddressSpace::sThisAddressSpace
    libunwind.cpp.o(.text.unw_init_local) refers to libunwind.cpp.o(.rodata._ZTVN9libunwind12UnwindCursorINS_17LocalAddressSpaceENS_13Registers_armEEE) for vtable for libunwind::UnwindCursor<libunwind::LocalAddressSpace, libunwind::Registers_arm>
    libunwind.cpp.o(.text.unw_init_local) refers to rt_memcpy_v6.o(.text) for __aeabi_memcpy
    libunwind.cpp.o(.text.unw_init_local) refers to rt_memclr_w.o(.text) for __aeabi_memclr8
    libunwind.cpp.o(.text.unw_init_local) refers to libunwind.cpp.o(.text._ZN9libunwind12UnwindCursorINS_17LocalAddressSpaceENS_13Registers_armEE24setInfoBasedOnIPRegisterEb) for libunwind::UnwindCursor<libunwind::LocalAddressSpace, libunwind::Registers_arm>::setInfoBasedOnIPRegister(bool)
    libunwind.cpp.o(.ARM.exidx.text.unw_init_local) refers to Unwind-EHABI.cpp.o(.text.__aeabi_unwind_cpp_pr0) for __aeabi_unwind_cpp_pr0
    libunwind.cpp.o(.ARM.exidx.text.unw_init_local) refers to libunwind.cpp.o(.text.unw_init_local) for [Anonymous Symbol]
    libunwind.cpp.o(.ARM.exidx.text.unw_get_reg) refers to Unwind-EHABI.cpp.o(.text.__aeabi_unwind_cpp_pr0) for __aeabi_unwind_cpp_pr0
    libunwind.cpp.o(.ARM.exidx.text.unw_get_reg) refers to libunwind.cpp.o(.text.unw_get_reg) for [Anonymous Symbol]
    libunwind.cpp.o(.ARM.exidx.text.unw_set_reg) refers to Unwind-EHABI.cpp.o(.text.__aeabi_unwind_cpp_pr0) for __aeabi_unwind_cpp_pr0
    libunwind.cpp.o(.ARM.exidx.text.unw_set_reg) refers to libunwind.cpp.o(.text.unw_set_reg) for [Anonymous Symbol]
    libunwind.cpp.o(.ARM.exidx.text.unw_get_fpreg) refers to Unwind-EHABI.cpp.o(.text.__aeabi_unwind_cpp_pr0) for __aeabi_unwind_cpp_pr0
    libunwind.cpp.o(.ARM.exidx.text.unw_get_fpreg) refers to libunwind.cpp.o(.text.unw_get_fpreg) for [Anonymous Symbol]
    libunwind.cpp.o(.ARM.exidx.text.unw_set_fpreg) refers to Unwind-EHABI.cpp.o(.text.__aeabi_unwind_cpp_pr0) for __aeabi_unwind_cpp_pr0
    libunwind.cpp.o(.ARM.exidx.text.unw_set_fpreg) refers to libunwind.cpp.o(.text.unw_set_fpreg) for [Anonymous Symbol]
    libunwind.cpp.o(.ARM.exidx.text.unw_step) refers to Unwind-EHABI.cpp.o(.text.__aeabi_unwind_cpp_pr0) for __aeabi_unwind_cpp_pr0
    libunwind.cpp.o(.ARM.exidx.text.unw_step) refers to libunwind.cpp.o(.text.unw_step) for [Anonymous Symbol]
    libunwind.cpp.o(.ARM.exidx.text.unw_get_proc_info) refers to Unwind-EHABI.cpp.o(.text.__aeabi_unwind_cpp_pr0) for __aeabi_unwind_cpp_pr0
    libunwind.cpp.o(.ARM.exidx.text.unw_get_proc_info) refers to libunwind.cpp.o(.text.unw_get_proc_info) for [Anonymous Symbol]
    libunwind.cpp.o(.ARM.exidx.text.unw_resume) refers to Unwind-EHABI.cpp.o(.text.__aeabi_unwind_cpp_pr0) for __aeabi_unwind_cpp_pr0
    libunwind.cpp.o(.ARM.exidx.text.unw_resume) refers to libunwind.cpp.o(.text.unw_resume) for [Anonymous Symbol]
    libunwind.cpp.o(.ARM.exidx.text.unw_get_proc_name) refers to Unwind-EHABI.cpp.o(.text.__aeabi_unwind_cpp_pr0) for __aeabi_unwind_cpp_pr0
    libunwind.cpp.o(.ARM.exidx.text.unw_get_proc_name) refers to libunwind.cpp.o(.text.unw_get_proc_name) for [Anonymous Symbol]
    libunwind.cpp.o(.ARM.exidx.text.unw_is_fpreg) refers to Unwind-EHABI.cpp.o(.text.__aeabi_unwind_cpp_pr0) for __aeabi_unwind_cpp_pr0
    libunwind.cpp.o(.ARM.exidx.text.unw_is_fpreg) refers to libunwind.cpp.o(.text.unw_is_fpreg) for [Anonymous Symbol]
    libunwind.cpp.o(.ARM.exidx.text.unw_regname) refers to Unwind-EHABI.cpp.o(.text.__aeabi_unwind_cpp_pr0) for __aeabi_unwind_cpp_pr0
    libunwind.cpp.o(.ARM.exidx.text.unw_regname) refers to libunwind.cpp.o(.text.unw_regname) for [Anonymous Symbol]
    libunwind.cpp.o(.ARM.exidx.text.unw_is_signal_frame) refers to Unwind-EHABI.cpp.o(.text.__aeabi_unwind_cpp_pr0) for __aeabi_unwind_cpp_pr0
    libunwind.cpp.o(.ARM.exidx.text.unw_is_signal_frame) refers to libunwind.cpp.o(.text.unw_is_signal_frame) for [Anonymous Symbol]
    libunwind.cpp.o(.ARM.exidx.text.unw_save_vfp_as_X) refers to Unwind-EHABI.cpp.o(.text.__aeabi_unwind_cpp_pr0) for __aeabi_unwind_cpp_pr0
    libunwind.cpp.o(.ARM.exidx.text.unw_save_vfp_as_X) refers to libunwind.cpp.o(.text.unw_save_vfp_as_X) for [Anonymous Symbol]
    libunwind.cpp.o(.data.unw_local_addr_space) refers to libunwind.cpp.o(.bss._ZN9libunwind17LocalAddressSpace17sThisAddressSpaceE) for libunwind::LocalAddressSpace::sThisAddressSpace
    dunder.o(i.__mathlib_dbl_divzero) refers to ddiv.o(x$fpl$ddiv) for __aeabi_ddiv
    dunder.o(i.__mathlib_dbl_infnan) refers to scalbn.o(x$fpl$scalbn) for __ARM_scalbn
    dunder.o(i.__mathlib_dbl_infnan2) refers to daddsub_clz.o(x$fpl$dadd) for __aeabi_dadd
    dunder.o(i.__mathlib_dbl_invalid) refers to ddiv.o(x$fpl$ddiv) for __aeabi_ddiv
    dunder.o(i.__mathlib_dbl_overflow) refers to scalbn.o(x$fpl$scalbn) for __ARM_scalbn
    dunder.o(i.__mathlib_dbl_posinfnan) refers to dmul.o(x$fpl$dmul) for __aeabi_dmul
    dunder.o(i.__mathlib_dbl_underflow) refers to scalbn.o(x$fpl$scalbn) for __ARM_scalbn
    fpclassify.o(i.__ARM_fpclassify) refers (Special) to usenofp.o(x$fpl$usenofp) for __I$use$fp
    poly.o(i.__kernel_poly) refers (Special) to usenofp.o(x$fpl$usenofp) for __I$use$fp
    poly.o(i.__kernel_poly) refers to dmul.o(x$fpl$dmul) for __aeabi_dmul
    poly.o(i.__kernel_poly) refers to daddsub_clz.o(x$fpl$dadd) for __aeabi_dadd
    qnan.o(.constdata) refers (Special) to usenofp.o(x$fpl$usenofp) for __I$use$fp
    sqrt.o(i.__softfp_sqrt) refers (Special) to usenofp.o(x$fpl$usenofp) for __I$use$fp
    sqrt.o(i.__softfp_sqrt) refers to dsqrt_noumaal.o(x$fpl$dsqrt) for _dsqrt
    sqrt.o(i.__softfp_sqrt) refers to _rserrno.o(.text) for __set_errno
    sqrt.o(i.sqrt) refers (Special) to usenofp.o(x$fpl$usenofp) for __I$use$fp
    sqrt.o(i.sqrt) refers to dsqrt_noumaal.o(x$fpl$dsqrt) for _dsqrt
    sqrt.o(i.sqrt) refers to _rserrno.o(.text) for __set_errno
    sqrt_x.o(i.____softfp_sqrt$lsc) refers (Special) to usenofp.o(x$fpl$usenofp) for __I$use$fp
    sqrt_x.o(i.____softfp_sqrt$lsc) refers to dleqf.o(x$fpl$dleqf) for __aeabi_cdcmple
    sqrt_x.o(i.____softfp_sqrt$lsc) refers to _rserrno.o(.text) for __set_errno
    sqrt_x.o(i.____softfp_sqrt$lsc) refers to dsqrt_noumaal.o(x$fpl$dsqrt) for _dsqrt
    sqrt_x.o(i.__sqrt$lsc) refers (Special) to usenofp.o(x$fpl$usenofp) for __I$use$fp
    sqrt_x.o(i.__sqrt$lsc) refers to dleqf.o(x$fpl$dleqf) for __aeabi_cdcmple
    sqrt_x.o(i.__sqrt$lsc) refers to _rserrno.o(.text) for __set_errno
    sqrt_x.o(i.__sqrt$lsc) refers to dsqrt_noumaal.o(x$fpl$dsqrt) for _dsqrt
    strtod.o(i.__softfp_strtod) refers (Special) to usenofp.o(x$fpl$usenofp) for __I$use$fp
    strtod.o(i.__softfp_strtod) refers to strtod.o(.text) for __strtod_int
    strtod.o(i.strtod) refers (Special) to usenofp.o(x$fpl$usenofp) for __I$use$fp
    strtod.o(i.strtod) refers to strtod.o(.text) for __strtod_int
    strtof.o(i.__softfp_strtof) refers (Special) to usenofp.o(x$fpl$usenofp) for __I$use$fp
    strtof.o(i.__softfp_strtof) refers to strtof.o(.text) for __strtof_int
    strtof.o(i.strtof) refers (Special) to usenofp.o(x$fpl$usenofp) for __I$use$fp
    strtof.o(i.strtof) refers to strtof.o(.text) for __strtof_int
    wcstod.o(i.__softfp_wcstod) refers (Special) to usenofp.o(x$fpl$usenofp) for __I$use$fp
    wcstod.o(i.__softfp_wcstod) refers to wcstod.o(.text) for __wcstod_int
    wcstod.o(i.wcstod) refers (Special) to usenofp.o(x$fpl$usenofp) for __I$use$fp
    wcstod.o(i.wcstod) refers to wcstod.o(.text) for __wcstod_int
    wcstof.o(i.__softfp_wcstof) refers (Special) to usenofp.o(x$fpl$usenofp) for __I$use$fp
    wcstof.o(i.__softfp_wcstof) refers to wcstof.o(.text) for __wcstof_int
    wcstof.o(i.wcstof) refers (Special) to usenofp.o(x$fpl$usenofp) for __I$use$fp
    wcstof.o(i.wcstof) refers to wcstof.o(.text) for __wcstof_int
    strtold.o(i.__softfp_strtold) refers (Special) to usenofp.o(x$fpl$usenofp) for __I$use$fp
    strtold.o(i.__softfp_strtold) refers to strtod.o(.text) for __strtod_int
    strtold.o(i.strtold) refers (Special) to usenofp.o(x$fpl$usenofp) for __I$use$fp
    strtold.o(i.strtold) refers to strtod.o(.text) for __strtod_int
    wcstold.o(i.__softfp_wcstold) refers (Special) to usenofp.o(x$fpl$usenofp) for __I$use$fp
    wcstold.o(i.__softfp_wcstold) refers to wcstod.o(.text) for __wcstod_int
    wcstold.o(i.wcstold) refers (Special) to usenofp.o(x$fpl$usenofp) for __I$use$fp
    wcstold.o(i.wcstold) refers to wcstod.o(.text) for __wcstod_int
    sys_exit.o(.text) refers (Special) to use_no_semi.o(.text) for __I$use$semihosting
    sys_exit.o(.text) refers (Special) to indicate_semi.o(.text) for __semihosting_library_function
    sys_exit_hlt.o(.text) refers (Special) to use_no_semi.o(.text) for __I$use$semihosting
    sys_exit_hlt.o(.text) refers (Special) to indicate_semi.o(.text) for __semihosting_library_function
    libspace.o(.text) refers to libspace.o(.bss) for __libspace_start
    __rtentry2.o(.ARM.Collect$$rtentry$$00000008) refers to boardinit2.o(.text) for _platform_post_stackheap_init
    __rtentry2.o(.ARM.Collect$$rtentry$$0000000A) refers to libinit.o(.ARM.Collect$$libinit$$00000000) for __rt_lib_init
    __rtentry2.o(.ARM.Collect$$rtentry$$0000000B) refers to boardinit3.o(.text) for _platform_post_lib_init
    __rtentry2.o(.ARM.Collect$$rtentry$$0000000D) refers to main.o(.text) for main
    __rtentry2.o(.ARM.Collect$$rtentry$$0000000D) refers to exit.o(.text) for exit
    __rtentry2.o(.ARM.exidx) refers to __rtentry2.o(.ARM.Collect$$rtentry$$00000001) for .ARM.Collect$$rtentry$$00000001
    __rtentry2.o(.ARM.exidx) refers to __rtentry2.o(.ARM.Collect$$rtentry$$00000008) for .ARM.Collect$$rtentry$$00000008
    __rtentry2.o(.ARM.exidx) refers to __rtentry2.o(.ARM.Collect$$rtentry$$0000000A) for .ARM.Collect$$rtentry$$0000000A
    __rtentry2.o(.ARM.exidx) refers to __rtentry2.o(.ARM.Collect$$rtentry$$0000000B) for .ARM.Collect$$rtentry$$0000000B
    __rtentry2.o(.ARM.exidx) refers to __rtentry2.o(.ARM.Collect$$rtentry$$0000000D) for .ARM.Collect$$rtentry$$0000000D
    __rtentry4.o(.ARM.Collect$$rtentry$$00000004) refers to sys_stackheap_outer.o(.text) for __user_setup_stackheap
    __rtentry4.o(.ARM.exidx) refers to __rtentry4.o(.ARM.Collect$$rtentry$$00000004) for .ARM.Collect$$rtentry$$00000004
    rt_ctype_table.o(.text) refers to rt_locale_intlibspace.o(.text) for __rt_locale
    rt_ctype_table.o(.text) refers to lc_ctype_c.o(locale$$code) for _get_lc_ctype
    rt_heap_descriptor.o(.text) refers to rt_heap_descriptor.o(.bss) for __rt_heap_descriptor_data
    rt_heap_descriptor_intlibspace.o(.text) refers to libspace.o(.bss) for __libspace_start
    rt_ddtor_pointer_addr.o(.text) refers to rt_ddtor_pointer_addr.o(.bss) for __rt_ddtor_pointer_addr_data
    rt_ddtor_pointer_addr_intlibspace.o(.text) refers to libspace.o(.bss) for __libspace_start
    init_alloc.o(.text) refers (Special) to hguard.o(.text) for __heap$guard
    init_alloc.o(.text) refers (Special) to libinit2.o(.ARM.Collect$$libinit$$00000005) for __rt_lib_init_heap_2
    init_alloc.o(.text) refers (Special) to maybetermalloc1.o(.text) for _maybe_terminate_alloc
    init_alloc.o(.text) refers to h1_extend.o(.text) for __Heap_ProvideMemory
    init_alloc.o(.text) refers to defsig_rtmem_outer.o(.text) for __rt_SIGRTMEM
    init_alloc.o(.text) refers to rt_heap_descriptor_intlibspace.o(.text) for __rt_heap_descriptor
    init_alloc.o(.text) refers to h1_init.o(.text) for __Heap_Initialize
    h1_init_mt.o(.text) refers to mutex_dummy.o(.text) for _mutex_initialize
    _iswspace.o(.text) refers to wclass_c.o(.text) for _wclass
    _printf_intcommon.o(.text) refers (Weak) to _printf_pad.o(.text) for _printf_pre_padding
    _printf_intcommon.o(.text) refers (Weak) to _printf_pad.o(.text) for _printf_pre_padding
    _printf_intcommon.o(.text) refers (Weak) to _printf_pad.o(.text) for _printf_post_padding
    _printf_fp_dec.o(.text) refers (Special) to usenofp.o(x$fpl$usenofp) for __I$use$fp
    _printf_fp_dec.o(.text) refers (Special) to lc_numeric_c.o(locale$$code) for _get_lc_numeric
    _printf_fp_dec.o(.text) refers to bigflt0.o(.text) for _btod_etento
    _printf_fp_dec.o(.text) refers to btod.o(CL$$btod_d2e) for _btod_d2e
    _printf_fp_dec.o(.text) refers to btod.o(CL$$btod_ediv) for _btod_ediv
    _printf_fp_dec.o(.text) refers to btod.o(CL$$btod_emul) for _btod_emul
    _printf_fp_dec.o(.text) refers to lludiv10.o(.text) for _ll_udiv10
    _printf_fp_dec.o(.text) refers to fpclassify.o(i.__ARM_fpclassify) for __ARM_fpclassify
    _printf_fp_dec.o(.text) refers to _printf_fp_infnan.o(.text) for _printf_fp_infnan
    _printf_fp_dec.o(.text) refers (Weak) to _printf_pad.o(.text) for _printf_pre_padding
    _printf_fp_dec.o(.text) refers (Weak) to _printf_pad.o(.text) for _printf_pre_padding
    _printf_fp_dec.o(.text) refers to rt_locale_intlibspace.o(.text) for __rt_locale
    _printf_fp_dec.o(.text) refers (Weak) to _printf_pad.o(.text) for _printf_post_padding
    _printf_fp_dec_accurate.o(.text) refers (Special) to usenofp.o(x$fpl$usenofp) for __I$use$fp
    _printf_fp_dec_accurate.o(.text) refers (Special) to lc_numeric_c.o(locale$$code) for _get_lc_numeric
    _printf_fp_dec_accurate.o(.text) refers to btod_accurate.o(.text) for _btod_main
    _printf_fp_dec_accurate.o(.text) refers to fpclassify.o(i.__ARM_fpclassify) for __ARM_fpclassify
    _printf_fp_dec_accurate.o(.text) refers to _printf_fp_infnan.o(.text) for _printf_fp_infnan
    _printf_fp_dec_accurate.o(.text) refers (Weak) to _printf_pad.o(.text) for _printf_pre_padding
    _printf_fp_dec_accurate.o(.text) refers (Weak) to _printf_pad.o(.text) for _printf_pre_padding
    _printf_fp_dec_accurate.o(.text) refers to rt_locale_intlibspace.o(.text) for __rt_locale
    _printf_fp_dec_accurate.o(.text) refers (Weak) to _printf_pad.o(.text) for _printf_post_padding
    _printf_char_common.o(.text) refers to __printf_flags_ss_wp.o(.text) for __printf
    _printf_mbtowc.o(.text) refers (Special) to _printf_char.o(.text) for _printf_cs_common
    _printf_mbtowc.o(.text) refers to _mbrtoc16.o(.text) for _mbrtowc
    _printf_mbtowc.o(.text) refers (Weak) to _printf_pad.o(.text) for _printf_pre_padding
    _printf_mbtowc.o(.text) refers (Weak) to _printf_pad.o(.text) for _printf_post_padding
    _printf_mbtowc.o(.text) refers to _printf_mbtowc.o(.constdata) for .constdata
    _printf_mbtowc.o(.constdata) refers (Special) to _printf_char.o(.text) for _printf_cs_common
    _printf_wchar_common.o(.text) refers to __printf_flags_ss_wp.o(.text) for __printf
    _printf_wc.o(.text) refers (Special) to _printf_wchar.o(.text) for _printf_lcs_common
    _printf_wc.o(.text) refers (Weak) to _printf_pad.o(.text) for _printf_pre_padding
    _printf_wc.o(.text) refers (Weak) to _printf_pad.o(.text) for _printf_post_padding
    _printf_oct_ll.o(.text) refers to _printf_intcommon.o(.text) for _printf_int_common
    _printf_oct_int.o(.text) refers (Weak) to _printf_truncate.o(.text) for _printf_truncate_unsigned
    _printf_oct_int.o(.text) refers to _printf_intcommon.o(.text) for _printf_int_common
    _printf_oct_int_ll.o(.text) refers to _printf_intcommon.o(.text) for _printf_int_common
    _printf_oct_int_ll.o(.text) refers (Weak) to _printf_truncate.o(.text) for _printf_truncate_unsigned
    _printf_hex_ll.o(.text) refers to _printf_intcommon.o(.text) for _printf_int_common
    _printf_hex_ll.o(.text) refers to _printf_hex_ll.o(.constdata) for .constdata
    _printf_hex_int.o(.text) refers (Weak) to _printf_truncate.o(.text) for _printf_truncate_unsigned
    _printf_hex_int.o(.text) refers to _printf_intcommon.o(.text) for _printf_int_common
    _printf_hex_int.o(.text) refers to _printf_hex_int.o(.constdata) for .constdata
    _printf_hex_int_ll.o(.text) refers to _printf_intcommon.o(.text) for _printf_int_common
    _printf_hex_int_ll.o(.text) refers (Weak) to _printf_truncate.o(.text) for _printf_truncate_unsigned
    _printf_hex_int_ll.o(.text) refers to _printf_hex_int_ll.o(.constdata) for .constdata
    _printf_hex_ptr.o(.text) refers to _printf_intcommon.o(.text) for _printf_int_common
    _printf_hex_ptr.o(.text) refers to _printf_hex_ptr.o(.constdata) for .constdata
    _printf_hex_int_ptr.o(.text) refers to _printf_intcommon.o(.text) for _printf_int_common
    _printf_hex_int_ptr.o(.text) refers (Weak) to _printf_truncate.o(.text) for _printf_truncate_unsigned
    _printf_hex_int_ptr.o(.text) refers to _printf_hex_int_ptr.o(.constdata) for .constdata
    _printf_hex_ll_ptr.o(.text) refers to _printf_intcommon.o(.text) for _printf_int_common
    _printf_hex_ll_ptr.o(.text) refers to _printf_hex_ll_ptr.o(.constdata) for .constdata
    _printf_hex_int_ll_ptr.o(.text) refers to _printf_intcommon.o(.text) for _printf_int_common
    _printf_hex_int_ll_ptr.o(.text) refers (Weak) to _printf_truncate.o(.text) for _printf_truncate_unsigned
    _printf_hex_int_ll_ptr.o(.text) refers to _printf_hex_int_ll_ptr.o(.constdata) for .constdata
    _printf_c.o(.ARM.Collect$$_printf_percent$$00000013) refers (Weak) to _printf_char.o(.text) for _printf_char
    _printf_s.o(.ARM.Collect$$_printf_percent$$00000014) refers (Weak) to _printf_char.o(.text) for _printf_string
    _printf_n.o(.ARM.Collect$$_printf_percent$$00000001) refers (Weak) to _printf_charcount.o(.text) for _printf_charcount
    _printf_x.o(.ARM.Collect$$_printf_percent$$0000000C) refers (Weak) to _printf_hex_int_ll_ptr.o(.text) for _printf_int_hex
    _printf_p.o(.ARM.Collect$$_printf_percent$$00000002) refers (Weak) to _printf_hex_int_ll_ptr.o(.text) for _printf_hex_ptr
    _printf_o.o(.ARM.Collect$$_printf_percent$$0000000B) refers (Weak) to _printf_oct_int_ll.o(.text) for _printf_int_oct
    _printf_i.o(.ARM.Collect$$_printf_percent$$00000008) refers (Weak) to _printf_dec.o(.text) for _printf_int_dec
    _printf_e.o(.ARM.Collect$$_printf_percent$$00000004) refers (Weak) to printf1.o(x$fpl$printf1) for _printf_fp_dec
    _printf_g.o(.ARM.Collect$$_printf_percent$$00000005) refers (Weak) to printf1.o(x$fpl$printf1) for _printf_fp_dec
    _printf_a.o(.ARM.Collect$$_printf_percent$$00000006) refers (Weak) to printf2.o(x$fpl$printf2) for _printf_fp_hex
    _printf_lli.o(.ARM.Collect$$_printf_percent$$0000000D) refers (Special) to _printf_ll.o(.ARM.Collect$$_printf_percent$$00000007) for _printf_ll
    _printf_lli.o(.ARM.Collect$$_printf_percent$$0000000D) refers (Weak) to _printf_longlong_dec.o(.text) for _printf_longlong_dec
    _printf_lc.o(.ARM.Collect$$_printf_percent$$00000015) refers (Special) to _printf_l.o(.ARM.Collect$$_printf_percent$$00000012) for _printf_l
    _printf_lc.o(.ARM.Collect$$_printf_percent$$00000015) refers (Weak) to _printf_wchar.o(.text) for _printf_wchar
    _printf_ls.o(.ARM.Collect$$_printf_percent$$00000016) refers (Special) to _printf_l.o(.ARM.Collect$$_printf_percent$$00000012) for _printf_l
    _printf_ls.o(.ARM.Collect$$_printf_percent$$00000016) refers (Weak) to _printf_wchar.o(.text) for _printf_wstring
    _printf_llo.o(.ARM.Collect$$_printf_percent$$00000010) refers (Special) to _printf_ll.o(.ARM.Collect$$_printf_percent$$00000007) for _printf_ll
    _printf_llo.o(.ARM.Collect$$_printf_percent$$00000010) refers (Weak) to _printf_oct_int_ll.o(.text) for _printf_ll_oct
    _printf_llx.o(.ARM.Collect$$_printf_percent$$00000011) refers (Special) to _printf_ll.o(.ARM.Collect$$_printf_percent$$00000007) for _printf_ll
    _printf_llx.o(.ARM.Collect$$_printf_percent$$00000011) refers (Weak) to _printf_hex_int_ll_ptr.o(.text) for _printf_ll_hex
    _strtoul.o(.text) refers to _chval.o(.text) for _chval
    _strtoul.o(.text) refers to rt_errno_addr_intlibspace.o(.text) for __aeabi_errno_addr
    strtod.o(.text) refers (Special) to lc_numeric_c.o(locale$$code) for _get_lc_numeric
    strtod.o(.text) refers to scanf1.o(x$fpl$scanf1) for _scanf_real
    strtod.o(.text) refers to _sgetc.o(.text) for _sgetc
    strtod.o(.text) refers to isspace.o(.text) for isspace
    strtof.o(.text) refers to strtod.o(.text) for __strtod_int
    __strtoll.o(.text) refers to rt_ctype_table.o(.text) for __rt_ctype_table
    __strtoll.o(.text) refers to _strtoull.o(.text) for _strtoull
    __strtoll.o(.text) refers to rt_errno_addr_intlibspace.o(.text) for __aeabi_errno_addr
    __strtoull.o(.text) refers to rt_errno_addr_intlibspace.o(.text) for __aeabi_errno_addr
    __strtoull.o(.text) refers to rt_ctype_table.o(.text) for __rt_ctype_table
    __strtoull.o(.text) refers to _strtoull.o(.text) for _strtoull
    _wcstoul.o(.text) refers to _chval.o(.text) for _chval
    _wcstoul.o(.text) refers to rt_errno_addr_intlibspace.o(.text) for __aeabi_errno_addr
    wcstod.o(.text) refers (Special) to lc_numeric_c.o(locale$$code) for _get_lc_numeric
    wcstod.o(.text) refers to scanf1.o(x$fpl$scanf1) for _scanf_real
    wcstod.o(.text) refers to _wsgetc.o(.text) for _wsgetc
    wcstod.o(.text) refers to _iswspace.o(.text) for _iswspace
    wcstof.o(.text) refers to wcstod.o(.text) for __wcstod_int
    __wcstoll.o(.text) refers to _iswspace.o(.text) for _iswspace
    __wcstoll.o(.text) refers to _wcstoull.o(.text) for _wcstoull
    __wcstoll.o(.text) refers to rt_errno_addr_intlibspace.o(.text) for __aeabi_errno_addr
    __wcstoull.o(.text) refers to rt_errno_addr_intlibspace.o(.text) for __aeabi_errno_addr
    __wcstoull.o(.text) refers to _iswspace.o(.text) for _iswspace
    __wcstoull.o(.text) refers to _wcstoull.o(.text) for _wcstoull
    cxa_finalize.o(.text) refers (Special) to libshutdown2.o(.ARM.Collect$$libshutdown$$00000001) for __rt_lib_shutdown_cpp_2
    cxa_finalize.o(.text) refers to rt_ddtor_pointer_addr_intlibspace.o(.text) for __rt_ddtor_pointer_addr
    cxa_finalize.o(.text) refers to h1_free.o(.text) for free
    cxa_finalize.o(.ARM.exidx) refers (Special) to libshutdown2.o(.ARM.Collect$$libshutdown$$00000001) for __rt_lib_shutdown_cpp_2
    cxa_finalize.o(.ARM.exidx) refers to cxa_finalize.o(.text) for .text
    defsig_abrt_outer.o(.text) refers to defsig_abrt_inner.o(.text) for __rt_SIGABRT_inner
    defsig_abrt_outer.o(.text) refers to defsig_exit.o(.text) for __sig_exit
    defsig_abrt_formal.o(.text) refers to rt_raise.o(.text) for __rt_raise
    memcpy.o(.text) refers to rt_memcpy_v6.o(.text) for __aeabi_memcpy
    memmove.o(.text) refers to rt_memmove_v6.o(.text) for __aeabi_memmove
    rt_memmove_w.o(.text) refers to rt_memcpy_w.o(.text) for __aeabi_memcpy4
    _get_argv.o(.text) refers (Special) to hrguard.o(.text) for __heap_region$guard
    _get_argv.o(.text) refers to h1_alloc.o(.text) for malloc
    _get_argv.o(.text) refers to defsig_rtmem_outer.o(.text) for __rt_SIGRTMEM
    _get_argv.o(.text) refers to sys_command.o(.text) for _sys_command_string
    argv_veneer.o(.emb_text) refers to no_argv.o(.text) for __ARM_get_argv
    dcheck1.o(x$fpl$dcheck1) refers (Special) to usenofp.o(x$fpl$usenofp) for __I$use$fp
    dcheck1.o(x$fpl$dcheck1) refers to retnan.o(x$fpl$retnan) for __fpl_return_NaN
    dleqf.o(x$fpl$dleqf) refers (Special) to usenofp.o(x$fpl$usenofp) for __I$use$fp
    dleqf.o(x$fpl$dleqf) refers to dnaninf.o(x$fpl$dnaninf) for __fpl_dnaninf
    dleqf.o(x$fpl$dleqf) refers to dcmpi.o(x$fpl$dcmpinf) for __fpl_dcmp_Inf
    dsqrt_noumaal.o(x$fpl$dsqrt) refers (Special) to usenofp.o(x$fpl$usenofp) for __I$use$fp
    dsqrt_noumaal.o(x$fpl$dsqrt) refers to dnaninf.o(x$fpl$dnaninf) for __fpl_dnaninf
    fcmpi.o(x$fpl$fcmpinf) refers (Special) to usenofp.o(x$fpl$usenofp) for __I$use$fp
    printf2.o(x$fpl$printf2) refers to _printf_fp_hex.o(.text) for _printf_fp_hex_real
    printf2b.o(x$fpl$printf2) refers to _printf_fp_hex.o(.text) for _printf_fp_hex_real
    cxa_default_handlers.cpp.o(.text._ZSt14set_unexpectedPFvvE) refers to cxa_handlers.cpp.o(.text._ZSt9terminatev) for std::terminate()
    cxa_default_handlers.cpp.o(.text._ZSt14set_unexpectedPFvvE) refers to cxa_default_handlers.cpp.o(.data.__cxa_unexpected_handler) for __cxa_unexpected_handler
    cxa_default_handlers.cpp.o(.ARM.exidx.text._ZSt14set_unexpectedPFvvE) refers to Unwind-EHABI.cpp.o(.text.__aeabi_unwind_cpp_pr0) for __aeabi_unwind_cpp_pr0
    cxa_default_handlers.cpp.o(.ARM.exidx.text._ZSt14set_unexpectedPFvvE) refers to cxa_default_handlers.cpp.o(.text._ZSt14set_unexpectedPFvvE) for [Anonymous Symbol]
    cxa_default_handlers.cpp.o(.text._ZSt13set_terminatePFvvE) refers to abort.o(.text) for abort
    cxa_default_handlers.cpp.o(.text._ZSt13set_terminatePFvvE) refers to cxa_default_handlers.cpp.o(.data.__cxa_terminate_handler) for __cxa_terminate_handler
    cxa_default_handlers.cpp.o(.ARM.exidx.text._ZSt13set_terminatePFvvE) refers to Unwind-EHABI.cpp.o(.text.__aeabi_unwind_cpp_pr0) for __aeabi_unwind_cpp_pr0
    cxa_default_handlers.cpp.o(.ARM.exidx.text._ZSt13set_terminatePFvvE) refers to cxa_default_handlers.cpp.o(.text._ZSt13set_terminatePFvvE) for [Anonymous Symbol]
    cxa_default_handlers.cpp.o(.data.__cxa_terminate_handler) refers to abort.o(.text) for abort
    cxa_default_handlers.cpp.o(.data.__cxa_unexpected_handler) refers to cxa_handlers.cpp.o(.text._ZSt9terminatev) for std::terminate()
    abort_message.cpp.o(.text.abort_message) refers to abort.o(.text) for abort
    abort_message.cpp.o(.ARM.exidx.text.abort_message) refers to Unwind-EHABI.cpp.o(.text.__aeabi_unwind_cpp_pr0) for __aeabi_unwind_cpp_pr0
    abort_message.cpp.o(.ARM.exidx.text.abort_message) refers to abort_message.cpp.o(.text.abort_message) for [Anonymous Symbol]
    fallback_malloc.cpp.o(.text._ZN10__cxxabiv130__aligned_malloc_with_fallbackEj) refers to h1_memalign.o(.text) for posix_memalign
    fallback_malloc.cpp.o(.text._ZN10__cxxabiv130__aligned_malloc_with_fallbackEj) refers to fallback_malloc.cpp.o(.text._ZN12_GLOBAL__N_115fallback_mallocEj) for <unnamed namespace 1>::fallback_malloc(unsigned)
    fallback_malloc.cpp.o(.ARM.exidx.text._ZN10__cxxabiv130__aligned_malloc_with_fallbackEj) refers to Unwind-EHABI.cpp.o(.text.__aeabi_unwind_cpp_pr0) for __aeabi_unwind_cpp_pr0
    fallback_malloc.cpp.o(.ARM.exidx.text._ZN10__cxxabiv130__aligned_malloc_with_fallbackEj) refers to fallback_malloc.cpp.o(.text._ZN10__cxxabiv130__aligned_malloc_with_fallbackEj) for [Anonymous Symbol]
    fallback_malloc.cpp.o(.text._ZN12_GLOBAL__N_115fallback_mallocEj) refers to fallback_malloc.cpp.o(.bss._ZN12_GLOBAL__N_1L8freelistE) for _ZN12_GLOBAL__N_1L8freelistE
    fallback_malloc.cpp.o(.text._ZN12_GLOBAL__N_115fallback_mallocEj) refers to fallback_malloc.cpp.o(.bss._ZN12_GLOBAL__N_14heapE) for <unnamed namespace 1>::heap
    fallback_malloc.cpp.o(.ARM.exidx.text._ZN12_GLOBAL__N_115fallback_mallocEj) refers to Unwind-EHABI.cpp.o(.text.__aeabi_unwind_cpp_pr0) for __aeabi_unwind_cpp_pr0
    fallback_malloc.cpp.o(.ARM.exidx.text._ZN12_GLOBAL__N_115fallback_mallocEj) refers to fallback_malloc.cpp.o(.text._ZN12_GLOBAL__N_115fallback_mallocEj) for [Anonymous Symbol]
    fallback_malloc.cpp.o(.text._ZN10__cxxabiv122__calloc_with_fallbackEjj) refers to calloc.o(.text) for calloc
    fallback_malloc.cpp.o(.text._ZN10__cxxabiv122__calloc_with_fallbackEjj) refers to fallback_malloc.cpp.o(.text._ZN12_GLOBAL__N_115fallback_mallocEj) for <unnamed namespace 1>::fallback_malloc(unsigned)
    fallback_malloc.cpp.o(.text._ZN10__cxxabiv122__calloc_with_fallbackEjj) refers to rt_memclr.o(.text) for __aeabi_memclr
    fallback_malloc.cpp.o(.ARM.exidx.text._ZN10__cxxabiv122__calloc_with_fallbackEjj) refers to Unwind-EHABI.cpp.o(.text.__aeabi_unwind_cpp_pr0) for __aeabi_unwind_cpp_pr0
    fallback_malloc.cpp.o(.ARM.exidx.text._ZN10__cxxabiv122__calloc_with_fallbackEjj) refers to fallback_malloc.cpp.o(.text._ZN10__cxxabiv122__calloc_with_fallbackEjj) for [Anonymous Symbol]
    fallback_malloc.cpp.o(.text._ZN10__cxxabiv128__aligned_free_with_fallbackEPv) refers to fallback_malloc.cpp.o(.bss._ZN12_GLOBAL__N_14heapE) for <unnamed namespace 1>::heap
    fallback_malloc.cpp.o(.text._ZN10__cxxabiv128__aligned_free_with_fallbackEPv) refers to h1_free.o(.text) for free
    fallback_malloc.cpp.o(.text._ZN10__cxxabiv128__aligned_free_with_fallbackEPv) refers to fallback_malloc.cpp.o(.text._ZN12_GLOBAL__N_113fallback_freeEPv) for <unnamed namespace 1>::fallback_free(void*)
    fallback_malloc.cpp.o(.ARM.exidx.text._ZN10__cxxabiv128__aligned_free_with_fallbackEPv) refers to Unwind-EHABI.cpp.o(.text.__aeabi_unwind_cpp_pr0) for __aeabi_unwind_cpp_pr0
    fallback_malloc.cpp.o(.ARM.exidx.text._ZN10__cxxabiv128__aligned_free_with_fallbackEPv) refers to fallback_malloc.cpp.o(.text._ZN10__cxxabiv128__aligned_free_with_fallbackEPv) for [Anonymous Symbol]
    fallback_malloc.cpp.o(.text._ZN12_GLOBAL__N_113fallback_freeEPv) refers to fallback_malloc.cpp.o(.bss._ZN12_GLOBAL__N_1L8freelistE) for _ZN12_GLOBAL__N_1L8freelistE
    fallback_malloc.cpp.o(.text._ZN12_GLOBAL__N_113fallback_freeEPv) refers to fallback_malloc.cpp.o(.bss._ZN12_GLOBAL__N_14heapE) for <unnamed namespace 1>::heap
    fallback_malloc.cpp.o(.ARM.exidx.text._ZN12_GLOBAL__N_113fallback_freeEPv) refers to Unwind-EHABI.cpp.o(.text.__aeabi_unwind_cpp_pr0) for __aeabi_unwind_cpp_pr0
    fallback_malloc.cpp.o(.ARM.exidx.text._ZN12_GLOBAL__N_113fallback_freeEPv) refers to fallback_malloc.cpp.o(.text._ZN12_GLOBAL__N_113fallback_freeEPv) for [Anonymous Symbol]
    fallback_malloc.cpp.o(.text._ZN10__cxxabiv120__free_with_fallbackEPv) refers to fallback_malloc.cpp.o(.bss._ZN12_GLOBAL__N_14heapE) for <unnamed namespace 1>::heap
    fallback_malloc.cpp.o(.text._ZN10__cxxabiv120__free_with_fallbackEPv) refers to h1_free.o(.text) for free
    fallback_malloc.cpp.o(.text._ZN10__cxxabiv120__free_with_fallbackEPv) refers to fallback_malloc.cpp.o(.text._ZN12_GLOBAL__N_113fallback_freeEPv) for <unnamed namespace 1>::fallback_free(void*)
    fallback_malloc.cpp.o(.ARM.exidx.text._ZN10__cxxabiv120__free_with_fallbackEPv) refers to Unwind-EHABI.cpp.o(.text.__aeabi_unwind_cpp_pr0) for __aeabi_unwind_cpp_pr0
    fallback_malloc.cpp.o(.ARM.exidx.text._ZN10__cxxabiv120__free_with_fallbackEPv) refers to fallback_malloc.cpp.o(.text._ZN10__cxxabiv120__free_with_fallbackEPv) for [Anonymous Symbol]
    private_typeinfo.cpp.o(.text._ZN10__cxxabiv116__shim_type_infoD2Ev) refers to stdlib_typeinfo.cpp.o(.text._ZNSt9type_infoD2Ev) for std::type_info::~type_info__sub_object()
    private_typeinfo.cpp.o(.ARM.exidx.text._ZN10__cxxabiv116__shim_type_infoD2Ev) refers to Unwind-EHABI.cpp.o(.text.__aeabi_unwind_cpp_pr0) for __aeabi_unwind_cpp_pr0
    private_typeinfo.cpp.o(.ARM.exidx.text._ZN10__cxxabiv116__shim_type_infoD2Ev) refers to private_typeinfo.cpp.o(.text._ZN10__cxxabiv116__shim_type_infoD2Ev) for [Anonymous Symbol]
    private_typeinfo.cpp.o(.ARM.exidx.text._ZN10__cxxabiv116__shim_type_infoD0Ev) refers to Unwind-EHABI.cpp.o(.text.__aeabi_unwind_cpp_pr0) for __aeabi_unwind_cpp_pr0
    private_typeinfo.cpp.o(.ARM.exidx.text._ZN10__cxxabiv116__shim_type_infoD0Ev) refers to private_typeinfo.cpp.o(.text._ZN10__cxxabiv116__shim_type_infoD0Ev) for [Anonymous Symbol]
    private_typeinfo.cpp.o(.ARM.exidx.text._ZNK10__cxxabiv116__shim_type_info5noop1Ev) refers to Unwind-EHABI.cpp.o(.text.__aeabi_unwind_cpp_pr0) for __aeabi_unwind_cpp_pr0
    private_typeinfo.cpp.o(.ARM.exidx.text._ZNK10__cxxabiv116__shim_type_info5noop1Ev) refers to private_typeinfo.cpp.o(.text._ZNK10__cxxabiv116__shim_type_info5noop1Ev) for [Anonymous Symbol]
    private_typeinfo.cpp.o(.ARM.exidx.text._ZNK10__cxxabiv116__shim_type_info5noop2Ev) refers to Unwind-EHABI.cpp.o(.text.__aeabi_unwind_cpp_pr0) for __aeabi_unwind_cpp_pr0
    private_typeinfo.cpp.o(.ARM.exidx.text._ZNK10__cxxabiv116__shim_type_info5noop2Ev) refers to private_typeinfo.cpp.o(.text._ZNK10__cxxabiv116__shim_type_info5noop2Ev) for [Anonymous Symbol]
    private_typeinfo.cpp.o(.text._ZN10__cxxabiv123__fundamental_type_infoD0Ev) refers to new.cpp.o(.text._ZdlPv) for operator delete (void*)
    private_typeinfo.cpp.o(.ARM.exidx.text._ZN10__cxxabiv123__fundamental_type_infoD0Ev) refers to Unwind-EHABI.cpp.o(.text.__aeabi_unwind_cpp_pr0) for __aeabi_unwind_cpp_pr0
    private_typeinfo.cpp.o(.ARM.exidx.text._ZN10__cxxabiv123__fundamental_type_infoD0Ev) refers to private_typeinfo.cpp.o(.text._ZN10__cxxabiv123__fundamental_type_infoD0Ev) for [Anonymous Symbol]
    private_typeinfo.cpp.o(.text._ZN10__cxxabiv117__array_type_infoD0Ev) refers to new.cpp.o(.text._ZdlPv) for operator delete (void*)
    private_typeinfo.cpp.o(.ARM.exidx.text._ZN10__cxxabiv117__array_type_infoD0Ev) refers to Unwind-EHABI.cpp.o(.text.__aeabi_unwind_cpp_pr0) for __aeabi_unwind_cpp_pr0
    private_typeinfo.cpp.o(.ARM.exidx.text._ZN10__cxxabiv117__array_type_infoD0Ev) refers to private_typeinfo.cpp.o(.text._ZN10__cxxabiv117__array_type_infoD0Ev) for [Anonymous Symbol]
    private_typeinfo.cpp.o(.text._ZN10__cxxabiv120__function_type_infoD0Ev) refers to new.cpp.o(.text._ZdlPv) for operator delete (void*)
    private_typeinfo.cpp.o(.ARM.exidx.text._ZN10__cxxabiv120__function_type_infoD0Ev) refers to Unwind-EHABI.cpp.o(.text.__aeabi_unwind_cpp_pr0) for __aeabi_unwind_cpp_pr0
    private_typeinfo.cpp.o(.ARM.exidx.text._ZN10__cxxabiv120__function_type_infoD0Ev) refers to private_typeinfo.cpp.o(.text._ZN10__cxxabiv120__function_type_infoD0Ev) for [Anonymous Symbol]
    private_typeinfo.cpp.o(.text._ZN10__cxxabiv116__enum_type_infoD0Ev) refers to new.cpp.o(.text._ZdlPv) for operator delete (void*)
    private_typeinfo.cpp.o(.ARM.exidx.text._ZN10__cxxabiv116__enum_type_infoD0Ev) refers to Unwind-EHABI.cpp.o(.text.__aeabi_unwind_cpp_pr0) for __aeabi_unwind_cpp_pr0
    private_typeinfo.cpp.o(.ARM.exidx.text._ZN10__cxxabiv116__enum_type_infoD0Ev) refers to private_typeinfo.cpp.o(.text._ZN10__cxxabiv116__enum_type_infoD0Ev) for [Anonymous Symbol]
    private_typeinfo.cpp.o(.text._ZN10__cxxabiv117__class_type_infoD0Ev) refers to new.cpp.o(.text._ZdlPv) for operator delete (void*)
    private_typeinfo.cpp.o(.ARM.exidx.text._ZN10__cxxabiv117__class_type_infoD0Ev) refers to Unwind-EHABI.cpp.o(.text.__aeabi_unwind_cpp_pr0) for __aeabi_unwind_cpp_pr0
    private_typeinfo.cpp.o(.ARM.exidx.text._ZN10__cxxabiv117__class_type_infoD0Ev) refers to private_typeinfo.cpp.o(.text._ZN10__cxxabiv117__class_type_infoD0Ev) for [Anonymous Symbol]
    private_typeinfo.cpp.o(.text._ZN10__cxxabiv120__si_class_type_infoD0Ev) refers to new.cpp.o(.text._ZdlPv) for operator delete (void*)
    private_typeinfo.cpp.o(.ARM.exidx.text._ZN10__cxxabiv120__si_class_type_infoD0Ev) refers to Unwind-EHABI.cpp.o(.text.__aeabi_unwind_cpp_pr0) for __aeabi_unwind_cpp_pr0
    private_typeinfo.cpp.o(.ARM.exidx.text._ZN10__cxxabiv120__si_class_type_infoD0Ev) refers to private_typeinfo.cpp.o(.text._ZN10__cxxabiv120__si_class_type_infoD0Ev) for [Anonymous Symbol]
    private_typeinfo.cpp.o(.text._ZN10__cxxabiv121__vmi_class_type_infoD0Ev) refers to new.cpp.o(.text._ZdlPv) for operator delete (void*)
    private_typeinfo.cpp.o(.ARM.exidx.text._ZN10__cxxabiv121__vmi_class_type_infoD0Ev) refers to Unwind-EHABI.cpp.o(.text.__aeabi_unwind_cpp_pr0) for __aeabi_unwind_cpp_pr0
    private_typeinfo.cpp.o(.ARM.exidx.text._ZN10__cxxabiv121__vmi_class_type_infoD0Ev) refers to private_typeinfo.cpp.o(.text._ZN10__cxxabiv121__vmi_class_type_infoD0Ev) for [Anonymous Symbol]
    private_typeinfo.cpp.o(.text._ZN10__cxxabiv117__pbase_type_infoD0Ev) refers to new.cpp.o(.text._ZdlPv) for operator delete (void*)
    private_typeinfo.cpp.o(.ARM.exidx.text._ZN10__cxxabiv117__pbase_type_infoD0Ev) refers to Unwind-EHABI.cpp.o(.text.__aeabi_unwind_cpp_pr0) for __aeabi_unwind_cpp_pr0
    private_typeinfo.cpp.o(.ARM.exidx.text._ZN10__cxxabiv117__pbase_type_infoD0Ev) refers to private_typeinfo.cpp.o(.text._ZN10__cxxabiv117__pbase_type_infoD0Ev) for [Anonymous Symbol]
    private_typeinfo.cpp.o(.text._ZN10__cxxabiv119__pointer_type_infoD0Ev) refers to new.cpp.o(.text._ZdlPv) for operator delete (void*)
    private_typeinfo.cpp.o(.ARM.exidx.text._ZN10__cxxabiv119__pointer_type_infoD0Ev) refers to Unwind-EHABI.cpp.o(.text.__aeabi_unwind_cpp_pr0) for __aeabi_unwind_cpp_pr0
    private_typeinfo.cpp.o(.ARM.exidx.text._ZN10__cxxabiv119__pointer_type_infoD0Ev) refers to private_typeinfo.cpp.o(.text._ZN10__cxxabiv119__pointer_type_infoD0Ev) for [Anonymous Symbol]
    private_typeinfo.cpp.o(.text._ZN10__cxxabiv129__pointer_to_member_type_infoD0Ev) refers to new.cpp.o(.text._ZdlPv) for operator delete (void*)
    private_typeinfo.cpp.o(.ARM.exidx.text._ZN10__cxxabiv129__pointer_to_member_type_infoD0Ev) refers to Unwind-EHABI.cpp.o(.text.__aeabi_unwind_cpp_pr0) for __aeabi_unwind_cpp_pr0
    private_typeinfo.cpp.o(.ARM.exidx.text._ZN10__cxxabiv129__pointer_to_member_type_infoD0Ev) refers to private_typeinfo.cpp.o(.text._ZN10__cxxabiv129__pointer_to_member_type_infoD0Ev) for [Anonymous Symbol]
    private_typeinfo.cpp.o(.ARM.exidx.text._ZNK10__cxxabiv123__fundamental_type_info9can_catchEPKNS_16__shim_type_infoERPv) refers to Unwind-EHABI.cpp.o(.text.__aeabi_unwind_cpp_pr0) for __aeabi_unwind_cpp_pr0
    private_typeinfo.cpp.o(.ARM.exidx.text._ZNK10__cxxabiv123__fundamental_type_info9can_catchEPKNS_16__shim_type_infoERPv) refers to private_typeinfo.cpp.o(.text._ZNK10__cxxabiv123__fundamental_type_info9can_catchEPKNS_16__shim_type_infoERPv) for [Anonymous Symbol]
    private_typeinfo.cpp.o(.ARM.exidx.text._ZNK10__cxxabiv117__array_type_info9can_catchEPKNS_16__shim_type_infoERPv) refers to Unwind-EHABI.cpp.o(.text.__aeabi_unwind_cpp_pr0) for __aeabi_unwind_cpp_pr0
    private_typeinfo.cpp.o(.ARM.exidx.text._ZNK10__cxxabiv117__array_type_info9can_catchEPKNS_16__shim_type_infoERPv) refers to private_typeinfo.cpp.o(.text._ZNK10__cxxabiv117__array_type_info9can_catchEPKNS_16__shim_type_infoERPv) for [Anonymous Symbol]
    private_typeinfo.cpp.o(.ARM.exidx.text._ZNK10__cxxabiv120__function_type_info9can_catchEPKNS_16__shim_type_infoERPv) refers to Unwind-EHABI.cpp.o(.text.__aeabi_unwind_cpp_pr0) for __aeabi_unwind_cpp_pr0
    private_typeinfo.cpp.o(.ARM.exidx.text._ZNK10__cxxabiv120__function_type_info9can_catchEPKNS_16__shim_type_infoERPv) refers to private_typeinfo.cpp.o(.text._ZNK10__cxxabiv120__function_type_info9can_catchEPKNS_16__shim_type_infoERPv) for [Anonymous Symbol]
    private_typeinfo.cpp.o(.ARM.exidx.text._ZNK10__cxxabiv116__enum_type_info9can_catchEPKNS_16__shim_type_infoERPv) refers to Unwind-EHABI.cpp.o(.text.__aeabi_unwind_cpp_pr0) for __aeabi_unwind_cpp_pr0
    private_typeinfo.cpp.o(.ARM.exidx.text._ZNK10__cxxabiv116__enum_type_info9can_catchEPKNS_16__shim_type_infoERPv) refers to private_typeinfo.cpp.o(.text._ZNK10__cxxabiv116__enum_type_info9can_catchEPKNS_16__shim_type_infoERPv) for [Anonymous Symbol]
    private_typeinfo.cpp.o(.text._ZNK10__cxxabiv117__class_type_info9can_catchEPKNS_16__shim_type_infoERPv) refers to private_typeinfo.cpp.o(.rodata._ZTIN10__cxxabiv116__shim_type_infoE) for typeinfo for __cxxabiv1::__shim_type_info
    private_typeinfo.cpp.o(.text._ZNK10__cxxabiv117__class_type_info9can_catchEPKNS_16__shim_type_infoERPv) refers to private_typeinfo.cpp.o(.rodata._ZTIN10__cxxabiv117__class_type_infoE) for typeinfo for __cxxabiv1::__class_type_info
    private_typeinfo.cpp.o(.text._ZNK10__cxxabiv117__class_type_info9can_catchEPKNS_16__shim_type_infoERPv) refers to private_typeinfo.cpp.o(.text.__dynamic_cast) for __dynamic_cast
    private_typeinfo.cpp.o(.text._ZNK10__cxxabiv117__class_type_info9can_catchEPKNS_16__shim_type_infoERPv) refers to rt_memclr_w.o(.text) for __aeabi_memclr4
    private_typeinfo.cpp.o(.ARM.exidx.text._ZNK10__cxxabiv117__class_type_info9can_catchEPKNS_16__shim_type_infoERPv) refers to Unwind-EHABI.cpp.o(.text.__aeabi_unwind_cpp_pr0) for __aeabi_unwind_cpp_pr0
    private_typeinfo.cpp.o(.ARM.exidx.text._ZNK10__cxxabiv117__class_type_info9can_catchEPKNS_16__shim_type_infoERPv) refers to private_typeinfo.cpp.o(.text._ZNK10__cxxabiv117__class_type_info9can_catchEPKNS_16__shim_type_infoERPv) for [Anonymous Symbol]
    private_typeinfo.cpp.o(.ARM.exidx.text._ZNK10__cxxabiv117__class_type_info24process_found_base_classEPNS_19__dynamic_cast_infoEPvi) refers to Unwind-EHABI.cpp.o(.text.__aeabi_unwind_cpp_pr0) for __aeabi_unwind_cpp_pr0
    private_typeinfo.cpp.o(.ARM.exidx.text._ZNK10__cxxabiv117__class_type_info24process_found_base_classEPNS_19__dynamic_cast_infoEPvi) refers to private_typeinfo.cpp.o(.text._ZNK10__cxxabiv117__class_type_info24process_found_base_classEPNS_19__dynamic_cast_infoEPvi) for [Anonymous Symbol]
    private_typeinfo.cpp.o(.ARM.exidx.text._ZNK10__cxxabiv117__class_type_info27has_unambiguous_public_baseEPNS_19__dynamic_cast_infoEPvi) refers to Unwind-EHABI.cpp.o(.text.__aeabi_unwind_cpp_pr0) for __aeabi_unwind_cpp_pr0
    private_typeinfo.cpp.o(.ARM.exidx.text._ZNK10__cxxabiv117__class_type_info27has_unambiguous_public_baseEPNS_19__dynamic_cast_infoEPvi) refers to private_typeinfo.cpp.o(.text._ZNK10__cxxabiv117__class_type_info27has_unambiguous_public_baseEPNS_19__dynamic_cast_infoEPvi) for [Anonymous Symbol]
    private_typeinfo.cpp.o(.ARM.exidx.text._ZNK10__cxxabiv120__si_class_type_info27has_unambiguous_public_baseEPNS_19__dynamic_cast_infoEPvi) refers to Unwind-EHABI.cpp.o(.text.__aeabi_unwind_cpp_pr0) for __aeabi_unwind_cpp_pr0
    private_typeinfo.cpp.o(.ARM.exidx.text._ZNK10__cxxabiv120__si_class_type_info27has_unambiguous_public_baseEPNS_19__dynamic_cast_infoEPvi) refers to private_typeinfo.cpp.o(.text._ZNK10__cxxabiv120__si_class_type_info27has_unambiguous_public_baseEPNS_19__dynamic_cast_infoEPvi) for [Anonymous Symbol]
    private_typeinfo.cpp.o(.ARM.exidx.text._ZNK10__cxxabiv122__base_class_type_info27has_unambiguous_public_baseEPNS_19__dynamic_cast_infoEPvi) refers to Unwind-EHABI.cpp.o(.text.__aeabi_unwind_cpp_pr0) for __aeabi_unwind_cpp_pr0
    private_typeinfo.cpp.o(.ARM.exidx.text._ZNK10__cxxabiv122__base_class_type_info27has_unambiguous_public_baseEPNS_19__dynamic_cast_infoEPvi) refers to private_typeinfo.cpp.o(.text._ZNK10__cxxabiv122__base_class_type_info27has_unambiguous_public_baseEPNS_19__dynamic_cast_infoEPvi) for [Anonymous Symbol]
    private_typeinfo.cpp.o(.text._ZNK10__cxxabiv121__vmi_class_type_info27has_unambiguous_public_baseEPNS_19__dynamic_cast_infoEPvi) refers to private_typeinfo.cpp.o(.text._ZNK10__cxxabiv122__base_class_type_info27has_unambiguous_public_baseEPNS_19__dynamic_cast_infoEPvi) for __cxxabiv1::__base_class_type_info::has_unambiguous_public_base(__cxxabiv1::__dynamic_cast_info*, void*, int) const
    private_typeinfo.cpp.o(.ARM.exidx.text._ZNK10__cxxabiv121__vmi_class_type_info27has_unambiguous_public_baseEPNS_19__dynamic_cast_infoEPvi) refers to Unwind-EHABI.cpp.o(.text.__aeabi_unwind_cpp_pr0) for __aeabi_unwind_cpp_pr0
    private_typeinfo.cpp.o(.ARM.exidx.text._ZNK10__cxxabiv121__vmi_class_type_info27has_unambiguous_public_baseEPNS_19__dynamic_cast_infoEPvi) refers to private_typeinfo.cpp.o(.text._ZNK10__cxxabiv121__vmi_class_type_info27has_unambiguous_public_baseEPNS_19__dynamic_cast_infoEPvi) for [Anonymous Symbol]
    private_typeinfo.cpp.o(.text._ZNK10__cxxabiv117__pbase_type_info9can_catchEPKNS_16__shim_type_infoERPv) refers to strcmpv7m.o(.text) for strcmp
    private_typeinfo.cpp.o(.text._ZNK10__cxxabiv117__pbase_type_info9can_catchEPKNS_16__shim_type_infoERPv) refers to private_typeinfo.cpp.o(.rodata._ZTIN10__cxxabiv116__shim_type_infoE) for typeinfo for __cxxabiv1::__shim_type_info
    private_typeinfo.cpp.o(.text._ZNK10__cxxabiv117__pbase_type_info9can_catchEPKNS_16__shim_type_infoERPv) refers to private_typeinfo.cpp.o(.rodata._ZTIN10__cxxabiv117__pbase_type_infoE) for typeinfo for __cxxabiv1::__pbase_type_info
    private_typeinfo.cpp.o(.text._ZNK10__cxxabiv117__pbase_type_info9can_catchEPKNS_16__shim_type_infoERPv) refers to private_typeinfo.cpp.o(.text.__dynamic_cast) for __dynamic_cast
    private_typeinfo.cpp.o(.ARM.exidx.text._ZNK10__cxxabiv117__pbase_type_info9can_catchEPKNS_16__shim_type_infoERPv) refers to Unwind-EHABI.cpp.o(.text.__aeabi_unwind_cpp_pr0) for __aeabi_unwind_cpp_pr0
    private_typeinfo.cpp.o(.ARM.exidx.text._ZNK10__cxxabiv117__pbase_type_info9can_catchEPKNS_16__shim_type_infoERPv) refers to private_typeinfo.cpp.o(.text._ZNK10__cxxabiv117__pbase_type_info9can_catchEPKNS_16__shim_type_infoERPv) for [Anonymous Symbol]
    private_typeinfo.cpp.o(.text._ZNK10__cxxabiv119__pointer_type_info9can_catchEPKNS_16__shim_type_infoERPv) refers to private_typeinfo.cpp.o(.rodata._ZTIDn) for typeinfo for std::nullptr_t
    private_typeinfo.cpp.o(.text._ZNK10__cxxabiv119__pointer_type_info9can_catchEPKNS_16__shim_type_infoERPv) refers to private_typeinfo.cpp.o(.text._ZNK10__cxxabiv117__pbase_type_info9can_catchEPKNS_16__shim_type_infoERPv) for __cxxabiv1::__pbase_type_info::can_catch(const __cxxabiv1::__shim_type_info*, void*&) const
    private_typeinfo.cpp.o(.text._ZNK10__cxxabiv119__pointer_type_info9can_catchEPKNS_16__shim_type_infoERPv) refers to private_typeinfo.cpp.o(.rodata._ZTIN10__cxxabiv116__shim_type_infoE) for typeinfo for __cxxabiv1::__shim_type_info
    private_typeinfo.cpp.o(.text._ZNK10__cxxabiv119__pointer_type_info9can_catchEPKNS_16__shim_type_infoERPv) refers to private_typeinfo.cpp.o(.rodata._ZTIN10__cxxabiv119__pointer_type_infoE) for typeinfo for __cxxabiv1::__pointer_type_info
    private_typeinfo.cpp.o(.text._ZNK10__cxxabiv119__pointer_type_info9can_catchEPKNS_16__shim_type_infoERPv) refers to private_typeinfo.cpp.o(.text.__dynamic_cast) for __dynamic_cast
    private_typeinfo.cpp.o(.text._ZNK10__cxxabiv119__pointer_type_info9can_catchEPKNS_16__shim_type_infoERPv) refers to private_typeinfo.cpp.o(.rodata._ZTIv) for typeinfo for void
    private_typeinfo.cpp.o(.text._ZNK10__cxxabiv119__pointer_type_info9can_catchEPKNS_16__shim_type_infoERPv) refers to private_typeinfo.cpp.o(.text._ZNK10__cxxabiv119__pointer_type_info16can_catch_nestedEPKNS_16__shim_type_infoE) for __cxxabiv1::__pointer_type_info::can_catch_nested(const __cxxabiv1::__shim_type_info*) const
    private_typeinfo.cpp.o(.text._ZNK10__cxxabiv119__pointer_type_info9can_catchEPKNS_16__shim_type_infoERPv) refers to private_typeinfo.cpp.o(.rodata._ZTIN10__cxxabiv120__function_type_infoE) for typeinfo for __cxxabiv1::__function_type_info
    private_typeinfo.cpp.o(.text._ZNK10__cxxabiv119__pointer_type_info9can_catchEPKNS_16__shim_type_infoERPv) refers to private_typeinfo.cpp.o(.rodata._ZTIN10__cxxabiv129__pointer_to_member_type_infoE) for typeinfo for __cxxabiv1::__pointer_to_member_type_info
    private_typeinfo.cpp.o(.text._ZNK10__cxxabiv119__pointer_type_info9can_catchEPKNS_16__shim_type_infoERPv) refers to private_typeinfo.cpp.o(.text._ZNK10__cxxabiv129__pointer_to_member_type_info16can_catch_nestedEPKNS_16__shim_type_infoE) for __cxxabiv1::__pointer_to_member_type_info::can_catch_nested(const __cxxabiv1::__shim_type_info*) const
    private_typeinfo.cpp.o(.text._ZNK10__cxxabiv119__pointer_type_info9can_catchEPKNS_16__shim_type_infoERPv) refers to private_typeinfo.cpp.o(.rodata._ZTIN10__cxxabiv117__class_type_infoE) for typeinfo for __cxxabiv1::__class_type_info
    private_typeinfo.cpp.o(.text._ZNK10__cxxabiv119__pointer_type_info9can_catchEPKNS_16__shim_type_infoERPv) refers to rt_memclr_w.o(.text) for __aeabi_memclr4
    private_typeinfo.cpp.o(.ARM.exidx.text._ZNK10__cxxabiv119__pointer_type_info9can_catchEPKNS_16__shim_type_infoERPv) refers to Unwind-EHABI.cpp.o(.text.__aeabi_unwind_cpp_pr0) for __aeabi_unwind_cpp_pr0
    private_typeinfo.cpp.o(.ARM.exidx.text._ZNK10__cxxabiv119__pointer_type_info9can_catchEPKNS_16__shim_type_infoERPv) refers to private_typeinfo.cpp.o(.text._ZNK10__cxxabiv119__pointer_type_info9can_catchEPKNS_16__shim_type_infoERPv) for [Anonymous Symbol]
    private_typeinfo.cpp.o(.text._ZNK10__cxxabiv119__pointer_type_info16can_catch_nestedEPKNS_16__shim_type_infoE) refers to private_typeinfo.cpp.o(.rodata._ZTIN10__cxxabiv116__shim_type_infoE) for typeinfo for __cxxabiv1::__shim_type_info
    private_typeinfo.cpp.o(.text._ZNK10__cxxabiv119__pointer_type_info16can_catch_nestedEPKNS_16__shim_type_infoE) refers to private_typeinfo.cpp.o(.rodata._ZTIN10__cxxabiv119__pointer_type_infoE) for typeinfo for __cxxabiv1::__pointer_type_info
    private_typeinfo.cpp.o(.text._ZNK10__cxxabiv119__pointer_type_info16can_catch_nestedEPKNS_16__shim_type_infoE) refers to private_typeinfo.cpp.o(.text.__dynamic_cast) for __dynamic_cast
    private_typeinfo.cpp.o(.text._ZNK10__cxxabiv119__pointer_type_info16can_catch_nestedEPKNS_16__shim_type_infoE) refers to private_typeinfo.cpp.o(.rodata._ZTIN10__cxxabiv129__pointer_to_member_type_infoE) for typeinfo for __cxxabiv1::__pointer_to_member_type_info
    private_typeinfo.cpp.o(.text._ZNK10__cxxabiv119__pointer_type_info16can_catch_nestedEPKNS_16__shim_type_infoE) refers to private_typeinfo.cpp.o(.text._ZNK10__cxxabiv129__pointer_to_member_type_info16can_catch_nestedEPKNS_16__shim_type_infoE) for __cxxabiv1::__pointer_to_member_type_info::can_catch_nested(const __cxxabiv1::__shim_type_info*) const
    private_typeinfo.cpp.o(.ARM.exidx.text._ZNK10__cxxabiv119__pointer_type_info16can_catch_nestedEPKNS_16__shim_type_infoE) refers to Unwind-EHABI.cpp.o(.text.__aeabi_unwind_cpp_pr0) for __aeabi_unwind_cpp_pr0
    private_typeinfo.cpp.o(.ARM.exidx.text._ZNK10__cxxabiv119__pointer_type_info16can_catch_nestedEPKNS_16__shim_type_infoE) refers to private_typeinfo.cpp.o(.text._ZNK10__cxxabiv119__pointer_type_info16can_catch_nestedEPKNS_16__shim_type_infoE) for [Anonymous Symbol]
    private_typeinfo.cpp.o(.text._ZNK10__cxxabiv129__pointer_to_member_type_info16can_catch_nestedEPKNS_16__shim_type_infoE) refers to private_typeinfo.cpp.o(.rodata._ZTIN10__cxxabiv116__shim_type_infoE) for typeinfo for __cxxabiv1::__shim_type_info
    private_typeinfo.cpp.o(.text._ZNK10__cxxabiv129__pointer_to_member_type_info16can_catch_nestedEPKNS_16__shim_type_infoE) refers to private_typeinfo.cpp.o(.rodata._ZTIN10__cxxabiv129__pointer_to_member_type_infoE) for typeinfo for __cxxabiv1::__pointer_to_member_type_info
    private_typeinfo.cpp.o(.text._ZNK10__cxxabiv129__pointer_to_member_type_info16can_catch_nestedEPKNS_16__shim_type_infoE) refers to private_typeinfo.cpp.o(.text.__dynamic_cast) for __dynamic_cast
    private_typeinfo.cpp.o(.ARM.exidx.text._ZNK10__cxxabiv129__pointer_to_member_type_info16can_catch_nestedEPKNS_16__shim_type_infoE) refers to Unwind-EHABI.cpp.o(.text.__aeabi_unwind_cpp_pr0) for __aeabi_unwind_cpp_pr0
    private_typeinfo.cpp.o(.ARM.exidx.text._ZNK10__cxxabiv129__pointer_to_member_type_info16can_catch_nestedEPKNS_16__shim_type_infoE) refers to private_typeinfo.cpp.o(.text._ZNK10__cxxabiv129__pointer_to_member_type_info16can_catch_nestedEPKNS_16__shim_type_infoE) for [Anonymous Symbol]
    private_typeinfo.cpp.o(.text._ZNK10__cxxabiv129__pointer_to_member_type_info9can_catchEPKNS_16__shim_type_infoERPv) refers to private_typeinfo.cpp.o(.rodata._ZTIDn) for typeinfo for std::nullptr_t
    private_typeinfo.cpp.o(.text._ZNK10__cxxabiv129__pointer_to_member_type_info9can_catchEPKNS_16__shim_type_infoERPv) refers to private_typeinfo.cpp.o(.text._ZNK10__cxxabiv117__pbase_type_info9can_catchEPKNS_16__shim_type_infoERPv) for __cxxabiv1::__pbase_type_info::can_catch(const __cxxabiv1::__shim_type_info*, void*&) const
    private_typeinfo.cpp.o(.text._ZNK10__cxxabiv129__pointer_to_member_type_info9can_catchEPKNS_16__shim_type_infoERPv) refers to private_typeinfo.cpp.o(.rodata._ZTIN10__cxxabiv116__shim_type_infoE) for typeinfo for __cxxabiv1::__shim_type_info
    private_typeinfo.cpp.o(.text._ZNK10__cxxabiv129__pointer_to_member_type_info9can_catchEPKNS_16__shim_type_infoERPv) refers to private_typeinfo.cpp.o(.rodata._ZTIN10__cxxabiv129__pointer_to_member_type_infoE) for typeinfo for __cxxabiv1::__pointer_to_member_type_info
    private_typeinfo.cpp.o(.text._ZNK10__cxxabiv129__pointer_to_member_type_info9can_catchEPKNS_16__shim_type_infoERPv) refers to private_typeinfo.cpp.o(.text.__dynamic_cast) for __dynamic_cast
    private_typeinfo.cpp.o(.text._ZNK10__cxxabiv129__pointer_to_member_type_info9can_catchEPKNS_16__shim_type_infoERPv) refers to private_typeinfo.cpp.o(.rodata._ZZNK10__cxxabiv129__pointer_to_member_type_info9can_catchEPKNS_16__shim_type_infoERPvE12null_ptr_rep_0) for __cxxabiv1::__pointer_to_member_type_info::can_catch(const __cxxabiv1::__shim_type_info*, void*&) const::null_ptr_rep (instance 2)
    private_typeinfo.cpp.o(.text._ZNK10__cxxabiv129__pointer_to_member_type_info9can_catchEPKNS_16__shim_type_infoERPv) refers to private_typeinfo.cpp.o(.rodata._ZTIN10__cxxabiv120__function_type_infoE) for typeinfo for __cxxabiv1::__function_type_info
    private_typeinfo.cpp.o(.text._ZNK10__cxxabiv129__pointer_to_member_type_info9can_catchEPKNS_16__shim_type_infoERPv) refers to private_typeinfo.cpp.o(.rodata._ZZNK10__cxxabiv129__pointer_to_member_type_info9can_catchEPKNS_16__shim_type_infoERPvE12null_ptr_rep) for __cxxabiv1::__pointer_to_member_type_info::can_catch(const __cxxabiv1::__shim_type_info*, void*&) const::null_ptr_rep
    private_typeinfo.cpp.o(.ARM.exidx.text._ZNK10__cxxabiv129__pointer_to_member_type_info9can_catchEPKNS_16__shim_type_infoERPv) refers to Unwind-EHABI.cpp.o(.text.__aeabi_unwind_cpp_pr0) for __aeabi_unwind_cpp_pr0
    private_typeinfo.cpp.o(.ARM.exidx.text._ZNK10__cxxabiv129__pointer_to_member_type_info9can_catchEPKNS_16__shim_type_infoERPv) refers to private_typeinfo.cpp.o(.text._ZNK10__cxxabiv129__pointer_to_member_type_info9can_catchEPKNS_16__shim_type_infoERPv) for [Anonymous Symbol]
    private_typeinfo.cpp.o(.text.__dynamic_cast) refers to rt_memclr_w.o(.text) for __aeabi_memclr4
    private_typeinfo.cpp.o(.ARM.exidx.text.__dynamic_cast) refers to Unwind-EHABI.cpp.o(.text.__aeabi_unwind_cpp_pr0) for __aeabi_unwind_cpp_pr0
    private_typeinfo.cpp.o(.ARM.exidx.text.__dynamic_cast) refers to private_typeinfo.cpp.o(.text.__dynamic_cast) for [Anonymous Symbol]
    private_typeinfo.cpp.o(.ARM.exidx.text._ZNK10__cxxabiv117__class_type_info29process_static_type_above_dstEPNS_19__dynamic_cast_infoEPKvS4_i) refers to Unwind-EHABI.cpp.o(.text.__aeabi_unwind_cpp_pr0) for __aeabi_unwind_cpp_pr0
    private_typeinfo.cpp.o(.ARM.exidx.text._ZNK10__cxxabiv117__class_type_info29process_static_type_above_dstEPNS_19__dynamic_cast_infoEPKvS4_i) refers to private_typeinfo.cpp.o(.text._ZNK10__cxxabiv117__class_type_info29process_static_type_above_dstEPNS_19__dynamic_cast_infoEPKvS4_i) for [Anonymous Symbol]
    private_typeinfo.cpp.o(.ARM.exidx.text._ZNK10__cxxabiv117__class_type_info29process_static_type_below_dstEPNS_19__dynamic_cast_infoEPKvi) refers to Unwind-EHABI.cpp.o(.text.__aeabi_unwind_cpp_pr0) for __aeabi_unwind_cpp_pr0
    private_typeinfo.cpp.o(.ARM.exidx.text._ZNK10__cxxabiv117__class_type_info29process_static_type_below_dstEPNS_19__dynamic_cast_infoEPKvi) refers to private_typeinfo.cpp.o(.text._ZNK10__cxxabiv117__class_type_info29process_static_type_below_dstEPNS_19__dynamic_cast_infoEPKvi) for [Anonymous Symbol]
    private_typeinfo.cpp.o(.text._ZNK10__cxxabiv121__vmi_class_type_info16search_below_dstEPNS_19__dynamic_cast_infoEPKvib) refers to strcmpv7m.o(.text) for strcmp
    private_typeinfo.cpp.o(.ARM.exidx.text._ZNK10__cxxabiv121__vmi_class_type_info16search_below_dstEPNS_19__dynamic_cast_infoEPKvib) refers to Unwind-EHABI.cpp.o(.text.__aeabi_unwind_cpp_pr0) for __aeabi_unwind_cpp_pr0
    private_typeinfo.cpp.o(.ARM.exidx.text._ZNK10__cxxabiv121__vmi_class_type_info16search_below_dstEPNS_19__dynamic_cast_infoEPKvib) refers to private_typeinfo.cpp.o(.text._ZNK10__cxxabiv121__vmi_class_type_info16search_below_dstEPNS_19__dynamic_cast_infoEPKvib) for [Anonymous Symbol]
    private_typeinfo.cpp.o(.ARM.exidx.text._ZNK10__cxxabiv122__base_class_type_info16search_above_dstEPNS_19__dynamic_cast_infoEPKvS4_ib) refers to Unwind-EHABI.cpp.o(.text.__aeabi_unwind_cpp_pr0) for __aeabi_unwind_cpp_pr0
    private_typeinfo.cpp.o(.ARM.exidx.text._ZNK10__cxxabiv122__base_class_type_info16search_above_dstEPNS_19__dynamic_cast_infoEPKvS4_ib) refers to private_typeinfo.cpp.o(.text._ZNK10__cxxabiv122__base_class_type_info16search_above_dstEPNS_19__dynamic_cast_infoEPKvS4_ib) for [Anonymous Symbol]
    private_typeinfo.cpp.o(.ARM.exidx.text._ZNK10__cxxabiv122__base_class_type_info16search_below_dstEPNS_19__dynamic_cast_infoEPKvib) refers to Unwind-EHABI.cpp.o(.text.__aeabi_unwind_cpp_pr0) for __aeabi_unwind_cpp_pr0
    private_typeinfo.cpp.o(.ARM.exidx.text._ZNK10__cxxabiv122__base_class_type_info16search_below_dstEPNS_19__dynamic_cast_infoEPKvib) refers to private_typeinfo.cpp.o(.text._ZNK10__cxxabiv122__base_class_type_info16search_below_dstEPNS_19__dynamic_cast_infoEPKvib) for [Anonymous Symbol]
    private_typeinfo.cpp.o(.text._ZNK10__cxxabiv120__si_class_type_info16search_below_dstEPNS_19__dynamic_cast_infoEPKvib) refers to strcmpv7m.o(.text) for strcmp
    private_typeinfo.cpp.o(.ARM.exidx.text._ZNK10__cxxabiv120__si_class_type_info16search_below_dstEPNS_19__dynamic_cast_infoEPKvib) refers to Unwind-EHABI.cpp.o(.text.__aeabi_unwind_cpp_pr0) for __aeabi_unwind_cpp_pr0
    private_typeinfo.cpp.o(.ARM.exidx.text._ZNK10__cxxabiv120__si_class_type_info16search_below_dstEPNS_19__dynamic_cast_infoEPKvib) refers to private_typeinfo.cpp.o(.text._ZNK10__cxxabiv120__si_class_type_info16search_below_dstEPNS_19__dynamic_cast_infoEPKvib) for [Anonymous Symbol]
    private_typeinfo.cpp.o(.text._ZNK10__cxxabiv117__class_type_info16search_below_dstEPNS_19__dynamic_cast_infoEPKvib) refers to strcmpv7m.o(.text) for strcmp
    private_typeinfo.cpp.o(.ARM.exidx.text._ZNK10__cxxabiv117__class_type_info16search_below_dstEPNS_19__dynamic_cast_infoEPKvib) refers to Unwind-EHABI.cpp.o(.text.__aeabi_unwind_cpp_pr0) for __aeabi_unwind_cpp_pr0
    private_typeinfo.cpp.o(.ARM.exidx.text._ZNK10__cxxabiv117__class_type_info16search_below_dstEPNS_19__dynamic_cast_infoEPKvib) refers to private_typeinfo.cpp.o(.text._ZNK10__cxxabiv117__class_type_info16search_below_dstEPNS_19__dynamic_cast_infoEPKvib) for [Anonymous Symbol]
    private_typeinfo.cpp.o(.text._ZNK10__cxxabiv121__vmi_class_type_info16search_above_dstEPNS_19__dynamic_cast_infoEPKvS4_ib) refers to strcmpv7m.o(.text) for strcmp
    private_typeinfo.cpp.o(.text._ZNK10__cxxabiv121__vmi_class_type_info16search_above_dstEPNS_19__dynamic_cast_infoEPKvS4_ib) refers to private_typeinfo.cpp.o(.text._ZNK10__cxxabiv117__class_type_info29process_static_type_above_dstEPNS_19__dynamic_cast_infoEPKvS4_i) for __cxxabiv1::__class_type_info::process_static_type_above_dst(__cxxabiv1::__dynamic_cast_info*, const void*, const void*, int) const
    private_typeinfo.cpp.o(.ARM.exidx.text._ZNK10__cxxabiv121__vmi_class_type_info16search_above_dstEPNS_19__dynamic_cast_infoEPKvS4_ib) refers to Unwind-EHABI.cpp.o(.text.__aeabi_unwind_cpp_pr0) for __aeabi_unwind_cpp_pr0
    private_typeinfo.cpp.o(.ARM.exidx.text._ZNK10__cxxabiv121__vmi_class_type_info16search_above_dstEPNS_19__dynamic_cast_infoEPKvS4_ib) refers to private_typeinfo.cpp.o(.text._ZNK10__cxxabiv121__vmi_class_type_info16search_above_dstEPNS_19__dynamic_cast_infoEPKvS4_ib) for [Anonymous Symbol]
    private_typeinfo.cpp.o(.text._ZNK10__cxxabiv120__si_class_type_info16search_above_dstEPNS_19__dynamic_cast_infoEPKvS4_ib) refers to strcmpv7m.o(.text) for strcmp
    private_typeinfo.cpp.o(.text._ZNK10__cxxabiv120__si_class_type_info16search_above_dstEPNS_19__dynamic_cast_infoEPKvS4_ib) refers to private_typeinfo.cpp.o(.text._ZNK10__cxxabiv117__class_type_info29process_static_type_above_dstEPNS_19__dynamic_cast_infoEPKvS4_i) for __cxxabiv1::__class_type_info::process_static_type_above_dst(__cxxabiv1::__dynamic_cast_info*, const void*, const void*, int) const
    private_typeinfo.cpp.o(.ARM.exidx.text._ZNK10__cxxabiv120__si_class_type_info16search_above_dstEPNS_19__dynamic_cast_infoEPKvS4_ib) refers to Unwind-EHABI.cpp.o(.text.__aeabi_unwind_cpp_pr0) for __aeabi_unwind_cpp_pr0
    private_typeinfo.cpp.o(.ARM.exidx.text._ZNK10__cxxabiv120__si_class_type_info16search_above_dstEPNS_19__dynamic_cast_infoEPKvS4_ib) refers to private_typeinfo.cpp.o(.text._ZNK10__cxxabiv120__si_class_type_info16search_above_dstEPNS_19__dynamic_cast_infoEPKvS4_ib) for [Anonymous Symbol]
    private_typeinfo.cpp.o(.text._ZNK10__cxxabiv117__class_type_info16search_above_dstEPNS_19__dynamic_cast_infoEPKvS4_ib) refers to strcmpv7m.o(.text) for strcmp
    private_typeinfo.cpp.o(.text._ZNK10__cxxabiv117__class_type_info16search_above_dstEPNS_19__dynamic_cast_infoEPKvS4_ib) refers to private_typeinfo.cpp.o(.text._ZNK10__cxxabiv117__class_type_info29process_static_type_above_dstEPNS_19__dynamic_cast_infoEPKvS4_i) for __cxxabiv1::__class_type_info::process_static_type_above_dst(__cxxabiv1::__dynamic_cast_info*, const void*, const void*, int) const
    private_typeinfo.cpp.o(.ARM.exidx.text._ZNK10__cxxabiv117__class_type_info16search_above_dstEPNS_19__dynamic_cast_infoEPKvS4_ib) refers to Unwind-EHABI.cpp.o(.text.__aeabi_unwind_cpp_pr0) for __aeabi_unwind_cpp_pr0
    private_typeinfo.cpp.o(.ARM.exidx.text._ZNK10__cxxabiv117__class_type_info16search_above_dstEPNS_19__dynamic_cast_infoEPKvS4_ib) refers to private_typeinfo.cpp.o(.text._ZNK10__cxxabiv117__class_type_info16search_above_dstEPNS_19__dynamic_cast_infoEPKvS4_ib) for [Anonymous Symbol]
    private_typeinfo.cpp.o(.rodata._ZTIN10__cxxabiv116__shim_type_infoE) refers to private_typeinfo.cpp.o(.rodata._ZTVN10__cxxabiv120__si_class_type_infoE) for vtable for __cxxabiv1::__si_class_type_info
    private_typeinfo.cpp.o(.rodata._ZTIN10__cxxabiv116__shim_type_infoE) refers to private_typeinfo.cpp.o(.rodata._ZTSN10__cxxabiv116__shim_type_infoE) for typeinfo name for __cxxabiv1::__shim_type_info
    private_typeinfo.cpp.o(.rodata._ZTIN10__cxxabiv116__shim_type_infoE) refers to stdlib_typeinfo.cpp.o(.rodata._ZTISt9type_info) for typeinfo for std::type_info
    private_typeinfo.cpp.o(.rodata._ZTIN10__cxxabiv117__class_type_infoE) refers to private_typeinfo.cpp.o(.rodata._ZTVN10__cxxabiv120__si_class_type_infoE) for vtable for __cxxabiv1::__si_class_type_info
    private_typeinfo.cpp.o(.rodata._ZTIN10__cxxabiv117__class_type_infoE) refers to private_typeinfo.cpp.o(.rodata._ZTSN10__cxxabiv117__class_type_infoE) for typeinfo name for __cxxabiv1::__class_type_info
    private_typeinfo.cpp.o(.rodata._ZTIN10__cxxabiv117__class_type_infoE) refers to private_typeinfo.cpp.o(.rodata._ZTIN10__cxxabiv116__shim_type_infoE) for typeinfo for __cxxabiv1::__shim_type_info
    private_typeinfo.cpp.o(.rodata._ZTIN10__cxxabiv117__pbase_type_infoE) refers to private_typeinfo.cpp.o(.rodata._ZTVN10__cxxabiv120__si_class_type_infoE) for vtable for __cxxabiv1::__si_class_type_info
    private_typeinfo.cpp.o(.rodata._ZTIN10__cxxabiv117__pbase_type_infoE) refers to private_typeinfo.cpp.o(.rodata._ZTSN10__cxxabiv117__pbase_type_infoE) for typeinfo name for __cxxabiv1::__pbase_type_info
    private_typeinfo.cpp.o(.rodata._ZTIN10__cxxabiv117__pbase_type_infoE) refers to private_typeinfo.cpp.o(.rodata._ZTIN10__cxxabiv116__shim_type_infoE) for typeinfo for __cxxabiv1::__shim_type_info
    private_typeinfo.cpp.o(.rodata._ZTIN10__cxxabiv119__pointer_type_infoE) refers to private_typeinfo.cpp.o(.rodata._ZTVN10__cxxabiv120__si_class_type_infoE) for vtable for __cxxabiv1::__si_class_type_info
    private_typeinfo.cpp.o(.rodata._ZTIN10__cxxabiv119__pointer_type_infoE) refers to private_typeinfo.cpp.o(.rodata._ZTSN10__cxxabiv119__pointer_type_infoE) for typeinfo name for __cxxabiv1::__pointer_type_info
    private_typeinfo.cpp.o(.rodata._ZTIN10__cxxabiv119__pointer_type_infoE) refers to private_typeinfo.cpp.o(.rodata._ZTIN10__cxxabiv117__pbase_type_infoE) for typeinfo for __cxxabiv1::__pbase_type_info
    private_typeinfo.cpp.o(.rodata._ZTIN10__cxxabiv120__function_type_infoE) refers to private_typeinfo.cpp.o(.rodata._ZTVN10__cxxabiv120__si_class_type_infoE) for vtable for __cxxabiv1::__si_class_type_info
    private_typeinfo.cpp.o(.rodata._ZTIN10__cxxabiv120__function_type_infoE) refers to private_typeinfo.cpp.o(.rodata._ZTSN10__cxxabiv120__function_type_infoE) for typeinfo name for __cxxabiv1::__function_type_info
    private_typeinfo.cpp.o(.rodata._ZTIN10__cxxabiv120__function_type_infoE) refers to private_typeinfo.cpp.o(.rodata._ZTIN10__cxxabiv116__shim_type_infoE) for typeinfo for __cxxabiv1::__shim_type_info
    private_typeinfo.cpp.o(.rodata._ZTIN10__cxxabiv129__pointer_to_member_type_infoE) refers to private_typeinfo.cpp.o(.rodata._ZTVN10__cxxabiv120__si_class_type_infoE) for vtable for __cxxabiv1::__si_class_type_info
    private_typeinfo.cpp.o(.rodata._ZTIN10__cxxabiv129__pointer_to_member_type_infoE) refers to private_typeinfo.cpp.o(.rodata._ZTSN10__cxxabiv129__pointer_to_member_type_infoE) for typeinfo name for __cxxabiv1::__pointer_to_member_type_info
    private_typeinfo.cpp.o(.rodata._ZTIN10__cxxabiv129__pointer_to_member_type_infoE) refers to private_typeinfo.cpp.o(.rodata._ZTIN10__cxxabiv117__pbase_type_infoE) for typeinfo for __cxxabiv1::__pbase_type_info
    private_typeinfo.cpp.o(.rodata._ZTVN10__cxxabiv116__shim_type_infoE) refers to private_typeinfo.cpp.o(.rodata._ZTIN10__cxxabiv116__shim_type_infoE) for typeinfo for __cxxabiv1::__shim_type_info
    private_typeinfo.cpp.o(.rodata._ZTVN10__cxxabiv116__shim_type_infoE) refers to private_typeinfo.cpp.o(.text._ZN10__cxxabiv116__shim_type_infoD2Ev) for __cxxabiv1::__shim_type_info::~__shim_type_info__sub_object()
    private_typeinfo.cpp.o(.rodata._ZTVN10__cxxabiv116__shim_type_infoE) refers to private_typeinfo.cpp.o(.text._ZN10__cxxabiv116__shim_type_infoD0Ev) for __cxxabiv1::__shim_type_info::~__shim_type_info__deallocating()
    private_typeinfo.cpp.o(.rodata._ZTVN10__cxxabiv116__shim_type_infoE) refers to private_typeinfo.cpp.o(.text._ZNK10__cxxabiv116__shim_type_info5noop1Ev) for __cxxabiv1::__shim_type_info::noop1() const
    private_typeinfo.cpp.o(.rodata._ZTVN10__cxxabiv116__shim_type_infoE) refers to private_typeinfo.cpp.o(.text._ZNK10__cxxabiv116__shim_type_info5noop2Ev) for __cxxabiv1::__shim_type_info::noop2() const
    private_typeinfo.cpp.o(.rodata._ZTVN10__cxxabiv116__shim_type_infoE) refers to cxa_virtual.cpp.o(.text.__cxa_pure_virtual) for __cxa_pure_virtual
    private_typeinfo.cpp.o(.rodata._ZTVN10__cxxabiv123__fundamental_type_infoE) refers to private_typeinfo.cpp.o(.rodata._ZTIN10__cxxabiv123__fundamental_type_infoE) for typeinfo for __cxxabiv1::__fundamental_type_info
    private_typeinfo.cpp.o(.rodata._ZTVN10__cxxabiv123__fundamental_type_infoE) refers to private_typeinfo.cpp.o(.text._ZN10__cxxabiv116__shim_type_infoD2Ev) for __cxxabiv1::__shim_type_info::~__shim_type_info__sub_object()
    private_typeinfo.cpp.o(.rodata._ZTVN10__cxxabiv123__fundamental_type_infoE) refers to private_typeinfo.cpp.o(.text._ZN10__cxxabiv123__fundamental_type_infoD0Ev) for __cxxabiv1::__fundamental_type_info::~__fundamental_type_info__deallocating()
    private_typeinfo.cpp.o(.rodata._ZTVN10__cxxabiv123__fundamental_type_infoE) refers to private_typeinfo.cpp.o(.text._ZNK10__cxxabiv116__shim_type_info5noop1Ev) for __cxxabiv1::__shim_type_info::noop1() const
    private_typeinfo.cpp.o(.rodata._ZTVN10__cxxabiv123__fundamental_type_infoE) refers to private_typeinfo.cpp.o(.text._ZNK10__cxxabiv116__shim_type_info5noop2Ev) for __cxxabiv1::__shim_type_info::noop2() const
    private_typeinfo.cpp.o(.rodata._ZTVN10__cxxabiv123__fundamental_type_infoE) refers to private_typeinfo.cpp.o(.text._ZNK10__cxxabiv123__fundamental_type_info9can_catchEPKNS_16__shim_type_infoERPv) for __cxxabiv1::__fundamental_type_info::can_catch(const __cxxabiv1::__shim_type_info*, void*&) const
    private_typeinfo.cpp.o(.rodata._ZTIN10__cxxabiv123__fundamental_type_infoE) refers to private_typeinfo.cpp.o(.rodata._ZTVN10__cxxabiv120__si_class_type_infoE) for vtable for __cxxabiv1::__si_class_type_info
    private_typeinfo.cpp.o(.rodata._ZTIN10__cxxabiv123__fundamental_type_infoE) refers to private_typeinfo.cpp.o(.rodata._ZTSN10__cxxabiv123__fundamental_type_infoE) for typeinfo name for __cxxabiv1::__fundamental_type_info
    private_typeinfo.cpp.o(.rodata._ZTIN10__cxxabiv123__fundamental_type_infoE) refers to private_typeinfo.cpp.o(.rodata._ZTIN10__cxxabiv116__shim_type_infoE) for typeinfo for __cxxabiv1::__shim_type_info
    private_typeinfo.cpp.o(.rodata._ZTIv) refers to private_typeinfo.cpp.o(.rodata._ZTVN10__cxxabiv123__fundamental_type_infoE) for vtable for __cxxabiv1::__fundamental_type_info
    private_typeinfo.cpp.o(.rodata._ZTIv) refers to private_typeinfo.cpp.o(.rodata._ZTSv) for typeinfo name for void
    private_typeinfo.cpp.o(.rodata._ZTIPv) refers to private_typeinfo.cpp.o(.rodata._ZTVN10__cxxabiv119__pointer_type_infoE) for vtable for __cxxabiv1::__pointer_type_info
    private_typeinfo.cpp.o(.rodata._ZTIPv) refers to private_typeinfo.cpp.o(.rodata._ZTSPv) for typeinfo name for void*
    private_typeinfo.cpp.o(.rodata._ZTIPv) refers to private_typeinfo.cpp.o(.rodata._ZTIv) for typeinfo for void
    private_typeinfo.cpp.o(.rodata._ZTIPKv) refers to private_typeinfo.cpp.o(.rodata._ZTVN10__cxxabiv119__pointer_type_infoE) for vtable for __cxxabiv1::__pointer_type_info
    private_typeinfo.cpp.o(.rodata._ZTIPKv) refers to private_typeinfo.cpp.o(.rodata._ZTSPKv) for typeinfo name for const void*
    private_typeinfo.cpp.o(.rodata._ZTIPKv) refers to private_typeinfo.cpp.o(.rodata._ZTIv) for typeinfo for void
    private_typeinfo.cpp.o(.rodata._ZTIDn) refers to private_typeinfo.cpp.o(.rodata._ZTVN10__cxxabiv123__fundamental_type_infoE) for vtable for __cxxabiv1::__fundamental_type_info
    private_typeinfo.cpp.o(.rodata._ZTIDn) refers to private_typeinfo.cpp.o(.rodata._ZTSDn) for typeinfo name for std::nullptr_t
    private_typeinfo.cpp.o(.rodata._ZTIPDn) refers to private_typeinfo.cpp.o(.rodata._ZTVN10__cxxabiv119__pointer_type_infoE) for vtable for __cxxabiv1::__pointer_type_info
    private_typeinfo.cpp.o(.rodata._ZTIPDn) refers to private_typeinfo.cpp.o(.rodata._ZTSPDn) for typeinfo name for std::nullptr_t*
    private_typeinfo.cpp.o(.rodata._ZTIPDn) refers to private_typeinfo.cpp.o(.rodata._ZTIDn) for typeinfo for std::nullptr_t
    private_typeinfo.cpp.o(.rodata._ZTIPKDn) refers to private_typeinfo.cpp.o(.rodata._ZTVN10__cxxabiv119__pointer_type_infoE) for vtable for __cxxabiv1::__pointer_type_info
    private_typeinfo.cpp.o(.rodata._ZTIPKDn) refers to private_typeinfo.cpp.o(.rodata._ZTSPKDn) for typeinfo name for const std::nullptr_t*
    private_typeinfo.cpp.o(.rodata._ZTIPKDn) refers to private_typeinfo.cpp.o(.rodata._ZTIDn) for typeinfo for std::nullptr_t
    private_typeinfo.cpp.o(.rodata._ZTIb) refers to private_typeinfo.cpp.o(.rodata._ZTVN10__cxxabiv123__fundamental_type_infoE) for vtable for __cxxabiv1::__fundamental_type_info
    private_typeinfo.cpp.o(.rodata._ZTIb) refers to private_typeinfo.cpp.o(.rodata._ZTSb) for typeinfo name for bool
    private_typeinfo.cpp.o(.rodata._ZTIPb) refers to private_typeinfo.cpp.o(.rodata._ZTVN10__cxxabiv119__pointer_type_infoE) for vtable for __cxxabiv1::__pointer_type_info
    private_typeinfo.cpp.o(.rodata._ZTIPb) refers to private_typeinfo.cpp.o(.rodata._ZTSPb) for typeinfo name for bool*
    private_typeinfo.cpp.o(.rodata._ZTIPb) refers to private_typeinfo.cpp.o(.rodata._ZTIb) for typeinfo for bool
    private_typeinfo.cpp.o(.rodata._ZTIPKb) refers to private_typeinfo.cpp.o(.rodata._ZTVN10__cxxabiv119__pointer_type_infoE) for vtable for __cxxabiv1::__pointer_type_info
    private_typeinfo.cpp.o(.rodata._ZTIPKb) refers to private_typeinfo.cpp.o(.rodata._ZTSPKb) for typeinfo name for const bool*
    private_typeinfo.cpp.o(.rodata._ZTIPKb) refers to private_typeinfo.cpp.o(.rodata._ZTIb) for typeinfo for bool
    private_typeinfo.cpp.o(.rodata._ZTIw) refers to private_typeinfo.cpp.o(.rodata._ZTVN10__cxxabiv123__fundamental_type_infoE) for vtable for __cxxabiv1::__fundamental_type_info
    private_typeinfo.cpp.o(.rodata._ZTIw) refers to private_typeinfo.cpp.o(.rodata._ZTSw) for typeinfo name for wchar_t
    private_typeinfo.cpp.o(.rodata._ZTIPw) refers to private_typeinfo.cpp.o(.rodata._ZTVN10__cxxabiv119__pointer_type_infoE) for vtable for __cxxabiv1::__pointer_type_info
    private_typeinfo.cpp.o(.rodata._ZTIPw) refers to private_typeinfo.cpp.o(.rodata._ZTSPw) for typeinfo name for wchar_t*
    private_typeinfo.cpp.o(.rodata._ZTIPw) refers to private_typeinfo.cpp.o(.rodata._ZTIw) for typeinfo for wchar_t
    private_typeinfo.cpp.o(.rodata._ZTIPKw) refers to private_typeinfo.cpp.o(.rodata._ZTVN10__cxxabiv119__pointer_type_infoE) for vtable for __cxxabiv1::__pointer_type_info
    private_typeinfo.cpp.o(.rodata._ZTIPKw) refers to private_typeinfo.cpp.o(.rodata._ZTSPKw) for typeinfo name for const wchar_t*
    private_typeinfo.cpp.o(.rodata._ZTIPKw) refers to private_typeinfo.cpp.o(.rodata._ZTIw) for typeinfo for wchar_t
    private_typeinfo.cpp.o(.rodata._ZTIc) refers to private_typeinfo.cpp.o(.rodata._ZTVN10__cxxabiv123__fundamental_type_infoE) for vtable for __cxxabiv1::__fundamental_type_info
    private_typeinfo.cpp.o(.rodata._ZTIc) refers to private_typeinfo.cpp.o(.rodata._ZTSc) for typeinfo name for char
    private_typeinfo.cpp.o(.rodata._ZTIPc) refers to private_typeinfo.cpp.o(.rodata._ZTVN10__cxxabiv119__pointer_type_infoE) for vtable for __cxxabiv1::__pointer_type_info
    private_typeinfo.cpp.o(.rodata._ZTIPc) refers to private_typeinfo.cpp.o(.rodata._ZTSPc) for typeinfo name for char*
    private_typeinfo.cpp.o(.rodata._ZTIPc) refers to private_typeinfo.cpp.o(.rodata._ZTIc) for typeinfo for char
    private_typeinfo.cpp.o(.rodata._ZTIPKc) refers to private_typeinfo.cpp.o(.rodata._ZTVN10__cxxabiv119__pointer_type_infoE) for vtable for __cxxabiv1::__pointer_type_info
    private_typeinfo.cpp.o(.rodata._ZTIPKc) refers to private_typeinfo.cpp.o(.rodata._ZTSPKc) for typeinfo name for const char*
    private_typeinfo.cpp.o(.rodata._ZTIPKc) refers to private_typeinfo.cpp.o(.rodata._ZTIc) for typeinfo for char
    private_typeinfo.cpp.o(.rodata._ZTIh) refers to private_typeinfo.cpp.o(.rodata._ZTVN10__cxxabiv123__fundamental_type_infoE) for vtable for __cxxabiv1::__fundamental_type_info
    private_typeinfo.cpp.o(.rodata._ZTIh) refers to private_typeinfo.cpp.o(.rodata._ZTSh) for typeinfo name for unsigned char
    private_typeinfo.cpp.o(.rodata._ZTIPh) refers to private_typeinfo.cpp.o(.rodata._ZTVN10__cxxabiv119__pointer_type_infoE) for vtable for __cxxabiv1::__pointer_type_info
    private_typeinfo.cpp.o(.rodata._ZTIPh) refers to private_typeinfo.cpp.o(.rodata._ZTSPh) for typeinfo name for unsigned char*
    private_typeinfo.cpp.o(.rodata._ZTIPh) refers to private_typeinfo.cpp.o(.rodata._ZTIh) for typeinfo for unsigned char
    private_typeinfo.cpp.o(.rodata._ZTIPKh) refers to private_typeinfo.cpp.o(.rodata._ZTVN10__cxxabiv119__pointer_type_infoE) for vtable for __cxxabiv1::__pointer_type_info
    private_typeinfo.cpp.o(.rodata._ZTIPKh) refers to private_typeinfo.cpp.o(.rodata._ZTSPKh) for typeinfo name for const unsigned char*
    private_typeinfo.cpp.o(.rodata._ZTIPKh) refers to private_typeinfo.cpp.o(.rodata._ZTIh) for typeinfo for unsigned char
    private_typeinfo.cpp.o(.rodata._ZTIa) refers to private_typeinfo.cpp.o(.rodata._ZTVN10__cxxabiv123__fundamental_type_infoE) for vtable for __cxxabiv1::__fundamental_type_info
    private_typeinfo.cpp.o(.rodata._ZTIa) refers to private_typeinfo.cpp.o(.rodata._ZTSa) for typeinfo name for signed char
    private_typeinfo.cpp.o(.rodata._ZTIPa) refers to private_typeinfo.cpp.o(.rodata._ZTVN10__cxxabiv119__pointer_type_infoE) for vtable for __cxxabiv1::__pointer_type_info
    private_typeinfo.cpp.o(.rodata._ZTIPa) refers to private_typeinfo.cpp.o(.rodata._ZTSPa) for typeinfo name for signed char*
    private_typeinfo.cpp.o(.rodata._ZTIPa) refers to private_typeinfo.cpp.o(.rodata._ZTIa) for typeinfo for signed char
    private_typeinfo.cpp.o(.rodata._ZTIPKa) refers to private_typeinfo.cpp.o(.rodata._ZTVN10__cxxabiv119__pointer_type_infoE) for vtable for __cxxabiv1::__pointer_type_info
    private_typeinfo.cpp.o(.rodata._ZTIPKa) refers to private_typeinfo.cpp.o(.rodata._ZTSPKa) for typeinfo name for const signed char*
    private_typeinfo.cpp.o(.rodata._ZTIPKa) refers to private_typeinfo.cpp.o(.rodata._ZTIa) for typeinfo for signed char
    private_typeinfo.cpp.o(.rodata._ZTIs) refers to private_typeinfo.cpp.o(.rodata._ZTVN10__cxxabiv123__fundamental_type_infoE) for vtable for __cxxabiv1::__fundamental_type_info
    private_typeinfo.cpp.o(.rodata._ZTIs) refers to private_typeinfo.cpp.o(.rodata._ZTSs) for typeinfo name for short
    private_typeinfo.cpp.o(.rodata._ZTIPs) refers to private_typeinfo.cpp.o(.rodata._ZTVN10__cxxabiv119__pointer_type_infoE) for vtable for __cxxabiv1::__pointer_type_info
    private_typeinfo.cpp.o(.rodata._ZTIPs) refers to private_typeinfo.cpp.o(.rodata._ZTSPs) for typeinfo name for short*
    private_typeinfo.cpp.o(.rodata._ZTIPs) refers to private_typeinfo.cpp.o(.rodata._ZTIs) for typeinfo for short
    private_typeinfo.cpp.o(.rodata._ZTIPKs) refers to private_typeinfo.cpp.o(.rodata._ZTVN10__cxxabiv119__pointer_type_infoE) for vtable for __cxxabiv1::__pointer_type_info
    private_typeinfo.cpp.o(.rodata._ZTIPKs) refers to private_typeinfo.cpp.o(.rodata._ZTSPKs) for typeinfo name for const short*
    private_typeinfo.cpp.o(.rodata._ZTIPKs) refers to private_typeinfo.cpp.o(.rodata._ZTIs) for typeinfo for short
    private_typeinfo.cpp.o(.rodata._ZTIt) refers to private_typeinfo.cpp.o(.rodata._ZTVN10__cxxabiv123__fundamental_type_infoE) for vtable for __cxxabiv1::__fundamental_type_info
    private_typeinfo.cpp.o(.rodata._ZTIt) refers to private_typeinfo.cpp.o(.rodata._ZTSt) for typeinfo name for unsigned short
    private_typeinfo.cpp.o(.rodata._ZTIPt) refers to private_typeinfo.cpp.o(.rodata._ZTVN10__cxxabiv119__pointer_type_infoE) for vtable for __cxxabiv1::__pointer_type_info
    private_typeinfo.cpp.o(.rodata._ZTIPt) refers to private_typeinfo.cpp.o(.rodata._ZTSPt) for typeinfo name for unsigned short*
    private_typeinfo.cpp.o(.rodata._ZTIPt) refers to private_typeinfo.cpp.o(.rodata._ZTIt) for typeinfo for unsigned short
    private_typeinfo.cpp.o(.rodata._ZTIPKt) refers to private_typeinfo.cpp.o(.rodata._ZTVN10__cxxabiv119__pointer_type_infoE) for vtable for __cxxabiv1::__pointer_type_info
    private_typeinfo.cpp.o(.rodata._ZTIPKt) refers to private_typeinfo.cpp.o(.rodata._ZTSPKt) for typeinfo name for const unsigned short*
    private_typeinfo.cpp.o(.rodata._ZTIPKt) refers to private_typeinfo.cpp.o(.rodata._ZTIt) for typeinfo for unsigned short
    private_typeinfo.cpp.o(.rodata._ZTIi) refers to private_typeinfo.cpp.o(.rodata._ZTVN10__cxxabiv123__fundamental_type_infoE) for vtable for __cxxabiv1::__fundamental_type_info
    private_typeinfo.cpp.o(.rodata._ZTIi) refers to private_typeinfo.cpp.o(.rodata._ZTSi) for typeinfo name for int
    private_typeinfo.cpp.o(.rodata._ZTIPi) refers to private_typeinfo.cpp.o(.rodata._ZTVN10__cxxabiv119__pointer_type_infoE) for vtable for __cxxabiv1::__pointer_type_info
    private_typeinfo.cpp.o(.rodata._ZTIPi) refers to private_typeinfo.cpp.o(.rodata._ZTSPi) for typeinfo name for int*
    private_typeinfo.cpp.o(.rodata._ZTIPi) refers to private_typeinfo.cpp.o(.rodata._ZTIi) for typeinfo for int
    private_typeinfo.cpp.o(.rodata._ZTIPKi) refers to private_typeinfo.cpp.o(.rodata._ZTVN10__cxxabiv119__pointer_type_infoE) for vtable for __cxxabiv1::__pointer_type_info
    private_typeinfo.cpp.o(.rodata._ZTIPKi) refers to private_typeinfo.cpp.o(.rodata._ZTSPKi) for typeinfo name for const int*
    private_typeinfo.cpp.o(.rodata._ZTIPKi) refers to private_typeinfo.cpp.o(.rodata._ZTIi) for typeinfo for int
    private_typeinfo.cpp.o(.rodata._ZTIj) refers to private_typeinfo.cpp.o(.rodata._ZTVN10__cxxabiv123__fundamental_type_infoE) for vtable for __cxxabiv1::__fundamental_type_info
    private_typeinfo.cpp.o(.rodata._ZTIj) refers to private_typeinfo.cpp.o(.rodata._ZTSj) for typeinfo name for unsigned
    private_typeinfo.cpp.o(.rodata._ZTIPj) refers to private_typeinfo.cpp.o(.rodata._ZTVN10__cxxabiv119__pointer_type_infoE) for vtable for __cxxabiv1::__pointer_type_info
    private_typeinfo.cpp.o(.rodata._ZTIPj) refers to private_typeinfo.cpp.o(.rodata._ZTSPj) for typeinfo name for unsigned*
    private_typeinfo.cpp.o(.rodata._ZTIPj) refers to private_typeinfo.cpp.o(.rodata._ZTIj) for typeinfo for unsigned
    private_typeinfo.cpp.o(.rodata._ZTIPKj) refers to private_typeinfo.cpp.o(.rodata._ZTVN10__cxxabiv119__pointer_type_infoE) for vtable for __cxxabiv1::__pointer_type_info
    private_typeinfo.cpp.o(.rodata._ZTIPKj) refers to private_typeinfo.cpp.o(.rodata._ZTSPKj) for typeinfo name for const unsigned*
    private_typeinfo.cpp.o(.rodata._ZTIPKj) refers to private_typeinfo.cpp.o(.rodata._ZTIj) for typeinfo for unsigned
    private_typeinfo.cpp.o(.rodata._ZTIl) refers to private_typeinfo.cpp.o(.rodata._ZTVN10__cxxabiv123__fundamental_type_infoE) for vtable for __cxxabiv1::__fundamental_type_info
    private_typeinfo.cpp.o(.rodata._ZTIl) refers to private_typeinfo.cpp.o(.rodata._ZTSl) for typeinfo name for long
    private_typeinfo.cpp.o(.rodata._ZTIPl) refers to private_typeinfo.cpp.o(.rodata._ZTVN10__cxxabiv119__pointer_type_infoE) for vtable for __cxxabiv1::__pointer_type_info
    private_typeinfo.cpp.o(.rodata._ZTIPl) refers to private_typeinfo.cpp.o(.rodata._ZTSPl) for typeinfo name for long*
    private_typeinfo.cpp.o(.rodata._ZTIPl) refers to private_typeinfo.cpp.o(.rodata._ZTIl) for typeinfo for long
    private_typeinfo.cpp.o(.rodata._ZTIPKl) refers to private_typeinfo.cpp.o(.rodata._ZTVN10__cxxabiv119__pointer_type_infoE) for vtable for __cxxabiv1::__pointer_type_info
    private_typeinfo.cpp.o(.rodata._ZTIPKl) refers to private_typeinfo.cpp.o(.rodata._ZTSPKl) for typeinfo name for const long*
    private_typeinfo.cpp.o(.rodata._ZTIPKl) refers to private_typeinfo.cpp.o(.rodata._ZTIl) for typeinfo for long
    private_typeinfo.cpp.o(.rodata._ZTIm) refers to private_typeinfo.cpp.o(.rodata._ZTVN10__cxxabiv123__fundamental_type_infoE) for vtable for __cxxabiv1::__fundamental_type_info
    private_typeinfo.cpp.o(.rodata._ZTIm) refers to private_typeinfo.cpp.o(.rodata._ZTSm) for typeinfo name for unsigned long
    private_typeinfo.cpp.o(.rodata._ZTIPm) refers to private_typeinfo.cpp.o(.rodata._ZTVN10__cxxabiv119__pointer_type_infoE) for vtable for __cxxabiv1::__pointer_type_info
    private_typeinfo.cpp.o(.rodata._ZTIPm) refers to private_typeinfo.cpp.o(.rodata._ZTSPm) for typeinfo name for unsigned long*
    private_typeinfo.cpp.o(.rodata._ZTIPm) refers to private_typeinfo.cpp.o(.rodata._ZTIm) for typeinfo for unsigned long
    private_typeinfo.cpp.o(.rodata._ZTIPKm) refers to private_typeinfo.cpp.o(.rodata._ZTVN10__cxxabiv119__pointer_type_infoE) for vtable for __cxxabiv1::__pointer_type_info
    private_typeinfo.cpp.o(.rodata._ZTIPKm) refers to private_typeinfo.cpp.o(.rodata._ZTSPKm) for typeinfo name for const unsigned long*
    private_typeinfo.cpp.o(.rodata._ZTIPKm) refers to private_typeinfo.cpp.o(.rodata._ZTIm) for typeinfo for unsigned long
    private_typeinfo.cpp.o(.rodata._ZTIx) refers to private_typeinfo.cpp.o(.rodata._ZTVN10__cxxabiv123__fundamental_type_infoE) for vtable for __cxxabiv1::__fundamental_type_info
    private_typeinfo.cpp.o(.rodata._ZTIx) refers to private_typeinfo.cpp.o(.rodata._ZTSx) for typeinfo name for long long
    private_typeinfo.cpp.o(.rodata._ZTIPx) refers to private_typeinfo.cpp.o(.rodata._ZTVN10__cxxabiv119__pointer_type_infoE) for vtable for __cxxabiv1::__pointer_type_info
    private_typeinfo.cpp.o(.rodata._ZTIPx) refers to private_typeinfo.cpp.o(.rodata._ZTSPx) for typeinfo name for long long*
    private_typeinfo.cpp.o(.rodata._ZTIPx) refers to private_typeinfo.cpp.o(.rodata._ZTIx) for typeinfo for long long
    private_typeinfo.cpp.o(.rodata._ZTIPKx) refers to private_typeinfo.cpp.o(.rodata._ZTVN10__cxxabiv119__pointer_type_infoE) for vtable for __cxxabiv1::__pointer_type_info
    private_typeinfo.cpp.o(.rodata._ZTIPKx) refers to private_typeinfo.cpp.o(.rodata._ZTSPKx) for typeinfo name for const long long*
    private_typeinfo.cpp.o(.rodata._ZTIPKx) refers to private_typeinfo.cpp.o(.rodata._ZTIx) for typeinfo for long long
    private_typeinfo.cpp.o(.rodata._ZTIy) refers to private_typeinfo.cpp.o(.rodata._ZTVN10__cxxabiv123__fundamental_type_infoE) for vtable for __cxxabiv1::__fundamental_type_info
    private_typeinfo.cpp.o(.rodata._ZTIy) refers to private_typeinfo.cpp.o(.rodata._ZTSy) for typeinfo name for unsigned long long
    private_typeinfo.cpp.o(.rodata._ZTIPy) refers to private_typeinfo.cpp.o(.rodata._ZTVN10__cxxabiv119__pointer_type_infoE) for vtable for __cxxabiv1::__pointer_type_info
    private_typeinfo.cpp.o(.rodata._ZTIPy) refers to private_typeinfo.cpp.o(.rodata._ZTSPy) for typeinfo name for unsigned long long*
    private_typeinfo.cpp.o(.rodata._ZTIPy) refers to private_typeinfo.cpp.o(.rodata._ZTIy) for typeinfo for unsigned long long
    private_typeinfo.cpp.o(.rodata._ZTIPKy) refers to private_typeinfo.cpp.o(.rodata._ZTVN10__cxxabiv119__pointer_type_infoE) for vtable for __cxxabiv1::__pointer_type_info
    private_typeinfo.cpp.o(.rodata._ZTIPKy) refers to private_typeinfo.cpp.o(.rodata._ZTSPKy) for typeinfo name for const unsigned long long*
    private_typeinfo.cpp.o(.rodata._ZTIPKy) refers to private_typeinfo.cpp.o(.rodata._ZTIy) for typeinfo for unsigned long long
    private_typeinfo.cpp.o(.rodata._ZTIn) refers to private_typeinfo.cpp.o(.rodata._ZTVN10__cxxabiv123__fundamental_type_infoE) for vtable for __cxxabiv1::__fundamental_type_info
    private_typeinfo.cpp.o(.rodata._ZTIn) refers to private_typeinfo.cpp.o(.rodata._ZTSn) for typeinfo name for __int128
    private_typeinfo.cpp.o(.rodata._ZTIPn) refers to private_typeinfo.cpp.o(.rodata._ZTVN10__cxxabiv119__pointer_type_infoE) for vtable for __cxxabiv1::__pointer_type_info
    private_typeinfo.cpp.o(.rodata._ZTIPn) refers to private_typeinfo.cpp.o(.rodata._ZTSPn) for typeinfo name for __int128*
    private_typeinfo.cpp.o(.rodata._ZTIPn) refers to private_typeinfo.cpp.o(.rodata._ZTIn) for typeinfo for __int128
    private_typeinfo.cpp.o(.rodata._ZTIPKn) refers to private_typeinfo.cpp.o(.rodata._ZTVN10__cxxabiv119__pointer_type_infoE) for vtable for __cxxabiv1::__pointer_type_info
    private_typeinfo.cpp.o(.rodata._ZTIPKn) refers to private_typeinfo.cpp.o(.rodata._ZTSPKn) for typeinfo name for const __int128*
    private_typeinfo.cpp.o(.rodata._ZTIPKn) refers to private_typeinfo.cpp.o(.rodata._ZTIn) for typeinfo for __int128
    private_typeinfo.cpp.o(.rodata._ZTIo) refers to private_typeinfo.cpp.o(.rodata._ZTVN10__cxxabiv123__fundamental_type_infoE) for vtable for __cxxabiv1::__fundamental_type_info
    private_typeinfo.cpp.o(.rodata._ZTIo) refers to private_typeinfo.cpp.o(.rodata._ZTSo) for typeinfo name for unsigned __int128
    private_typeinfo.cpp.o(.rodata._ZTIPo) refers to private_typeinfo.cpp.o(.rodata._ZTVN10__cxxabiv119__pointer_type_infoE) for vtable for __cxxabiv1::__pointer_type_info
    private_typeinfo.cpp.o(.rodata._ZTIPo) refers to private_typeinfo.cpp.o(.rodata._ZTSPo) for typeinfo name for unsigned __int128*
    private_typeinfo.cpp.o(.rodata._ZTIPo) refers to private_typeinfo.cpp.o(.rodata._ZTIo) for typeinfo for unsigned __int128
    private_typeinfo.cpp.o(.rodata._ZTIPKo) refers to private_typeinfo.cpp.o(.rodata._ZTVN10__cxxabiv119__pointer_type_infoE) for vtable for __cxxabiv1::__pointer_type_info
    private_typeinfo.cpp.o(.rodata._ZTIPKo) refers to private_typeinfo.cpp.o(.rodata._ZTSPKo) for typeinfo name for const unsigned __int128*
    private_typeinfo.cpp.o(.rodata._ZTIPKo) refers to private_typeinfo.cpp.o(.rodata._ZTIo) for typeinfo for unsigned __int128
    private_typeinfo.cpp.o(.rodata._ZTIDh) refers to private_typeinfo.cpp.o(.rodata._ZTVN10__cxxabiv123__fundamental_type_infoE) for vtable for __cxxabiv1::__fundamental_type_info
    private_typeinfo.cpp.o(.rodata._ZTIDh) refers to private_typeinfo.cpp.o(.rodata._ZTSDh) for typeinfo name for __fp16
    private_typeinfo.cpp.o(.rodata._ZTIPDh) refers to private_typeinfo.cpp.o(.rodata._ZTVN10__cxxabiv119__pointer_type_infoE) for vtable for __cxxabiv1::__pointer_type_info
    private_typeinfo.cpp.o(.rodata._ZTIPDh) refers to private_typeinfo.cpp.o(.rodata._ZTSPDh) for typeinfo name for __fp16*
    private_typeinfo.cpp.o(.rodata._ZTIPDh) refers to private_typeinfo.cpp.o(.rodata._ZTIDh) for typeinfo for __fp16
    private_typeinfo.cpp.o(.rodata._ZTIPKDh) refers to private_typeinfo.cpp.o(.rodata._ZTVN10__cxxabiv119__pointer_type_infoE) for vtable for __cxxabiv1::__pointer_type_info
    private_typeinfo.cpp.o(.rodata._ZTIPKDh) refers to private_typeinfo.cpp.o(.rodata._ZTSPKDh) for typeinfo name for const __fp16*
